
Daq.elf:     file format elf32-littlearm

Sections:
Idx Name          Size      VMA       LMA       File off  Algn
  0 .text         000083fc  00400000  00400000  00010000  2**3
                  CONTENTS, ALLOC, LOAD, READONLY, CODE
  1 .ARM.exidx    00000008  004083fc  004083fc  000183fc  2**2
                  CONTENTS, ALLOC, LOAD, READONLY, DATA
  2 .relocate     00000bb8  20000000  00408404  00020000  2**3
                  CONTENTS, ALLOC, LOAD, CODE
  3 .bss          00000320  20000bb8  00408fbc  00020bb8  2**2
                  ALLOC
  4 .stack        00002000  20000ed8  004092dc  00020bb8  2**0
                  ALLOC
  5 .ARM.attributes 00000029  00000000  00000000  00020bb8  2**0
                  CONTENTS, READONLY
  6 .comment      00000059  00000000  00000000  00020be1  2**0
                  CONTENTS, READONLY
  7 .debug_info   00021c67  00000000  00000000  00020c3a  2**0
                  CONTENTS, READONLY, DEBUGGING
  8 .debug_abbrev 000046c9  00000000  00000000  000428a1  2**0
                  CONTENTS, READONLY, DEBUGGING
  9 .debug_aranges 00000da8  00000000  00000000  00046f6a  2**0
                  CONTENTS, READONLY, DEBUGGING
 10 .debug_macro  00017607  00000000  00000000  00047d12  2**0
                  CONTENTS, READONLY, DEBUGGING
 11 .debug_line   00014482  00000000  00000000  0005f319  2**0
                  CONTENTS, READONLY, DEBUGGING
 12 .debug_str    000531a5  00000000  00000000  0007379b  2**0
                  CONTENTS, READONLY, DEBUGGING
 13 .debug_loc    00007eac  00000000  00000000  000c6940  2**0
                  CONTENTS, READONLY, DEBUGGING
 14 .debug_ranges 00000d58  00000000  00000000  000ce7ec  2**0
                  CONTENTS, READONLY, DEBUGGING
 15 .debug_frame  00002bcc  00000000  00000000  000cf544  2**2
                  CONTENTS, READONLY, DEBUGGING

Disassembly of section .text:

00400000 <exception_table>:
  400000:	d8 2e 00 20 15 33 40 00 13 33 40 00 13 33 40 00     ... .3@..3@..3@.
  400010:	13 33 40 00 13 33 40 00 13 33 40 00 00 00 00 00     .3@..3@..3@.....
	...
  40002c:	13 33 40 00 13 33 40 00 00 00 00 00 13 33 40 00     .3@..3@......3@.
  40003c:	13 33 40 00 13 33 40 00 13 33 40 00 13 33 40 00     .3@..3@..3@..3@.
  40004c:	13 33 40 00 13 33 40 00 13 33 40 00 13 33 40 00     .3@..3@..3@..3@.
  40005c:	13 33 40 00 13 33 40 00 13 33 40 00 13 33 40 00     .3@..3@..3@..3@.
  40006c:	59 0f 40 00 6d 0f 40 00 13 33 40 00 13 33 40 00     Y.@.m.@..3@..3@.
  40007c:	13 33 40 00 13 33 40 00 13 33 40 00 13 33 40 00     .3@..3@..3@..3@.
  40008c:	13 33 40 00 13 33 40 00 13 33 40 00 13 33 40 00     .3@..3@..3@..3@.
  40009c:	65 2a 40 00 13 33 40 00 13 33 40 00 13 33 40 00     e*@..3@..3@..3@.
  4000ac:	13 33 40 00 13 33 40 00 49 29 40 00 13 33 40 00     .3@..3@.I)@..3@.
  4000bc:	13 33 40 00 13 33 40 00 13 33 40 00 3d 15 40 00     .3@..3@..3@.=.@.
  4000cc:	13 33 40 00                                         .3@.

004000d0 <__do_global_dtors_aux>:
  4000d0:	b510      	push	{r4, lr}
  4000d2:	4c05      	ldr	r4, [pc, #20]	; (4000e8 <__do_global_dtors_aux+0x18>)
  4000d4:	7823      	ldrb	r3, [r4, #0]
  4000d6:	b933      	cbnz	r3, 4000e6 <__do_global_dtors_aux+0x16>
  4000d8:	4b04      	ldr	r3, [pc, #16]	; (4000ec <__do_global_dtors_aux+0x1c>)
  4000da:	b113      	cbz	r3, 4000e2 <__do_global_dtors_aux+0x12>
  4000dc:	4804      	ldr	r0, [pc, #16]	; (4000f0 <__do_global_dtors_aux+0x20>)
  4000de:	f3af 8000 	nop.w
  4000e2:	2301      	movs	r3, #1
  4000e4:	7023      	strb	r3, [r4, #0]
  4000e6:	bd10      	pop	{r4, pc}
  4000e8:	20000bb8 	.word	0x20000bb8
  4000ec:	00000000 	.word	0x00000000
  4000f0:	00408404 	.word	0x00408404

004000f4 <frame_dummy>:
  4000f4:	4b0c      	ldr	r3, [pc, #48]	; (400128 <frame_dummy+0x34>)
  4000f6:	b143      	cbz	r3, 40010a <frame_dummy+0x16>
  4000f8:	480c      	ldr	r0, [pc, #48]	; (40012c <frame_dummy+0x38>)
  4000fa:	b510      	push	{r4, lr}
  4000fc:	490c      	ldr	r1, [pc, #48]	; (400130 <frame_dummy+0x3c>)
  4000fe:	f3af 8000 	nop.w
  400102:	480c      	ldr	r0, [pc, #48]	; (400134 <frame_dummy+0x40>)
  400104:	6803      	ldr	r3, [r0, #0]
  400106:	b923      	cbnz	r3, 400112 <frame_dummy+0x1e>
  400108:	bd10      	pop	{r4, pc}
  40010a:	480a      	ldr	r0, [pc, #40]	; (400134 <frame_dummy+0x40>)
  40010c:	6803      	ldr	r3, [r0, #0]
  40010e:	b933      	cbnz	r3, 40011e <frame_dummy+0x2a>
  400110:	4770      	bx	lr
  400112:	4b09      	ldr	r3, [pc, #36]	; (400138 <frame_dummy+0x44>)
  400114:	2b00      	cmp	r3, #0
  400116:	d0f7      	beq.n	400108 <frame_dummy+0x14>
  400118:	e8bd 4010 	ldmia.w	sp!, {r4, lr}
  40011c:	4718      	bx	r3
  40011e:	4b06      	ldr	r3, [pc, #24]	; (400138 <frame_dummy+0x44>)
  400120:	2b00      	cmp	r3, #0
  400122:	d0f5      	beq.n	400110 <frame_dummy+0x1c>
  400124:	4718      	bx	r3
  400126:	bf00      	nop
  400128:	00000000 	.word	0x00000000
  40012c:	00408404 	.word	0x00408404
  400130:	20000bbc 	.word	0x20000bbc
  400134:	00408404 	.word	0x00408404
  400138:	00000000 	.word	0x00000000

0040013c <udi_cdc_comm_enable>:
  40013c:	490e      	ldr	r1, [pc, #56]	; (400178 <udi_cdc_comm_enable+0x3c>)
  40013e:	2300      	movs	r3, #0
  400140:	700b      	strb	r3, [r1, #0]
  400142:	4a0e      	ldr	r2, [pc, #56]	; (40017c <udi_cdc_comm_enable+0x40>)
  400144:	8013      	strh	r3, [r2, #0]
  400146:	4a0e      	ldr	r2, [pc, #56]	; (400180 <udi_cdc_comm_enable+0x44>)
  400148:	20a1      	movs	r0, #161	; 0xa1
  40014a:	7010      	strb	r0, [r2, #0]
  40014c:	2020      	movs	r0, #32
  40014e:	7050      	strb	r0, [r2, #1]
  400150:	8053      	strh	r3, [r2, #2]
  400152:	8093      	strh	r3, [r2, #4]
  400154:	2002      	movs	r0, #2
  400156:	80d0      	strh	r0, [r2, #6]
  400158:	8113      	strh	r3, [r2, #8]
  40015a:	4a0a      	ldr	r2, [pc, #40]	; (400184 <udi_cdc_comm_enable+0x48>)
  40015c:	f44f 30e1 	mov.w	r0, #115200	; 0x1c200
  400160:	6010      	str	r0, [r2, #0]
  400162:	7113      	strb	r3, [r2, #4]
  400164:	7153      	strb	r3, [r2, #5]
  400166:	2308      	movs	r3, #8
  400168:	7193      	strb	r3, [r2, #6]
  40016a:	780b      	ldrb	r3, [r1, #0]
  40016c:	3301      	adds	r3, #1
  40016e:	b2db      	uxtb	r3, r3
  400170:	700b      	strb	r3, [r1, #0]
  400172:	2001      	movs	r0, #1
  400174:	4770      	bx	lr
  400176:	bf00      	nop
  400178:	20000bdf 	.word	0x20000bdf
  40017c:	20000c74 	.word	0x20000c74
  400180:	20000d0c 	.word	0x20000d0c
  400184:	20000bd8 	.word	0x20000bd8

00400188 <udi_cdc_comm_disable>:
  400188:	4a02      	ldr	r2, [pc, #8]	; (400194 <udi_cdc_comm_disable+0xc>)
  40018a:	7813      	ldrb	r3, [r2, #0]
  40018c:	3b01      	subs	r3, #1
  40018e:	b2db      	uxtb	r3, r3
  400190:	7013      	strb	r3, [r2, #0]
  400192:	4770      	bx	lr
  400194:	20000bdf 	.word	0x20000bdf

00400198 <udi_cdc_data_disable>:
  400198:	4a04      	ldr	r2, [pc, #16]	; (4001ac <udi_cdc_data_disable+0x14>)
  40019a:	7813      	ldrb	r3, [r2, #0]
  40019c:	3b01      	subs	r3, #1
  40019e:	b2db      	uxtb	r3, r3
  4001a0:	7013      	strb	r3, [r2, #0]
  4001a2:	7813      	ldrb	r3, [r2, #0]
  4001a4:	2200      	movs	r2, #0
  4001a6:	4b02      	ldr	r3, [pc, #8]	; (4001b0 <udi_cdc_data_disable+0x18>)
  4001a8:	701a      	strb	r2, [r3, #0]
  4001aa:	4770      	bx	lr
  4001ac:	20000be0 	.word	0x20000be0
  4001b0:	20000bd6 	.word	0x20000bd6

004001b4 <udi_cdc_data_setup>:
  4001b4:	2000      	movs	r0, #0
  4001b6:	4770      	bx	lr

004001b8 <udi_cdc_getsetting>:
  4001b8:	2000      	movs	r0, #0
  4001ba:	4770      	bx	lr

004001bc <udi_cdc_comm_setup>:
  4001bc:	4b1d      	ldr	r3, [pc, #116]	; (400234 <udi_cdc_comm_setup+0x78>)
  4001be:	781b      	ldrb	r3, [r3, #0]
  4001c0:	f013 0f80 	tst.w	r3, #128	; 0x80
  4001c4:	d105      	bne.n	4001d2 <udi_cdc_comm_setup+0x16>
  4001c6:	f003 0360 	and.w	r3, r3, #96	; 0x60
  4001ca:	2b20      	cmp	r3, #32
  4001cc:	d018      	beq.n	400200 <udi_cdc_comm_setup+0x44>
  4001ce:	2000      	movs	r0, #0
  4001d0:	4770      	bx	lr
  4001d2:	f003 0360 	and.w	r3, r3, #96	; 0x60
  4001d6:	2b20      	cmp	r3, #32
  4001d8:	d001      	beq.n	4001de <udi_cdc_comm_setup+0x22>
  4001da:	2000      	movs	r0, #0
  4001dc:	4770      	bx	lr
  4001de:	4b15      	ldr	r3, [pc, #84]	; (400234 <udi_cdc_comm_setup+0x78>)
  4001e0:	785b      	ldrb	r3, [r3, #1]
  4001e2:	2b21      	cmp	r3, #33	; 0x21
  4001e4:	d124      	bne.n	400230 <udi_cdc_comm_setup+0x74>
  4001e6:	4b13      	ldr	r3, [pc, #76]	; (400234 <udi_cdc_comm_setup+0x78>)
  4001e8:	88db      	ldrh	r3, [r3, #6]
  4001ea:	2b07      	cmp	r3, #7
  4001ec:	d001      	beq.n	4001f2 <udi_cdc_comm_setup+0x36>
  4001ee:	2000      	movs	r0, #0
  4001f0:	4770      	bx	lr
  4001f2:	4b10      	ldr	r3, [pc, #64]	; (400234 <udi_cdc_comm_setup+0x78>)
  4001f4:	4a10      	ldr	r2, [pc, #64]	; (400238 <udi_cdc_comm_setup+0x7c>)
  4001f6:	609a      	str	r2, [r3, #8]
  4001f8:	2207      	movs	r2, #7
  4001fa:	819a      	strh	r2, [r3, #12]
  4001fc:	2001      	movs	r0, #1
  4001fe:	4770      	bx	lr
  400200:	4b0c      	ldr	r3, [pc, #48]	; (400234 <udi_cdc_comm_setup+0x78>)
  400202:	7858      	ldrb	r0, [r3, #1]
  400204:	2820      	cmp	r0, #32
  400206:	d004      	beq.n	400212 <udi_cdc_comm_setup+0x56>
  400208:	2822      	cmp	r0, #34	; 0x22
  40020a:	bf14      	ite	ne
  40020c:	2000      	movne	r0, #0
  40020e:	2001      	moveq	r0, #1
  400210:	4770      	bx	lr
  400212:	4b08      	ldr	r3, [pc, #32]	; (400234 <udi_cdc_comm_setup+0x78>)
  400214:	88db      	ldrh	r3, [r3, #6]
  400216:	2b07      	cmp	r3, #7
  400218:	d001      	beq.n	40021e <udi_cdc_comm_setup+0x62>
  40021a:	2000      	movs	r0, #0
  40021c:	4770      	bx	lr
  40021e:	4b05      	ldr	r3, [pc, #20]	; (400234 <udi_cdc_comm_setup+0x78>)
  400220:	4a06      	ldr	r2, [pc, #24]	; (40023c <udi_cdc_comm_setup+0x80>)
  400222:	611a      	str	r2, [r3, #16]
  400224:	4a04      	ldr	r2, [pc, #16]	; (400238 <udi_cdc_comm_setup+0x7c>)
  400226:	609a      	str	r2, [r3, #8]
  400228:	2207      	movs	r2, #7
  40022a:	819a      	strh	r2, [r3, #12]
  40022c:	2001      	movs	r0, #1
  40022e:	4770      	bx	lr
  400230:	2000      	movs	r0, #0
  400232:	4770      	bx	lr
  400234:	20000e4c 	.word	0x20000e4c
  400238:	20000bd8 	.word	0x20000bd8
  40023c:	00400241 	.word	0x00400241

00400240 <udi_cdc_line_coding_received>:
  400240:	4770      	bx	lr
	...

00400244 <udi_cdc_tx_send>:
  400244:	4b44      	ldr	r3, [pc, #272]	; (400358 <udi_cdc_tx_send+0x114>)
  400246:	781b      	ldrb	r3, [r3, #0]
  400248:	b103      	cbz	r3, 40024c <udi_cdc_tx_send+0x8>
  40024a:	4770      	bx	lr
  40024c:	b570      	push	{r4, r5, r6, lr}
  40024e:	b084      	sub	sp, #16
  400250:	4b42      	ldr	r3, [pc, #264]	; (40035c <udi_cdc_tx_send+0x118>)
  400252:	4798      	blx	r3
  400254:	2800      	cmp	r0, #0
  400256:	d041      	beq.n	4002dc <udi_cdc_tx_send+0x98>
  400258:	4b41      	ldr	r3, [pc, #260]	; (400360 <udi_cdc_tx_send+0x11c>)
  40025a:	881c      	ldrh	r4, [r3, #0]
  40025c:	4b41      	ldr	r3, [pc, #260]	; (400364 <udi_cdc_tx_send+0x120>)
  40025e:	4798      	blx	r3
  400260:	4284      	cmp	r4, r0
  400262:	d076      	beq.n	400352 <udi_cdc_tx_send+0x10e>
  400264:	f3ef 8310 	mrs	r3, PRIMASK
  400268:	fab3 f383 	clz	r3, r3
  40026c:	095b      	lsrs	r3, r3, #5
  40026e:	9303      	str	r3, [sp, #12]
  400270:	b672      	cpsid	i
  400272:	f3bf 8f5f 	dmb	sy
  400276:	2200      	movs	r2, #0
  400278:	4b3b      	ldr	r3, [pc, #236]	; (400368 <udi_cdc_tx_send+0x124>)
  40027a:	701a      	strb	r2, [r3, #0]
  40027c:	9d03      	ldr	r5, [sp, #12]
  40027e:	4b3b      	ldr	r3, [pc, #236]	; (40036c <udi_cdc_tx_send+0x128>)
  400280:	781c      	ldrb	r4, [r3, #0]
  400282:	b2e4      	uxtb	r4, r4
  400284:	4b3a      	ldr	r3, [pc, #232]	; (400370 <udi_cdc_tx_send+0x12c>)
  400286:	f833 3014 	ldrh.w	r3, [r3, r4, lsl #1]
  40028a:	2b00      	cmp	r3, #0
  40028c:	d02d      	beq.n	4002ea <udi_cdc_tx_send+0xa6>
  40028e:	2200      	movs	r2, #0
  400290:	4b38      	ldr	r3, [pc, #224]	; (400374 <udi_cdc_tx_send+0x130>)
  400292:	801a      	strh	r2, [r3, #0]
  400294:	4b38      	ldr	r3, [pc, #224]	; (400378 <udi_cdc_tx_send+0x134>)
  400296:	781b      	ldrb	r3, [r3, #0]
  400298:	2b00      	cmp	r3, #0
  40029a:	d142      	bne.n	400322 <udi_cdc_tx_send+0xde>
  40029c:	fab4 f384 	clz	r3, r4
  4002a0:	095b      	lsrs	r3, r3, #5
  4002a2:	4a32      	ldr	r2, [pc, #200]	; (40036c <udi_cdc_tx_send+0x128>)
  4002a4:	7013      	strb	r3, [r2, #0]
  4002a6:	2201      	movs	r2, #1
  4002a8:	4b2b      	ldr	r3, [pc, #172]	; (400358 <udi_cdc_tx_send+0x114>)
  4002aa:	701a      	strb	r2, [r3, #0]
  4002ac:	b125      	cbz	r5, 4002b8 <udi_cdc_tx_send+0x74>
  4002ae:	4b2e      	ldr	r3, [pc, #184]	; (400368 <udi_cdc_tx_send+0x124>)
  4002b0:	701a      	strb	r2, [r3, #0]
  4002b2:	f3bf 8f5f 	dmb	sy
  4002b6:	b662      	cpsie	i
  4002b8:	4626      	mov	r6, r4
  4002ba:	4b2d      	ldr	r3, [pc, #180]	; (400370 <udi_cdc_tx_send+0x12c>)
  4002bc:	f833 3014 	ldrh.w	r3, [r3, r4, lsl #1]
  4002c0:	2b40      	cmp	r3, #64	; 0x40
  4002c2:	bf14      	ite	ne
  4002c4:	2501      	movne	r5, #1
  4002c6:	2500      	moveq	r5, #0
  4002c8:	d034      	beq.n	400334 <udi_cdc_tx_send+0xf0>
  4002ca:	4b24      	ldr	r3, [pc, #144]	; (40035c <udi_cdc_tx_send+0x118>)
  4002cc:	4798      	blx	r3
  4002ce:	2800      	cmp	r0, #0
  4002d0:	d02b      	beq.n	40032a <udi_cdc_tx_send+0xe6>
  4002d2:	4b24      	ldr	r3, [pc, #144]	; (400364 <udi_cdc_tx_send+0x120>)
  4002d4:	4798      	blx	r3
  4002d6:	4b22      	ldr	r3, [pc, #136]	; (400360 <udi_cdc_tx_send+0x11c>)
  4002d8:	8018      	strh	r0, [r3, #0]
  4002da:	e02e      	b.n	40033a <udi_cdc_tx_send+0xf6>
  4002dc:	4b20      	ldr	r3, [pc, #128]	; (400360 <udi_cdc_tx_send+0x11c>)
  4002de:	881c      	ldrh	r4, [r3, #0]
  4002e0:	4b26      	ldr	r3, [pc, #152]	; (40037c <udi_cdc_tx_send+0x138>)
  4002e2:	4798      	blx	r3
  4002e4:	4284      	cmp	r4, r0
  4002e6:	d1bd      	bne.n	400264 <udi_cdc_tx_send+0x20>
  4002e8:	e033      	b.n	400352 <udi_cdc_tx_send+0x10e>
  4002ea:	4a22      	ldr	r2, [pc, #136]	; (400374 <udi_cdc_tx_send+0x130>)
  4002ec:	8813      	ldrh	r3, [r2, #0]
  4002ee:	3301      	adds	r3, #1
  4002f0:	8013      	strh	r3, [r2, #0]
  4002f2:	4b1a      	ldr	r3, [pc, #104]	; (40035c <udi_cdc_tx_send+0x118>)
  4002f4:	4798      	blx	r3
  4002f6:	b918      	cbnz	r0, 400300 <udi_cdc_tx_send+0xbc>
  4002f8:	4b1e      	ldr	r3, [pc, #120]	; (400374 <udi_cdc_tx_send+0x130>)
  4002fa:	881b      	ldrh	r3, [r3, #0]
  4002fc:	2b63      	cmp	r3, #99	; 0x63
  4002fe:	d908      	bls.n	400312 <udi_cdc_tx_send+0xce>
  400300:	4b16      	ldr	r3, [pc, #88]	; (40035c <udi_cdc_tx_send+0x118>)
  400302:	4798      	blx	r3
  400304:	2800      	cmp	r0, #0
  400306:	d0c2      	beq.n	40028e <udi_cdc_tx_send+0x4a>
  400308:	4b1a      	ldr	r3, [pc, #104]	; (400374 <udi_cdc_tx_send+0x130>)
  40030a:	881b      	ldrh	r3, [r3, #0]
  40030c:	f5b3 7f48 	cmp.w	r3, #800	; 0x320
  400310:	d2bd      	bcs.n	40028e <udi_cdc_tx_send+0x4a>
  400312:	b1f5      	cbz	r5, 400352 <udi_cdc_tx_send+0x10e>
  400314:	2201      	movs	r2, #1
  400316:	4b14      	ldr	r3, [pc, #80]	; (400368 <udi_cdc_tx_send+0x124>)
  400318:	701a      	strb	r2, [r3, #0]
  40031a:	f3bf 8f5f 	dmb	sy
  40031e:	b662      	cpsie	i
  400320:	e017      	b.n	400352 <udi_cdc_tx_send+0x10e>
  400322:	fab4 f484 	clz	r4, r4
  400326:	0964      	lsrs	r4, r4, #5
  400328:	e7bd      	b.n	4002a6 <udi_cdc_tx_send+0x62>
  40032a:	4b14      	ldr	r3, [pc, #80]	; (40037c <udi_cdc_tx_send+0x138>)
  40032c:	4798      	blx	r3
  40032e:	4b0c      	ldr	r3, [pc, #48]	; (400360 <udi_cdc_tx_send+0x11c>)
  400330:	8018      	strh	r0, [r3, #0]
  400332:	e002      	b.n	40033a <udi_cdc_tx_send+0xf6>
  400334:	2200      	movs	r2, #0
  400336:	4b0a      	ldr	r3, [pc, #40]	; (400360 <udi_cdc_tx_send+0x11c>)
  400338:	801a      	strh	r2, [r3, #0]
  40033a:	4b0d      	ldr	r3, [pc, #52]	; (400370 <udi_cdc_tx_send+0x12c>)
  40033c:	f833 3016 	ldrh.w	r3, [r3, r6, lsl #1]
  400340:	4a0f      	ldr	r2, [pc, #60]	; (400380 <udi_cdc_tx_send+0x13c>)
  400342:	9200      	str	r2, [sp, #0]
  400344:	4a0f      	ldr	r2, [pc, #60]	; (400384 <udi_cdc_tx_send+0x140>)
  400346:	eb02 1284 	add.w	r2, r2, r4, lsl #6
  40034a:	4629      	mov	r1, r5
  40034c:	2081      	movs	r0, #129	; 0x81
  40034e:	4c0e      	ldr	r4, [pc, #56]	; (400388 <udi_cdc_tx_send+0x144>)
  400350:	47a0      	blx	r4
  400352:	b004      	add	sp, #16
  400354:	bd70      	pop	{r4, r5, r6, pc}
  400356:	bf00      	nop
  400358:	20000d08 	.word	0x20000d08
  40035c:	00401f9d 	.word	0x00401f9d
  400360:	20000d04 	.word	0x20000d04
  400364:	00402009 	.word	0x00402009
  400368:	20000200 	.word	0x20000200
  40036c:	20000d00 	.word	0x20000d00
  400370:	20000cfc 	.word	0x20000cfc
  400374:	20000bd4 	.word	0x20000bd4
  400378:	20000c78 	.word	0x20000c78
  40037c:	00401ff9 	.word	0x00401ff9
  400380:	0040038d 	.word	0x0040038d
  400384:	20000c7c 	.word	0x20000c7c
  400388:	00402361 	.word	0x00402361

0040038c <udi_cdc_data_sent>:
  40038c:	b100      	cbz	r0, 400390 <udi_cdc_data_sent+0x4>
  40038e:	4770      	bx	lr
  400390:	b508      	push	{r3, lr}
  400392:	4b07      	ldr	r3, [pc, #28]	; (4003b0 <udi_cdc_data_sent+0x24>)
  400394:	781b      	ldrb	r3, [r3, #0]
  400396:	fab3 f383 	clz	r3, r3
  40039a:	095b      	lsrs	r3, r3, #5
  40039c:	4a05      	ldr	r2, [pc, #20]	; (4003b4 <udi_cdc_data_sent+0x28>)
  40039e:	f822 0013 	strh.w	r0, [r2, r3, lsl #1]
  4003a2:	4b05      	ldr	r3, [pc, #20]	; (4003b8 <udi_cdc_data_sent+0x2c>)
  4003a4:	7018      	strb	r0, [r3, #0]
  4003a6:	4b05      	ldr	r3, [pc, #20]	; (4003bc <udi_cdc_data_sent+0x30>)
  4003a8:	7018      	strb	r0, [r3, #0]
  4003aa:	4b05      	ldr	r3, [pc, #20]	; (4003c0 <udi_cdc_data_sent+0x34>)
  4003ac:	4798      	blx	r3
  4003ae:	bd08      	pop	{r3, pc}
  4003b0:	20000d00 	.word	0x20000d00
  4003b4:	20000cfc 	.word	0x20000cfc
  4003b8:	20000c78 	.word	0x20000c78
  4003bc:	20000d08 	.word	0x20000d08
  4003c0:	00400245 	.word	0x00400245

004003c4 <udi_cdc_data_sof_notify>:
  4003c4:	b508      	push	{r3, lr}
  4003c6:	2000      	movs	r0, #0
  4003c8:	4b01      	ldr	r3, [pc, #4]	; (4003d0 <udi_cdc_data_sof_notify+0xc>)
  4003ca:	4798      	blx	r3
  4003cc:	bd08      	pop	{r3, pc}
  4003ce:	bf00      	nop
  4003d0:	00400245 	.word	0x00400245

004003d4 <udi_cdc_multi_get_nb_received_data>:
  4003d4:	b082      	sub	sp, #8
  4003d6:	f3ef 8310 	mrs	r3, PRIMASK
  4003da:	fab3 f383 	clz	r3, r3
  4003de:	095b      	lsrs	r3, r3, #5
  4003e0:	9301      	str	r3, [sp, #4]
  4003e2:	b672      	cpsid	i
  4003e4:	f3bf 8f5f 	dmb	sy
  4003e8:	2200      	movs	r2, #0
  4003ea:	4b0b      	ldr	r3, [pc, #44]	; (400418 <udi_cdc_multi_get_nb_received_data+0x44>)
  4003ec:	701a      	strb	r2, [r3, #0]
  4003ee:	9901      	ldr	r1, [sp, #4]
  4003f0:	4b0a      	ldr	r3, [pc, #40]	; (40041c <udi_cdc_multi_get_nb_received_data+0x48>)
  4003f2:	8818      	ldrh	r0, [r3, #0]
  4003f4:	b283      	uxth	r3, r0
  4003f6:	4a0a      	ldr	r2, [pc, #40]	; (400420 <udi_cdc_multi_get_nb_received_data+0x4c>)
  4003f8:	7812      	ldrb	r2, [r2, #0]
  4003fa:	b2d2      	uxtb	r2, r2
  4003fc:	4809      	ldr	r0, [pc, #36]	; (400424 <udi_cdc_multi_get_nb_received_data+0x50>)
  4003fe:	f830 0012 	ldrh.w	r0, [r0, r2, lsl #1]
  400402:	b280      	uxth	r0, r0
  400404:	1ac0      	subs	r0, r0, r3
  400406:	b129      	cbz	r1, 400414 <udi_cdc_multi_get_nb_received_data+0x40>
  400408:	2201      	movs	r2, #1
  40040a:	4b03      	ldr	r3, [pc, #12]	; (400418 <udi_cdc_multi_get_nb_received_data+0x44>)
  40040c:	701a      	strb	r2, [r3, #0]
  40040e:	f3bf 8f5f 	dmb	sy
  400412:	b662      	cpsie	i
  400414:	b002      	add	sp, #8
  400416:	4770      	bx	lr
  400418:	20000200 	.word	0x20000200
  40041c:	20000c6c 	.word	0x20000c6c
  400420:	20000c68 	.word	0x20000c68
  400424:	20000c64 	.word	0x20000c64

00400428 <udi_cdc_get_nb_received_data>:
  400428:	b508      	push	{r3, lr}
  40042a:	2000      	movs	r0, #0
  40042c:	4b01      	ldr	r3, [pc, #4]	; (400434 <udi_cdc_get_nb_received_data+0xc>)
  40042e:	4798      	blx	r3
  400430:	bd08      	pop	{r3, pc}
  400432:	bf00      	nop
  400434:	004003d5 	.word	0x004003d5

00400438 <udi_cdc_multi_is_rx_ready>:
  400438:	b508      	push	{r3, lr}
  40043a:	4b03      	ldr	r3, [pc, #12]	; (400448 <udi_cdc_multi_is_rx_ready+0x10>)
  40043c:	4798      	blx	r3
  40043e:	3000      	adds	r0, #0
  400440:	bf18      	it	ne
  400442:	2001      	movne	r0, #1
  400444:	bd08      	pop	{r3, pc}
  400446:	bf00      	nop
  400448:	004003d5 	.word	0x004003d5

0040044c <udi_cdc_rx_start>:
  40044c:	b510      	push	{r4, lr}
  40044e:	b084      	sub	sp, #16
  400450:	f3ef 8310 	mrs	r3, PRIMASK
  400454:	fab3 f383 	clz	r3, r3
  400458:	095b      	lsrs	r3, r3, #5
  40045a:	9303      	str	r3, [sp, #12]
  40045c:	b672      	cpsid	i
  40045e:	f3bf 8f5f 	dmb	sy
  400462:	2200      	movs	r2, #0
  400464:	4b1e      	ldr	r3, [pc, #120]	; (4004e0 <udi_cdc_rx_start+0x94>)
  400466:	701a      	strb	r2, [r3, #0]
  400468:	9b03      	ldr	r3, [sp, #12]
  40046a:	4a1e      	ldr	r2, [pc, #120]	; (4004e4 <udi_cdc_rx_start+0x98>)
  40046c:	7814      	ldrb	r4, [r2, #0]
  40046e:	4a1e      	ldr	r2, [pc, #120]	; (4004e8 <udi_cdc_rx_start+0x9c>)
  400470:	7812      	ldrb	r2, [r2, #0]
  400472:	b94a      	cbnz	r2, 400488 <udi_cdc_rx_start+0x3c>
  400474:	b2e4      	uxtb	r4, r4
  400476:	4a1d      	ldr	r2, [pc, #116]	; (4004ec <udi_cdc_rx_start+0xa0>)
  400478:	8811      	ldrh	r1, [r2, #0]
  40047a:	b289      	uxth	r1, r1
  40047c:	4a1c      	ldr	r2, [pc, #112]	; (4004f0 <udi_cdc_rx_start+0xa4>)
  40047e:	f832 2014 	ldrh.w	r2, [r2, r4, lsl #1]
  400482:	b292      	uxth	r2, r2
  400484:	4291      	cmp	r1, r2
  400486:	d209      	bcs.n	40049c <udi_cdc_rx_start+0x50>
  400488:	b33b      	cbz	r3, 4004da <udi_cdc_rx_start+0x8e>
  40048a:	2201      	movs	r2, #1
  40048c:	4b14      	ldr	r3, [pc, #80]	; (4004e0 <udi_cdc_rx_start+0x94>)
  40048e:	701a      	strb	r2, [r3, #0]
  400490:	f3bf 8f5f 	dmb	sy
  400494:	b662      	cpsie	i
  400496:	2000      	movs	r0, #0
  400498:	b004      	add	sp, #16
  40049a:	bd10      	pop	{r4, pc}
  40049c:	2100      	movs	r1, #0
  40049e:	4a13      	ldr	r2, [pc, #76]	; (4004ec <udi_cdc_rx_start+0xa0>)
  4004a0:	8011      	strh	r1, [r2, #0]
  4004a2:	fab4 f284 	clz	r2, r4
  4004a6:	0952      	lsrs	r2, r2, #5
  4004a8:	490e      	ldr	r1, [pc, #56]	; (4004e4 <udi_cdc_rx_start+0x98>)
  4004aa:	700a      	strb	r2, [r1, #0]
  4004ac:	2101      	movs	r1, #1
  4004ae:	4a0e      	ldr	r2, [pc, #56]	; (4004e8 <udi_cdc_rx_start+0x9c>)
  4004b0:	7011      	strb	r1, [r2, #0]
  4004b2:	b123      	cbz	r3, 4004be <udi_cdc_rx_start+0x72>
  4004b4:	4b0a      	ldr	r3, [pc, #40]	; (4004e0 <udi_cdc_rx_start+0x94>)
  4004b6:	7019      	strb	r1, [r3, #0]
  4004b8:	f3bf 8f5f 	dmb	sy
  4004bc:	b662      	cpsie	i
  4004be:	2000      	movs	r0, #0
  4004c0:	4b0c      	ldr	r3, [pc, #48]	; (4004f4 <udi_cdc_rx_start+0xa8>)
  4004c2:	4798      	blx	r3
  4004c4:	4b0c      	ldr	r3, [pc, #48]	; (4004f8 <udi_cdc_rx_start+0xac>)
  4004c6:	9300      	str	r3, [sp, #0]
  4004c8:	2340      	movs	r3, #64	; 0x40
  4004ca:	4a0c      	ldr	r2, [pc, #48]	; (4004fc <udi_cdc_rx_start+0xb0>)
  4004cc:	eb02 1284 	add.w	r2, r2, r4, lsl #6
  4004d0:	2101      	movs	r1, #1
  4004d2:	2002      	movs	r0, #2
  4004d4:	4c0a      	ldr	r4, [pc, #40]	; (400500 <udi_cdc_rx_start+0xb4>)
  4004d6:	47a0      	blx	r4
  4004d8:	e7de      	b.n	400498 <udi_cdc_rx_start+0x4c>
  4004da:	2000      	movs	r0, #0
  4004dc:	e7dc      	b.n	400498 <udi_cdc_rx_start+0x4c>
  4004de:	bf00      	nop
  4004e0:	20000200 	.word	0x20000200
  4004e4:	20000c68 	.word	0x20000c68
  4004e8:	20000c70 	.word	0x20000c70
  4004ec:	20000c6c 	.word	0x20000c6c
  4004f0:	20000c64 	.word	0x20000c64
  4004f4:	00400439 	.word	0x00400439
  4004f8:	00400599 	.word	0x00400599
  4004fc:	20000be4 	.word	0x20000be4
  400500:	00402361 	.word	0x00402361

00400504 <udi_cdc_data_enable>:
  400504:	b510      	push	{r4, lr}
  400506:	2400      	movs	r4, #0
  400508:	4b16      	ldr	r3, [pc, #88]	; (400564 <udi_cdc_data_enable+0x60>)
  40050a:	701c      	strb	r4, [r3, #0]
  40050c:	4b16      	ldr	r3, [pc, #88]	; (400568 <udi_cdc_data_enable+0x64>)
  40050e:	701c      	strb	r4, [r3, #0]
  400510:	4b16      	ldr	r3, [pc, #88]	; (40056c <udi_cdc_data_enable+0x68>)
  400512:	701c      	strb	r4, [r3, #0]
  400514:	4b16      	ldr	r3, [pc, #88]	; (400570 <udi_cdc_data_enable+0x6c>)
  400516:	701c      	strb	r4, [r3, #0]
  400518:	4b16      	ldr	r3, [pc, #88]	; (400574 <udi_cdc_data_enable+0x70>)
  40051a:	801c      	strh	r4, [r3, #0]
  40051c:	805c      	strh	r4, [r3, #2]
  40051e:	4b16      	ldr	r3, [pc, #88]	; (400578 <udi_cdc_data_enable+0x74>)
  400520:	801c      	strh	r4, [r3, #0]
  400522:	4620      	mov	r0, r4
  400524:	4b15      	ldr	r3, [pc, #84]	; (40057c <udi_cdc_data_enable+0x78>)
  400526:	4798      	blx	r3
  400528:	4b15      	ldr	r3, [pc, #84]	; (400580 <udi_cdc_data_enable+0x7c>)
  40052a:	701c      	strb	r4, [r3, #0]
  40052c:	4b15      	ldr	r3, [pc, #84]	; (400584 <udi_cdc_data_enable+0x80>)
  40052e:	701c      	strb	r4, [r3, #0]
  400530:	4b15      	ldr	r3, [pc, #84]	; (400588 <udi_cdc_data_enable+0x84>)
  400532:	801c      	strh	r4, [r3, #0]
  400534:	805c      	strh	r4, [r3, #2]
  400536:	4b15      	ldr	r3, [pc, #84]	; (40058c <udi_cdc_data_enable+0x88>)
  400538:	801c      	strh	r4, [r3, #0]
  40053a:	4620      	mov	r0, r4
  40053c:	4b14      	ldr	r3, [pc, #80]	; (400590 <udi_cdc_data_enable+0x8c>)
  40053e:	4798      	blx	r3
  400540:	4601      	mov	r1, r0
  400542:	b140      	cbz	r0, 400556 <udi_cdc_data_enable+0x52>
  400544:	4a07      	ldr	r2, [pc, #28]	; (400564 <udi_cdc_data_enable+0x60>)
  400546:	7813      	ldrb	r3, [r2, #0]
  400548:	3301      	adds	r3, #1
  40054a:	b2db      	uxtb	r3, r3
  40054c:	7013      	strb	r3, [r2, #0]
  40054e:	7813      	ldrb	r3, [r2, #0]
  400550:	b2db      	uxtb	r3, r3
  400552:	2b01      	cmp	r3, #1
  400554:	d001      	beq.n	40055a <udi_cdc_data_enable+0x56>
  400556:	4608      	mov	r0, r1
  400558:	bd10      	pop	{r4, pc}
  40055a:	2201      	movs	r2, #1
  40055c:	4b0d      	ldr	r3, [pc, #52]	; (400594 <udi_cdc_data_enable+0x90>)
  40055e:	701a      	strb	r2, [r3, #0]
  400560:	e7f9      	b.n	400556 <udi_cdc_data_enable+0x52>
  400562:	bf00      	nop
  400564:	20000be0 	.word	0x20000be0
  400568:	20000d08 	.word	0x20000d08
  40056c:	20000c78 	.word	0x20000c78
  400570:	20000d00 	.word	0x20000d00
  400574:	20000cfc 	.word	0x20000cfc
  400578:	20000d04 	.word	0x20000d04
  40057c:	00400245 	.word	0x00400245
  400580:	20000c70 	.word	0x20000c70
  400584:	20000c68 	.word	0x20000c68
  400588:	20000c64 	.word	0x20000c64
  40058c:	20000c6c 	.word	0x20000c6c
  400590:	0040044d 	.word	0x0040044d
  400594:	20000bd6 	.word	0x20000bd6

00400598 <udi_cdc_data_received>:
  400598:	b9e8      	cbnz	r0, 4005d6 <udi_cdc_data_received+0x3e>
  40059a:	b510      	push	{r4, lr}
  40059c:	b082      	sub	sp, #8
  40059e:	4610      	mov	r0, r2
  4005a0:	4b0d      	ldr	r3, [pc, #52]	; (4005d8 <udi_cdc_data_received+0x40>)
  4005a2:	781c      	ldrb	r4, [r3, #0]
  4005a4:	fab4 f484 	clz	r4, r4
  4005a8:	0964      	lsrs	r4, r4, #5
  4005aa:	b151      	cbz	r1, 4005c2 <udi_cdc_data_received+0x2a>
  4005ac:	b289      	uxth	r1, r1
  4005ae:	4b0b      	ldr	r3, [pc, #44]	; (4005dc <udi_cdc_data_received+0x44>)
  4005b0:	f823 1014 	strh.w	r1, [r3, r4, lsl #1]
  4005b4:	2000      	movs	r0, #0
  4005b6:	4b0a      	ldr	r3, [pc, #40]	; (4005e0 <udi_cdc_data_received+0x48>)
  4005b8:	7018      	strb	r0, [r3, #0]
  4005ba:	4b0a      	ldr	r3, [pc, #40]	; (4005e4 <udi_cdc_data_received+0x4c>)
  4005bc:	4798      	blx	r3
  4005be:	b002      	add	sp, #8
  4005c0:	bd10      	pop	{r4, pc}
  4005c2:	4b09      	ldr	r3, [pc, #36]	; (4005e8 <udi_cdc_data_received+0x50>)
  4005c4:	9300      	str	r3, [sp, #0]
  4005c6:	2340      	movs	r3, #64	; 0x40
  4005c8:	4a08      	ldr	r2, [pc, #32]	; (4005ec <udi_cdc_data_received+0x54>)
  4005ca:	eb02 1284 	add.w	r2, r2, r4, lsl #6
  4005ce:	2101      	movs	r1, #1
  4005d0:	4c07      	ldr	r4, [pc, #28]	; (4005f0 <udi_cdc_data_received+0x58>)
  4005d2:	47a0      	blx	r4
  4005d4:	e7f3      	b.n	4005be <udi_cdc_data_received+0x26>
  4005d6:	4770      	bx	lr
  4005d8:	20000c68 	.word	0x20000c68
  4005dc:	20000c64 	.word	0x20000c64
  4005e0:	20000c70 	.word	0x20000c70
  4005e4:	0040044d 	.word	0x0040044d
  4005e8:	00400599 	.word	0x00400599
  4005ec:	20000be4 	.word	0x20000be4
  4005f0:	00402361 	.word	0x00402361

004005f4 <udi_cdc_multi_getc>:
  4005f4:	e92d 47f0 	stmdb	sp!, {r4, r5, r6, r7, r8, r9, sl, lr}
  4005f8:	b082      	sub	sp, #8
  4005fa:	4b25      	ldr	r3, [pc, #148]	; (400690 <udi_cdc_multi_getc+0x9c>)
  4005fc:	f893 8006 	ldrb.w	r8, [r3, #6]
  400600:	f1b8 0f09 	cmp.w	r8, #9
  400604:	bf14      	ite	ne
  400606:	f04f 0800 	movne.w	r8, #0
  40060a:	f04f 0801 	moveq.w	r8, #1
  40060e:	f04f 0a00 	mov.w	sl, #0
  400612:	4c20      	ldr	r4, [pc, #128]	; (400694 <udi_cdc_multi_getc+0xa0>)
  400614:	46d1      	mov	r9, sl
  400616:	4657      	mov	r7, sl
  400618:	4d1f      	ldr	r5, [pc, #124]	; (400698 <udi_cdc_multi_getc+0xa4>)
  40061a:	4e20      	ldr	r6, [pc, #128]	; (40069c <udi_cdc_multi_getc+0xa8>)
  40061c:	e004      	b.n	400628 <udi_cdc_multi_getc+0x34>
  40061e:	428b      	cmp	r3, r1
  400620:	d323      	bcc.n	40066a <udi_cdc_multi_getc+0x76>
  400622:	4b1f      	ldr	r3, [pc, #124]	; (4006a0 <udi_cdc_multi_getc+0xac>)
  400624:	781b      	ldrb	r3, [r3, #0]
  400626:	b1d3      	cbz	r3, 40065e <udi_cdc_multi_getc+0x6a>
  400628:	f3ef 8310 	mrs	r3, PRIMASK
  40062c:	fab3 f383 	clz	r3, r3
  400630:	095b      	lsrs	r3, r3, #5
  400632:	9301      	str	r3, [sp, #4]
  400634:	b672      	cpsid	i
  400636:	f3bf 8f5f 	dmb	sy
  40063a:	7027      	strb	r7, [r4, #0]
  40063c:	9801      	ldr	r0, [sp, #4]
  40063e:	882b      	ldrh	r3, [r5, #0]
  400640:	b29b      	uxth	r3, r3
  400642:	7832      	ldrb	r2, [r6, #0]
  400644:	b2d2      	uxtb	r2, r2
  400646:	4917      	ldr	r1, [pc, #92]	; (4006a4 <udi_cdc_multi_getc+0xb0>)
  400648:	f831 1012 	ldrh.w	r1, [r1, r2, lsl #1]
  40064c:	b289      	uxth	r1, r1
  40064e:	2800      	cmp	r0, #0
  400650:	d0e5      	beq.n	40061e <udi_cdc_multi_getc+0x2a>
  400652:	2001      	movs	r0, #1
  400654:	7020      	strb	r0, [r4, #0]
  400656:	f3bf 8f5f 	dmb	sy
  40065a:	b662      	cpsie	i
  40065c:	e7df      	b.n	40061e <udi_cdc_multi_getc+0x2a>
  40065e:	f04f 0a00 	mov.w	sl, #0
  400662:	4650      	mov	r0, sl
  400664:	b002      	add	sp, #8
  400666:	e8bd 87f0 	ldmia.w	sp!, {r4, r5, r6, r7, r8, r9, sl, pc}
  40066a:	490f      	ldr	r1, [pc, #60]	; (4006a8 <udi_cdc_multi_getc+0xb4>)
  40066c:	eb01 1282 	add.w	r2, r1, r2, lsl #6
  400670:	5cd2      	ldrb	r2, [r2, r3]
  400672:	ea42 0a0a 	orr.w	sl, r2, sl
  400676:	3301      	adds	r3, #1
  400678:	b29b      	uxth	r3, r3
  40067a:	802b      	strh	r3, [r5, #0]
  40067c:	4648      	mov	r0, r9
  40067e:	4b0b      	ldr	r3, [pc, #44]	; (4006ac <udi_cdc_multi_getc+0xb8>)
  400680:	4798      	blx	r3
  400682:	f1b8 0f00 	cmp.w	r8, #0
  400686:	d0ec      	beq.n	400662 <udi_cdc_multi_getc+0x6e>
  400688:	ea4f 2a0a 	mov.w	sl, sl, lsl #8
  40068c:	46c8      	mov	r8, r9
  40068e:	e7cb      	b.n	400628 <udi_cdc_multi_getc+0x34>
  400690:	20000bd8 	.word	0x20000bd8
  400694:	20000200 	.word	0x20000200
  400698:	20000c6c 	.word	0x20000c6c
  40069c:	20000c68 	.word	0x20000c68
  4006a0:	20000bd6 	.word	0x20000bd6
  4006a4:	20000c64 	.word	0x20000c64
  4006a8:	20000be4 	.word	0x20000be4
  4006ac:	0040044d 	.word	0x0040044d

004006b0 <udi_cdc_getc>:
  4006b0:	b508      	push	{r3, lr}
  4006b2:	2000      	movs	r0, #0
  4006b4:	4b01      	ldr	r3, [pc, #4]	; (4006bc <udi_cdc_getc+0xc>)
  4006b6:	4798      	blx	r3
  4006b8:	bd08      	pop	{r3, pc}
  4006ba:	bf00      	nop
  4006bc:	004005f5 	.word	0x004005f5

004006c0 <udi_cdc_multi_get_free_tx_buffer>:
  4006c0:	b082      	sub	sp, #8
  4006c2:	f3ef 8310 	mrs	r3, PRIMASK
  4006c6:	fab3 f383 	clz	r3, r3
  4006ca:	095b      	lsrs	r3, r3, #5
  4006cc:	9301      	str	r3, [sp, #4]
  4006ce:	b672      	cpsid	i
  4006d0:	f3bf 8f5f 	dmb	sy
  4006d4:	2200      	movs	r2, #0
  4006d6:	4b14      	ldr	r3, [pc, #80]	; (400728 <udi_cdc_multi_get_free_tx_buffer+0x68>)
  4006d8:	701a      	strb	r2, [r3, #0]
  4006da:	9a01      	ldr	r2, [sp, #4]
  4006dc:	4b13      	ldr	r3, [pc, #76]	; (40072c <udi_cdc_multi_get_free_tx_buffer+0x6c>)
  4006de:	781b      	ldrb	r3, [r3, #0]
  4006e0:	b2db      	uxtb	r3, r3
  4006e2:	4913      	ldr	r1, [pc, #76]	; (400730 <udi_cdc_multi_get_free_tx_buffer+0x70>)
  4006e4:	f831 0013 	ldrh.w	r0, [r1, r3, lsl #1]
  4006e8:	2840      	cmp	r0, #64	; 0x40
  4006ea:	d00a      	beq.n	400702 <udi_cdc_multi_get_free_tx_buffer+0x42>
  4006ec:	f1c0 0040 	rsb	r0, r0, #64	; 0x40
  4006f0:	b12a      	cbz	r2, 4006fe <udi_cdc_multi_get_free_tx_buffer+0x3e>
  4006f2:	2201      	movs	r2, #1
  4006f4:	4b0c      	ldr	r3, [pc, #48]	; (400728 <udi_cdc_multi_get_free_tx_buffer+0x68>)
  4006f6:	701a      	strb	r2, [r3, #0]
  4006f8:	f3bf 8f5f 	dmb	sy
  4006fc:	b662      	cpsie	i
  4006fe:	b002      	add	sp, #8
  400700:	4770      	bx	lr
  400702:	490c      	ldr	r1, [pc, #48]	; (400734 <udi_cdc_multi_get_free_tx_buffer+0x74>)
  400704:	7809      	ldrb	r1, [r1, #0]
  400706:	2900      	cmp	r1, #0
  400708:	d1f0      	bne.n	4006ec <udi_cdc_multi_get_free_tx_buffer+0x2c>
  40070a:	490b      	ldr	r1, [pc, #44]	; (400738 <udi_cdc_multi_get_free_tx_buffer+0x78>)
  40070c:	7809      	ldrb	r1, [r1, #0]
  40070e:	2900      	cmp	r1, #0
  400710:	d1ec      	bne.n	4006ec <udi_cdc_multi_get_free_tx_buffer+0x2c>
  400712:	2001      	movs	r0, #1
  400714:	4908      	ldr	r1, [pc, #32]	; (400738 <udi_cdc_multi_get_free_tx_buffer+0x78>)
  400716:	7008      	strb	r0, [r1, #0]
  400718:	fab3 f383 	clz	r3, r3
  40071c:	095b      	lsrs	r3, r3, #5
  40071e:	4903      	ldr	r1, [pc, #12]	; (40072c <udi_cdc_multi_get_free_tx_buffer+0x6c>)
  400720:	700b      	strb	r3, [r1, #0]
  400722:	2000      	movs	r0, #0
  400724:	e7e2      	b.n	4006ec <udi_cdc_multi_get_free_tx_buffer+0x2c>
  400726:	bf00      	nop
  400728:	20000200 	.word	0x20000200
  40072c:	20000d00 	.word	0x20000d00
  400730:	20000cfc 	.word	0x20000cfc
  400734:	20000d08 	.word	0x20000d08
  400738:	20000c78 	.word	0x20000c78

0040073c <udi_cdc_multi_is_tx_ready>:
  40073c:	b508      	push	{r3, lr}
  40073e:	4b03      	ldr	r3, [pc, #12]	; (40074c <udi_cdc_multi_is_tx_ready+0x10>)
  400740:	4798      	blx	r3
  400742:	3000      	adds	r0, #0
  400744:	bf18      	it	ne
  400746:	2001      	movne	r0, #1
  400748:	bd08      	pop	{r3, pc}
  40074a:	bf00      	nop
  40074c:	004006c1 	.word	0x004006c1

00400750 <udi_cdc_multi_write_buf>:
  400750:	e92d 4ff0 	stmdb	sp!, {r4, r5, r6, r7, r8, r9, sl, fp, lr}
  400754:	b083      	sub	sp, #12
  400756:	4617      	mov	r7, r2
  400758:	4b22      	ldr	r3, [pc, #136]	; (4007e4 <udi_cdc_multi_write_buf+0x94>)
  40075a:	799b      	ldrb	r3, [r3, #6]
  40075c:	2b09      	cmp	r3, #9
  40075e:	bf08      	it	eq
  400760:	0057      	lsleq	r7, r2, #1
  400762:	4688      	mov	r8, r1
  400764:	f8df a094 	ldr.w	sl, [pc, #148]	; 4007fc <udi_cdc_multi_write_buf+0xac>
  400768:	e030      	b.n	4007cc <udi_cdc_multi_write_buf+0x7c>
  40076a:	f3ef 8310 	mrs	r3, PRIMASK
  40076e:	fab3 f383 	clz	r3, r3
  400772:	095b      	lsrs	r3, r3, #5
  400774:	9301      	str	r3, [sp, #4]
  400776:	b672      	cpsid	i
  400778:	f3bf 8f5f 	dmb	sy
  40077c:	2300      	movs	r3, #0
  40077e:	4a1a      	ldr	r2, [pc, #104]	; (4007e8 <udi_cdc_multi_write_buf+0x98>)
  400780:	7013      	strb	r3, [r2, #0]
  400782:	f8dd b004 	ldr.w	fp, [sp, #4]
  400786:	4b19      	ldr	r3, [pc, #100]	; (4007ec <udi_cdc_multi_write_buf+0x9c>)
  400788:	781d      	ldrb	r5, [r3, #0]
  40078a:	b2ed      	uxtb	r5, r5
  40078c:	f8df 9070 	ldr.w	r9, [pc, #112]	; 400800 <udi_cdc_multi_write_buf+0xb0>
  400790:	f839 6015 	ldrh.w	r6, [r9, r5, lsl #1]
  400794:	f1c6 0440 	rsb	r4, r6, #64	; 0x40
  400798:	42bc      	cmp	r4, r7
  40079a:	bf28      	it	cs
  40079c:	463c      	movcs	r4, r7
  40079e:	eb06 1385 	add.w	r3, r6, r5, lsl #6
  4007a2:	4622      	mov	r2, r4
  4007a4:	4641      	mov	r1, r8
  4007a6:	4812      	ldr	r0, [pc, #72]	; (4007f0 <udi_cdc_multi_write_buf+0xa0>)
  4007a8:	4418      	add	r0, r3
  4007aa:	4b12      	ldr	r3, [pc, #72]	; (4007f4 <udi_cdc_multi_write_buf+0xa4>)
  4007ac:	4798      	blx	r3
  4007ae:	4426      	add	r6, r4
  4007b0:	f829 6015 	strh.w	r6, [r9, r5, lsl #1]
  4007b4:	f1bb 0f00 	cmp.w	fp, #0
  4007b8:	d005      	beq.n	4007c6 <udi_cdc_multi_write_buf+0x76>
  4007ba:	2301      	movs	r3, #1
  4007bc:	4a0a      	ldr	r2, [pc, #40]	; (4007e8 <udi_cdc_multi_write_buf+0x98>)
  4007be:	7013      	strb	r3, [r2, #0]
  4007c0:	f3bf 8f5f 	dmb	sy
  4007c4:	b662      	cpsie	i
  4007c6:	44a0      	add	r8, r4
  4007c8:	1b3f      	subs	r7, r7, r4
  4007ca:	d007      	beq.n	4007dc <udi_cdc_multi_write_buf+0x8c>
  4007cc:	2000      	movs	r0, #0
  4007ce:	47d0      	blx	sl
  4007d0:	2800      	cmp	r0, #0
  4007d2:	d1ca      	bne.n	40076a <udi_cdc_multi_write_buf+0x1a>
  4007d4:	4b08      	ldr	r3, [pc, #32]	; (4007f8 <udi_cdc_multi_write_buf+0xa8>)
  4007d6:	781b      	ldrb	r3, [r3, #0]
  4007d8:	2b00      	cmp	r3, #0
  4007da:	d1f7      	bne.n	4007cc <udi_cdc_multi_write_buf+0x7c>
  4007dc:	4638      	mov	r0, r7
  4007de:	b003      	add	sp, #12
  4007e0:	e8bd 8ff0 	ldmia.w	sp!, {r4, r5, r6, r7, r8, r9, sl, fp, pc}
  4007e4:	20000bd8 	.word	0x20000bd8
  4007e8:	20000200 	.word	0x20000200
  4007ec:	20000d00 	.word	0x20000d00
  4007f0:	20000c7c 	.word	0x20000c7c
  4007f4:	00403655 	.word	0x00403655
  4007f8:	20000bd6 	.word	0x20000bd6
  4007fc:	0040073d 	.word	0x0040073d
  400800:	20000cfc 	.word	0x20000cfc

00400804 <udi_cdc_write_buf>:
  400804:	b508      	push	{r3, lr}
  400806:	460a      	mov	r2, r1
  400808:	4601      	mov	r1, r0
  40080a:	2000      	movs	r0, #0
  40080c:	4b01      	ldr	r3, [pc, #4]	; (400814 <udi_cdc_write_buf+0x10>)
  40080e:	4798      	blx	r3
  400810:	bd08      	pop	{r3, pc}
  400812:	bf00      	nop
  400814:	00400751 	.word	0x00400751

00400818 <udc_next_desc_in_iface>:
  400818:	4b10      	ldr	r3, [pc, #64]	; (40085c <udc_next_desc_in_iface+0x44>)
  40081a:	681b      	ldr	r3, [r3, #0]
  40081c:	681a      	ldr	r2, [r3, #0]
  40081e:	8853      	ldrh	r3, [r2, #2]
  400820:	441a      	add	r2, r3
  400822:	7803      	ldrb	r3, [r0, #0]
  400824:	4418      	add	r0, r3
  400826:	4290      	cmp	r0, r2
  400828:	d211      	bcs.n	40084e <udc_next_desc_in_iface+0x36>
  40082a:	7843      	ldrb	r3, [r0, #1]
  40082c:	2b04      	cmp	r3, #4
  40082e:	d010      	beq.n	400852 <udc_next_desc_in_iface+0x3a>
  400830:	428b      	cmp	r3, r1
  400832:	d009      	beq.n	400848 <udc_next_desc_in_iface+0x30>
  400834:	7803      	ldrb	r3, [r0, #0]
  400836:	4418      	add	r0, r3
  400838:	4290      	cmp	r0, r2
  40083a:	d206      	bcs.n	40084a <udc_next_desc_in_iface+0x32>
  40083c:	7843      	ldrb	r3, [r0, #1]
  40083e:	2b04      	cmp	r3, #4
  400840:	d009      	beq.n	400856 <udc_next_desc_in_iface+0x3e>
  400842:	428b      	cmp	r3, r1
  400844:	d1f6      	bne.n	400834 <udc_next_desc_in_iface+0x1c>
  400846:	e007      	b.n	400858 <udc_next_desc_in_iface+0x40>
  400848:	4770      	bx	lr
  40084a:	2000      	movs	r0, #0
  40084c:	4770      	bx	lr
  40084e:	2000      	movs	r0, #0
  400850:	4770      	bx	lr
  400852:	2000      	movs	r0, #0
  400854:	4770      	bx	lr
  400856:	2000      	movs	r0, #0
  400858:	4770      	bx	lr
  40085a:	bf00      	nop
  40085c:	20000d24 	.word	0x20000d24

00400860 <udc_valid_address>:
  400860:	b508      	push	{r3, lr}
  400862:	4b03      	ldr	r3, [pc, #12]	; (400870 <udc_valid_address+0x10>)
  400864:	7898      	ldrb	r0, [r3, #2]
  400866:	f000 007f 	and.w	r0, r0, #127	; 0x7f
  40086a:	4b02      	ldr	r3, [pc, #8]	; (400874 <udc_valid_address+0x14>)
  40086c:	4798      	blx	r3
  40086e:	bd08      	pop	{r3, pc}
  400870:	20000e4c 	.word	0x20000e4c
  400874:	00401fa1 	.word	0x00401fa1

00400878 <udc_update_iface_desc>:
  400878:	4b19      	ldr	r3, [pc, #100]	; (4008e0 <udc_update_iface_desc+0x68>)
  40087a:	781b      	ldrb	r3, [r3, #0]
  40087c:	b34b      	cbz	r3, 4008d2 <udc_update_iface_desc+0x5a>
  40087e:	4b19      	ldr	r3, [pc, #100]	; (4008e4 <udc_update_iface_desc+0x6c>)
  400880:	681b      	ldr	r3, [r3, #0]
  400882:	681b      	ldr	r3, [r3, #0]
  400884:	791a      	ldrb	r2, [r3, #4]
  400886:	4282      	cmp	r2, r0
  400888:	d925      	bls.n	4008d6 <udc_update_iface_desc+0x5e>
  40088a:	b470      	push	{r4, r5, r6}
  40088c:	4a16      	ldr	r2, [pc, #88]	; (4008e8 <udc_update_iface_desc+0x70>)
  40088e:	6013      	str	r3, [r2, #0]
  400890:	885c      	ldrh	r4, [r3, #2]
  400892:	441c      	add	r4, r3
  400894:	42a3      	cmp	r3, r4
  400896:	d220      	bcs.n	4008da <udc_update_iface_desc+0x62>
  400898:	2500      	movs	r5, #0
  40089a:	2601      	movs	r6, #1
  40089c:	e007      	b.n	4008ae <udc_update_iface_desc+0x36>
  40089e:	4a12      	ldr	r2, [pc, #72]	; (4008e8 <udc_update_iface_desc+0x70>)
  4008a0:	6013      	str	r3, [r2, #0]
  4008a2:	e00f      	b.n	4008c4 <udc_update_iface_desc+0x4c>
  4008a4:	781a      	ldrb	r2, [r3, #0]
  4008a6:	4413      	add	r3, r2
  4008a8:	4635      	mov	r5, r6
  4008aa:	42a3      	cmp	r3, r4
  4008ac:	d20c      	bcs.n	4008c8 <udc_update_iface_desc+0x50>
  4008ae:	785a      	ldrb	r2, [r3, #1]
  4008b0:	2a04      	cmp	r2, #4
  4008b2:	d1f7      	bne.n	4008a4 <udc_update_iface_desc+0x2c>
  4008b4:	789a      	ldrb	r2, [r3, #2]
  4008b6:	4282      	cmp	r2, r0
  4008b8:	d1f4      	bne.n	4008a4 <udc_update_iface_desc+0x2c>
  4008ba:	78da      	ldrb	r2, [r3, #3]
  4008bc:	428a      	cmp	r2, r1
  4008be:	d1f1      	bne.n	4008a4 <udc_update_iface_desc+0x2c>
  4008c0:	2d00      	cmp	r5, #0
  4008c2:	d1ec      	bne.n	40089e <udc_update_iface_desc+0x26>
  4008c4:	2001      	movs	r0, #1
  4008c6:	e002      	b.n	4008ce <udc_update_iface_desc+0x56>
  4008c8:	4a07      	ldr	r2, [pc, #28]	; (4008e8 <udc_update_iface_desc+0x70>)
  4008ca:	6013      	str	r3, [r2, #0]
  4008cc:	2000      	movs	r0, #0
  4008ce:	bc70      	pop	{r4, r5, r6}
  4008d0:	4770      	bx	lr
  4008d2:	2000      	movs	r0, #0
  4008d4:	4770      	bx	lr
  4008d6:	2000      	movs	r0, #0
  4008d8:	4770      	bx	lr
  4008da:	2000      	movs	r0, #0
  4008dc:	e7f7      	b.n	4008ce <udc_update_iface_desc+0x56>
  4008de:	bf00      	nop
  4008e0:	20000d20 	.word	0x20000d20
  4008e4:	20000d24 	.word	0x20000d24
  4008e8:	20000d28 	.word	0x20000d28

004008ec <udc_iface_disable>:
  4008ec:	e92d 43f8 	stmdb	sp!, {r3, r4, r5, r6, r7, r8, r9, lr}
  4008f0:	4604      	mov	r4, r0
  4008f2:	2100      	movs	r1, #0
  4008f4:	4b13      	ldr	r3, [pc, #76]	; (400944 <udc_iface_disable+0x58>)
  4008f6:	4798      	blx	r3
  4008f8:	4680      	mov	r8, r0
  4008fa:	b910      	cbnz	r0, 400902 <udc_iface_disable+0x16>
  4008fc:	4640      	mov	r0, r8
  4008fe:	e8bd 83f8 	ldmia.w	sp!, {r3, r4, r5, r6, r7, r8, r9, pc}
  400902:	4b11      	ldr	r3, [pc, #68]	; (400948 <udc_iface_disable+0x5c>)
  400904:	681b      	ldr	r3, [r3, #0]
  400906:	685b      	ldr	r3, [r3, #4]
  400908:	f853 9024 	ldr.w	r9, [r3, r4, lsl #2]
  40090c:	f8d9 300c 	ldr.w	r3, [r9, #12]
  400910:	4798      	blx	r3
  400912:	4601      	mov	r1, r0
  400914:	4620      	mov	r0, r4
  400916:	4b0b      	ldr	r3, [pc, #44]	; (400944 <udc_iface_disable+0x58>)
  400918:	4798      	blx	r3
  40091a:	4680      	mov	r8, r0
  40091c:	2800      	cmp	r0, #0
  40091e:	d0ed      	beq.n	4008fc <udc_iface_disable+0x10>
  400920:	4b0a      	ldr	r3, [pc, #40]	; (40094c <udc_iface_disable+0x60>)
  400922:	681c      	ldr	r4, [r3, #0]
  400924:	2605      	movs	r6, #5
  400926:	4d0a      	ldr	r5, [pc, #40]	; (400950 <udc_iface_disable+0x64>)
  400928:	4f0a      	ldr	r7, [pc, #40]	; (400954 <udc_iface_disable+0x68>)
  40092a:	4631      	mov	r1, r6
  40092c:	4620      	mov	r0, r4
  40092e:	47a8      	blx	r5
  400930:	4604      	mov	r4, r0
  400932:	b110      	cbz	r0, 40093a <udc_iface_disable+0x4e>
  400934:	7880      	ldrb	r0, [r0, #2]
  400936:	47b8      	blx	r7
  400938:	e7f7      	b.n	40092a <udc_iface_disable+0x3e>
  40093a:	f8d9 3004 	ldr.w	r3, [r9, #4]
  40093e:	4798      	blx	r3
  400940:	e7dc      	b.n	4008fc <udc_iface_disable+0x10>
  400942:	bf00      	nop
  400944:	00400879 	.word	0x00400879
  400948:	20000d24 	.word	0x20000d24
  40094c:	20000d28 	.word	0x20000d28
  400950:	00400819 	.word	0x00400819
  400954:	00402111 	.word	0x00402111

00400958 <udc_iface_enable>:
  400958:	e92d 41f0 	stmdb	sp!, {r4, r5, r6, r7, r8, lr}
  40095c:	4680      	mov	r8, r0
  40095e:	4b10      	ldr	r3, [pc, #64]	; (4009a0 <udc_iface_enable+0x48>)
  400960:	4798      	blx	r3
  400962:	4603      	mov	r3, r0
  400964:	b1c8      	cbz	r0, 40099a <udc_iface_enable+0x42>
  400966:	4b0f      	ldr	r3, [pc, #60]	; (4009a4 <udc_iface_enable+0x4c>)
  400968:	681c      	ldr	r4, [r3, #0]
  40096a:	2605      	movs	r6, #5
  40096c:	4d0e      	ldr	r5, [pc, #56]	; (4009a8 <udc_iface_enable+0x50>)
  40096e:	4f0f      	ldr	r7, [pc, #60]	; (4009ac <udc_iface_enable+0x54>)
  400970:	4631      	mov	r1, r6
  400972:	4620      	mov	r0, r4
  400974:	47a8      	blx	r5
  400976:	4604      	mov	r4, r0
  400978:	b138      	cbz	r0, 40098a <udc_iface_enable+0x32>
  40097a:	8882      	ldrh	r2, [r0, #4]
  40097c:	78c1      	ldrb	r1, [r0, #3]
  40097e:	7880      	ldrb	r0, [r0, #2]
  400980:	47b8      	blx	r7
  400982:	4603      	mov	r3, r0
  400984:	2800      	cmp	r0, #0
  400986:	d1f3      	bne.n	400970 <udc_iface_enable+0x18>
  400988:	e007      	b.n	40099a <udc_iface_enable+0x42>
  40098a:	4b09      	ldr	r3, [pc, #36]	; (4009b0 <udc_iface_enable+0x58>)
  40098c:	681b      	ldr	r3, [r3, #0]
  40098e:	685b      	ldr	r3, [r3, #4]
  400990:	f853 3028 	ldr.w	r3, [r3, r8, lsl #2]
  400994:	681b      	ldr	r3, [r3, #0]
  400996:	4798      	blx	r3
  400998:	4603      	mov	r3, r0
  40099a:	4618      	mov	r0, r3
  40099c:	e8bd 81f0 	ldmia.w	sp!, {r4, r5, r6, r7, r8, pc}
  4009a0:	00400879 	.word	0x00400879
  4009a4:	20000d28 	.word	0x20000d28
  4009a8:	00400819 	.word	0x00400819
  4009ac:	00402019 	.word	0x00402019
  4009b0:	20000d24 	.word	0x20000d24

004009b4 <udc_start>:
  4009b4:	b508      	push	{r3, lr}
  4009b6:	4b01      	ldr	r3, [pc, #4]	; (4009bc <udc_start+0x8>)
  4009b8:	4798      	blx	r3
  4009ba:	bd08      	pop	{r3, pc}
  4009bc:	00401ec1 	.word	0x00401ec1

004009c0 <udc_reset>:
  4009c0:	b570      	push	{r4, r5, r6, lr}
  4009c2:	4b0d      	ldr	r3, [pc, #52]	; (4009f8 <udc_reset+0x38>)
  4009c4:	781b      	ldrb	r3, [r3, #0]
  4009c6:	b183      	cbz	r3, 4009ea <udc_reset+0x2a>
  4009c8:	4b0c      	ldr	r3, [pc, #48]	; (4009fc <udc_reset+0x3c>)
  4009ca:	681b      	ldr	r3, [r3, #0]
  4009cc:	681b      	ldr	r3, [r3, #0]
  4009ce:	791b      	ldrb	r3, [r3, #4]
  4009d0:	b15b      	cbz	r3, 4009ea <udc_reset+0x2a>
  4009d2:	2400      	movs	r4, #0
  4009d4:	4e0a      	ldr	r6, [pc, #40]	; (400a00 <udc_reset+0x40>)
  4009d6:	4d09      	ldr	r5, [pc, #36]	; (4009fc <udc_reset+0x3c>)
  4009d8:	4620      	mov	r0, r4
  4009da:	47b0      	blx	r6
  4009dc:	3401      	adds	r4, #1
  4009de:	b2e4      	uxtb	r4, r4
  4009e0:	682b      	ldr	r3, [r5, #0]
  4009e2:	681b      	ldr	r3, [r3, #0]
  4009e4:	791b      	ldrb	r3, [r3, #4]
  4009e6:	42a3      	cmp	r3, r4
  4009e8:	d8f6      	bhi.n	4009d8 <udc_reset+0x18>
  4009ea:	2200      	movs	r2, #0
  4009ec:	4b02      	ldr	r3, [pc, #8]	; (4009f8 <udc_reset+0x38>)
  4009ee:	701a      	strb	r2, [r3, #0]
  4009f0:	2201      	movs	r2, #1
  4009f2:	4b04      	ldr	r3, [pc, #16]	; (400a04 <udc_reset+0x44>)
  4009f4:	801a      	strh	r2, [r3, #0]
  4009f6:	bd70      	pop	{r4, r5, r6, pc}
  4009f8:	20000d20 	.word	0x20000d20
  4009fc:	20000d24 	.word	0x20000d24
  400a00:	004008ed 	.word	0x004008ed
  400a04:	20000d16 	.word	0x20000d16

00400a08 <udc_sof_notify>:
  400a08:	b538      	push	{r3, r4, r5, lr}
  400a0a:	4b0d      	ldr	r3, [pc, #52]	; (400a40 <udc_sof_notify+0x38>)
  400a0c:	781b      	ldrb	r3, [r3, #0]
  400a0e:	b1b3      	cbz	r3, 400a3e <udc_sof_notify+0x36>
  400a10:	4b0c      	ldr	r3, [pc, #48]	; (400a44 <udc_sof_notify+0x3c>)
  400a12:	681b      	ldr	r3, [r3, #0]
  400a14:	681a      	ldr	r2, [r3, #0]
  400a16:	7912      	ldrb	r2, [r2, #4]
  400a18:	b18a      	cbz	r2, 400a3e <udc_sof_notify+0x36>
  400a1a:	2400      	movs	r4, #0
  400a1c:	4d09      	ldr	r5, [pc, #36]	; (400a44 <udc_sof_notify+0x3c>)
  400a1e:	e006      	b.n	400a2e <udc_sof_notify+0x26>
  400a20:	3401      	adds	r4, #1
  400a22:	b2e4      	uxtb	r4, r4
  400a24:	682b      	ldr	r3, [r5, #0]
  400a26:	681a      	ldr	r2, [r3, #0]
  400a28:	7912      	ldrb	r2, [r2, #4]
  400a2a:	42a2      	cmp	r2, r4
  400a2c:	d907      	bls.n	400a3e <udc_sof_notify+0x36>
  400a2e:	685b      	ldr	r3, [r3, #4]
  400a30:	f853 3024 	ldr.w	r3, [r3, r4, lsl #2]
  400a34:	691b      	ldr	r3, [r3, #16]
  400a36:	2b00      	cmp	r3, #0
  400a38:	d0f2      	beq.n	400a20 <udc_sof_notify+0x18>
  400a3a:	4798      	blx	r3
  400a3c:	e7f0      	b.n	400a20 <udc_sof_notify+0x18>
  400a3e:	bd38      	pop	{r3, r4, r5, pc}
  400a40:	20000d20 	.word	0x20000d20
  400a44:	20000d24 	.word	0x20000d24

00400a48 <udc_process_setup>:
  400a48:	b5f8      	push	{r3, r4, r5, r6, r7, lr}
  400a4a:	4b96      	ldr	r3, [pc, #600]	; (400ca4 <udc_process_setup+0x25c>)
  400a4c:	2200      	movs	r2, #0
  400a4e:	819a      	strh	r2, [r3, #12]
  400a50:	611a      	str	r2, [r3, #16]
  400a52:	615a      	str	r2, [r3, #20]
  400a54:	781b      	ldrb	r3, [r3, #0]
  400a56:	f013 0f80 	tst.w	r3, #128	; 0x80
  400a5a:	d114      	bne.n	400a86 <udc_process_setup+0x3e>
  400a5c:	f013 0f60 	tst.w	r3, #96	; 0x60
  400a60:	f000 80b8 	beq.w	400bd4 <udc_process_setup+0x18c>
  400a64:	4b8f      	ldr	r3, [pc, #572]	; (400ca4 <udc_process_setup+0x25c>)
  400a66:	781b      	ldrb	r3, [r3, #0]
  400a68:	f003 031f 	and.w	r3, r3, #31
  400a6c:	2b01      	cmp	r3, #1
  400a6e:	f000 818b 	beq.w	400d88 <udc_process_setup+0x340>
  400a72:	4b8c      	ldr	r3, [pc, #560]	; (400ca4 <udc_process_setup+0x25c>)
  400a74:	781b      	ldrb	r3, [r3, #0]
  400a76:	f003 031f 	and.w	r3, r3, #31
  400a7a:	2b02      	cmp	r3, #2
  400a7c:	f000 81ac 	beq.w	400dd8 <udc_process_setup+0x390>
  400a80:	2300      	movs	r3, #0
  400a82:	4618      	mov	r0, r3
  400a84:	bdf8      	pop	{r3, r4, r5, r6, r7, pc}
  400a86:	4a87      	ldr	r2, [pc, #540]	; (400ca4 <udc_process_setup+0x25c>)
  400a88:	88d2      	ldrh	r2, [r2, #6]
  400a8a:	2a00      	cmp	r2, #0
  400a8c:	f000 81cd 	beq.w	400e2a <udc_process_setup+0x3e2>
  400a90:	f013 0f60 	tst.w	r3, #96	; 0x60
  400a94:	d1e6      	bne.n	400a64 <udc_process_setup+0x1c>
  400a96:	f013 031f 	ands.w	r3, r3, #31
  400a9a:	d106      	bne.n	400aaa <udc_process_setup+0x62>
  400a9c:	4981      	ldr	r1, [pc, #516]	; (400ca4 <udc_process_setup+0x25c>)
  400a9e:	7849      	ldrb	r1, [r1, #1]
  400aa0:	2906      	cmp	r1, #6
  400aa2:	d013      	beq.n	400acc <udc_process_setup+0x84>
  400aa4:	2908      	cmp	r1, #8
  400aa6:	d058      	beq.n	400b5a <udc_process_setup+0x112>
  400aa8:	b149      	cbz	r1, 400abe <udc_process_setup+0x76>
  400aaa:	2b01      	cmp	r3, #1
  400aac:	d05c      	beq.n	400b68 <udc_process_setup+0x120>
  400aae:	2b02      	cmp	r3, #2
  400ab0:	d1d8      	bne.n	400a64 <udc_process_setup+0x1c>
  400ab2:	4b7c      	ldr	r3, [pc, #496]	; (400ca4 <udc_process_setup+0x25c>)
  400ab4:	785b      	ldrb	r3, [r3, #1]
  400ab6:	2b00      	cmp	r3, #0
  400ab8:	d07e      	beq.n	400bb8 <udc_process_setup+0x170>
  400aba:	2300      	movs	r3, #0
  400abc:	e160      	b.n	400d80 <udc_process_setup+0x338>
  400abe:	2a02      	cmp	r2, #2
  400ac0:	d1d0      	bne.n	400a64 <udc_process_setup+0x1c>
  400ac2:	2102      	movs	r1, #2
  400ac4:	4878      	ldr	r0, [pc, #480]	; (400ca8 <udc_process_setup+0x260>)
  400ac6:	4b79      	ldr	r3, [pc, #484]	; (400cac <udc_process_setup+0x264>)
  400ac8:	4798      	blx	r3
  400aca:	e09f      	b.n	400c0c <udc_process_setup+0x1c4>
  400acc:	4b75      	ldr	r3, [pc, #468]	; (400ca4 <udc_process_setup+0x25c>)
  400ace:	885a      	ldrh	r2, [r3, #2]
  400ad0:	0a13      	lsrs	r3, r2, #8
  400ad2:	3b01      	subs	r3, #1
  400ad4:	2b0e      	cmp	r3, #14
  400ad6:	f200 8150 	bhi.w	400d7a <udc_process_setup+0x332>
  400ada:	e8df f013 	tbh	[pc, r3, lsl #1]
  400ade:	000f      	.short	0x000f
  400ae0:	0036001c 	.word	0x0036001c
  400ae4:	014e014e 	.word	0x014e014e
  400ae8:	014e014e 	.word	0x014e014e
  400aec:	014e014e 	.word	0x014e014e
  400af0:	014e014e 	.word	0x014e014e
  400af4:	014e014e 	.word	0x014e014e
  400af8:	002e014e 	.word	0x002e014e
  400afc:	4b6c      	ldr	r3, [pc, #432]	; (400cb0 <udc_process_setup+0x268>)
  400afe:	6818      	ldr	r0, [r3, #0]
  400b00:	7801      	ldrb	r1, [r0, #0]
  400b02:	4b6a      	ldr	r3, [pc, #424]	; (400cac <udc_process_setup+0x264>)
  400b04:	4798      	blx	r3
  400b06:	4b67      	ldr	r3, [pc, #412]	; (400ca4 <udc_process_setup+0x25c>)
  400b08:	88da      	ldrh	r2, [r3, #6]
  400b0a:	899b      	ldrh	r3, [r3, #12]
  400b0c:	4293      	cmp	r3, r2
  400b0e:	d97d      	bls.n	400c0c <udc_process_setup+0x1c4>
  400b10:	4b64      	ldr	r3, [pc, #400]	; (400ca4 <udc_process_setup+0x25c>)
  400b12:	819a      	strh	r2, [r3, #12]
  400b14:	e07a      	b.n	400c0c <udc_process_setup+0x1c4>
  400b16:	b2d2      	uxtb	r2, r2
  400b18:	4b65      	ldr	r3, [pc, #404]	; (400cb0 <udc_process_setup+0x268>)
  400b1a:	681b      	ldr	r3, [r3, #0]
  400b1c:	7c5b      	ldrb	r3, [r3, #17]
  400b1e:	4293      	cmp	r3, r2
  400b20:	d9a0      	bls.n	400a64 <udc_process_setup+0x1c>
  400b22:	4b63      	ldr	r3, [pc, #396]	; (400cb0 <udc_process_setup+0x268>)
  400b24:	685b      	ldr	r3, [r3, #4]
  400b26:	f853 0032 	ldr.w	r0, [r3, r2, lsl #3]
  400b2a:	8841      	ldrh	r1, [r0, #2]
  400b2c:	4b5f      	ldr	r3, [pc, #380]	; (400cac <udc_process_setup+0x264>)
  400b2e:	4798      	blx	r3
  400b30:	4b5c      	ldr	r3, [pc, #368]	; (400ca4 <udc_process_setup+0x25c>)
  400b32:	689b      	ldr	r3, [r3, #8]
  400b34:	2202      	movs	r2, #2
  400b36:	705a      	strb	r2, [r3, #1]
  400b38:	e7e5      	b.n	400b06 <udc_process_setup+0xbe>
  400b3a:	4b5d      	ldr	r3, [pc, #372]	; (400cb0 <udc_process_setup+0x268>)
  400b3c:	6898      	ldr	r0, [r3, #8]
  400b3e:	2800      	cmp	r0, #0
  400b40:	d090      	beq.n	400a64 <udc_process_setup+0x1c>
  400b42:	8841      	ldrh	r1, [r0, #2]
  400b44:	4b59      	ldr	r3, [pc, #356]	; (400cac <udc_process_setup+0x264>)
  400b46:	4798      	blx	r3
  400b48:	e7dd      	b.n	400b06 <udc_process_setup+0xbe>
  400b4a:	f012 0fff 	tst.w	r2, #255	; 0xff
  400b4e:	d189      	bne.n	400a64 <udc_process_setup+0x1c>
  400b50:	2104      	movs	r1, #4
  400b52:	4858      	ldr	r0, [pc, #352]	; (400cb4 <udc_process_setup+0x26c>)
  400b54:	4b55      	ldr	r3, [pc, #340]	; (400cac <udc_process_setup+0x264>)
  400b56:	4798      	blx	r3
  400b58:	e7d5      	b.n	400b06 <udc_process_setup+0xbe>
  400b5a:	2a01      	cmp	r2, #1
  400b5c:	d182      	bne.n	400a64 <udc_process_setup+0x1c>
  400b5e:	2101      	movs	r1, #1
  400b60:	4855      	ldr	r0, [pc, #340]	; (400cb8 <udc_process_setup+0x270>)
  400b62:	4b52      	ldr	r3, [pc, #328]	; (400cac <udc_process_setup+0x264>)
  400b64:	4798      	blx	r3
  400b66:	e051      	b.n	400c0c <udc_process_setup+0x1c4>
  400b68:	494e      	ldr	r1, [pc, #312]	; (400ca4 <udc_process_setup+0x25c>)
  400b6a:	7849      	ldrb	r1, [r1, #1]
  400b6c:	290a      	cmp	r1, #10
  400b6e:	d19e      	bne.n	400aae <udc_process_setup+0x66>
  400b70:	2a01      	cmp	r2, #1
  400b72:	f47f af77 	bne.w	400a64 <udc_process_setup+0x1c>
  400b76:	4b50      	ldr	r3, [pc, #320]	; (400cb8 <udc_process_setup+0x270>)
  400b78:	781b      	ldrb	r3, [r3, #0]
  400b7a:	2b00      	cmp	r3, #0
  400b7c:	f43f af72 	beq.w	400a64 <udc_process_setup+0x1c>
  400b80:	4b48      	ldr	r3, [pc, #288]	; (400ca4 <udc_process_setup+0x25c>)
  400b82:	791c      	ldrb	r4, [r3, #4]
  400b84:	4b4d      	ldr	r3, [pc, #308]	; (400cbc <udc_process_setup+0x274>)
  400b86:	681d      	ldr	r5, [r3, #0]
  400b88:	682b      	ldr	r3, [r5, #0]
  400b8a:	791b      	ldrb	r3, [r3, #4]
  400b8c:	42a3      	cmp	r3, r4
  400b8e:	f67f af69 	bls.w	400a64 <udc_process_setup+0x1c>
  400b92:	2100      	movs	r1, #0
  400b94:	4620      	mov	r0, r4
  400b96:	4b4a      	ldr	r3, [pc, #296]	; (400cc0 <udc_process_setup+0x278>)
  400b98:	4798      	blx	r3
  400b9a:	2800      	cmp	r0, #0
  400b9c:	f43f af62 	beq.w	400a64 <udc_process_setup+0x1c>
  400ba0:	686b      	ldr	r3, [r5, #4]
  400ba2:	f853 3024 	ldr.w	r3, [r3, r4, lsl #2]
  400ba6:	68db      	ldr	r3, [r3, #12]
  400ba8:	4798      	blx	r3
  400baa:	4b46      	ldr	r3, [pc, #280]	; (400cc4 <udc_process_setup+0x27c>)
  400bac:	7018      	strb	r0, [r3, #0]
  400bae:	2101      	movs	r1, #1
  400bb0:	4618      	mov	r0, r3
  400bb2:	4b3e      	ldr	r3, [pc, #248]	; (400cac <udc_process_setup+0x264>)
  400bb4:	4798      	blx	r3
  400bb6:	e029      	b.n	400c0c <udc_process_setup+0x1c4>
  400bb8:	2a02      	cmp	r2, #2
  400bba:	f47f af53 	bne.w	400a64 <udc_process_setup+0x1c>
  400bbe:	4b39      	ldr	r3, [pc, #228]	; (400ca4 <udc_process_setup+0x25c>)
  400bc0:	7918      	ldrb	r0, [r3, #4]
  400bc2:	4b41      	ldr	r3, [pc, #260]	; (400cc8 <udc_process_setup+0x280>)
  400bc4:	4798      	blx	r3
  400bc6:	4b41      	ldr	r3, [pc, #260]	; (400ccc <udc_process_setup+0x284>)
  400bc8:	8018      	strh	r0, [r3, #0]
  400bca:	2102      	movs	r1, #2
  400bcc:	4618      	mov	r0, r3
  400bce:	4b37      	ldr	r3, [pc, #220]	; (400cac <udc_process_setup+0x264>)
  400bd0:	4798      	blx	r3
  400bd2:	e01b      	b.n	400c0c <udc_process_setup+0x1c4>
  400bd4:	f013 031f 	ands.w	r3, r3, #31
  400bd8:	f040 8082 	bne.w	400ce0 <udc_process_setup+0x298>
  400bdc:	4a31      	ldr	r2, [pc, #196]	; (400ca4 <udc_process_setup+0x25c>)
  400bde:	7852      	ldrb	r2, [r2, #1]
  400be0:	3a01      	subs	r2, #1
  400be2:	2a08      	cmp	r2, #8
  400be4:	d87c      	bhi.n	400ce0 <udc_process_setup+0x298>
  400be6:	e8df f012 	tbh	[pc, r2, lsl #1]
  400bea:	0013      	.short	0x0013
  400bec:	00ca007b 	.word	0x00ca007b
  400bf0:	0009007b 	.word	0x0009007b
  400bf4:	007b007b 	.word	0x007b007b
  400bf8:	0023007b 	.word	0x0023007b
  400bfc:	4b29      	ldr	r3, [pc, #164]	; (400ca4 <udc_process_setup+0x25c>)
  400bfe:	88db      	ldrh	r3, [r3, #6]
  400c00:	2b00      	cmp	r3, #0
  400c02:	f47f af2f 	bne.w	400a64 <udc_process_setup+0x1c>
  400c06:	4a32      	ldr	r2, [pc, #200]	; (400cd0 <udc_process_setup+0x288>)
  400c08:	4b26      	ldr	r3, [pc, #152]	; (400ca4 <udc_process_setup+0x25c>)
  400c0a:	611a      	str	r2, [r3, #16]
  400c0c:	2301      	movs	r3, #1
  400c0e:	e738      	b.n	400a82 <udc_process_setup+0x3a>
  400c10:	4b24      	ldr	r3, [pc, #144]	; (400ca4 <udc_process_setup+0x25c>)
  400c12:	88db      	ldrh	r3, [r3, #6]
  400c14:	2b00      	cmp	r3, #0
  400c16:	f47f af25 	bne.w	400a64 <udc_process_setup+0x1c>
  400c1a:	4b22      	ldr	r3, [pc, #136]	; (400ca4 <udc_process_setup+0x25c>)
  400c1c:	885b      	ldrh	r3, [r3, #2]
  400c1e:	2b01      	cmp	r3, #1
  400c20:	f47f af20 	bne.w	400a64 <udc_process_setup+0x1c>
  400c24:	4a20      	ldr	r2, [pc, #128]	; (400ca8 <udc_process_setup+0x260>)
  400c26:	8813      	ldrh	r3, [r2, #0]
  400c28:	f023 0302 	bic.w	r3, r3, #2
  400c2c:	8013      	strh	r3, [r2, #0]
  400c2e:	e7ed      	b.n	400c0c <udc_process_setup+0x1c4>
  400c30:	4b1c      	ldr	r3, [pc, #112]	; (400ca4 <udc_process_setup+0x25c>)
  400c32:	88db      	ldrh	r3, [r3, #6]
  400c34:	2b00      	cmp	r3, #0
  400c36:	f47f af15 	bne.w	400a64 <udc_process_setup+0x1c>
  400c3a:	4b26      	ldr	r3, [pc, #152]	; (400cd4 <udc_process_setup+0x28c>)
  400c3c:	4798      	blx	r3
  400c3e:	2800      	cmp	r0, #0
  400c40:	f43f af10 	beq.w	400a64 <udc_process_setup+0x1c>
  400c44:	4b17      	ldr	r3, [pc, #92]	; (400ca4 <udc_process_setup+0x25c>)
  400c46:	789a      	ldrb	r2, [r3, #2]
  400c48:	4b19      	ldr	r3, [pc, #100]	; (400cb0 <udc_process_setup+0x268>)
  400c4a:	681b      	ldr	r3, [r3, #0]
  400c4c:	7c5b      	ldrb	r3, [r3, #17]
  400c4e:	429a      	cmp	r2, r3
  400c50:	f73f af08 	bgt.w	400a64 <udc_process_setup+0x1c>
  400c54:	4b20      	ldr	r3, [pc, #128]	; (400cd8 <udc_process_setup+0x290>)
  400c56:	4798      	blx	r3
  400c58:	4b12      	ldr	r3, [pc, #72]	; (400ca4 <udc_process_setup+0x25c>)
  400c5a:	789b      	ldrb	r3, [r3, #2]
  400c5c:	4a16      	ldr	r2, [pc, #88]	; (400cb8 <udc_process_setup+0x270>)
  400c5e:	7013      	strb	r3, [r2, #0]
  400c60:	2b00      	cmp	r3, #0
  400c62:	d0d3      	beq.n	400c0c <udc_process_setup+0x1c4>
  400c64:	f103 5300 	add.w	r3, r3, #536870912	; 0x20000000
  400c68:	3b01      	subs	r3, #1
  400c6a:	4a11      	ldr	r2, [pc, #68]	; (400cb0 <udc_process_setup+0x268>)
  400c6c:	6852      	ldr	r2, [r2, #4]
  400c6e:	eb02 00c3 	add.w	r0, r2, r3, lsl #3
  400c72:	4912      	ldr	r1, [pc, #72]	; (400cbc <udc_process_setup+0x274>)
  400c74:	6008      	str	r0, [r1, #0]
  400c76:	f852 3033 	ldr.w	r3, [r2, r3, lsl #3]
  400c7a:	791b      	ldrb	r3, [r3, #4]
  400c7c:	2b00      	cmp	r3, #0
  400c7e:	d0c5      	beq.n	400c0c <udc_process_setup+0x1c4>
  400c80:	2400      	movs	r4, #0
  400c82:	4626      	mov	r6, r4
  400c84:	4d15      	ldr	r5, [pc, #84]	; (400cdc <udc_process_setup+0x294>)
  400c86:	460f      	mov	r7, r1
  400c88:	4631      	mov	r1, r6
  400c8a:	4620      	mov	r0, r4
  400c8c:	47a8      	blx	r5
  400c8e:	2800      	cmp	r0, #0
  400c90:	f43f aee8 	beq.w	400a64 <udc_process_setup+0x1c>
  400c94:	3401      	adds	r4, #1
  400c96:	b2e4      	uxtb	r4, r4
  400c98:	683b      	ldr	r3, [r7, #0]
  400c9a:	681b      	ldr	r3, [r3, #0]
  400c9c:	791b      	ldrb	r3, [r3, #4]
  400c9e:	42a3      	cmp	r3, r4
  400ca0:	d8f2      	bhi.n	400c88 <udc_process_setup+0x240>
  400ca2:	e7b3      	b.n	400c0c <udc_process_setup+0x1c4>
  400ca4:	20000e4c 	.word	0x20000e4c
  400ca8:	20000d16 	.word	0x20000d16
  400cac:	0040200d 	.word	0x0040200d
  400cb0:	2000018c 	.word	0x2000018c
  400cb4:	2000010c 	.word	0x2000010c
  400cb8:	20000d20 	.word	0x20000d20
  400cbc:	20000d24 	.word	0x20000d24
  400cc0:	00400879 	.word	0x00400879
  400cc4:	20000d1c 	.word	0x20000d1c
  400cc8:	00402169 	.word	0x00402169
  400ccc:	20000d18 	.word	0x20000d18
  400cd0:	00400861 	.word	0x00400861
  400cd4:	00401fdd 	.word	0x00401fdd
  400cd8:	004009c1 	.word	0x004009c1
  400cdc:	00400959 	.word	0x00400959
  400ce0:	2b01      	cmp	r3, #1
  400ce2:	d00a      	beq.n	400cfa <udc_process_setup+0x2b2>
  400ce4:	2b02      	cmp	r3, #2
  400ce6:	f47f aebd 	bne.w	400a64 <udc_process_setup+0x1c>
  400cea:	4b52      	ldr	r3, [pc, #328]	; (400e34 <udc_process_setup+0x3ec>)
  400cec:	785b      	ldrb	r3, [r3, #1]
  400cee:	2b01      	cmp	r3, #1
  400cf0:	d020      	beq.n	400d34 <udc_process_setup+0x2ec>
  400cf2:	2b03      	cmp	r3, #3
  400cf4:	d02e      	beq.n	400d54 <udc_process_setup+0x30c>
  400cf6:	2300      	movs	r3, #0
  400cf8:	e042      	b.n	400d80 <udc_process_setup+0x338>
  400cfa:	4a4e      	ldr	r2, [pc, #312]	; (400e34 <udc_process_setup+0x3ec>)
  400cfc:	7852      	ldrb	r2, [r2, #1]
  400cfe:	2a0b      	cmp	r2, #11
  400d00:	d1f0      	bne.n	400ce4 <udc_process_setup+0x29c>
  400d02:	4b4c      	ldr	r3, [pc, #304]	; (400e34 <udc_process_setup+0x3ec>)
  400d04:	88db      	ldrh	r3, [r3, #6]
  400d06:	2b00      	cmp	r3, #0
  400d08:	f47f aeac 	bne.w	400a64 <udc_process_setup+0x1c>
  400d0c:	4b4a      	ldr	r3, [pc, #296]	; (400e38 <udc_process_setup+0x3f0>)
  400d0e:	781b      	ldrb	r3, [r3, #0]
  400d10:	2b00      	cmp	r3, #0
  400d12:	f43f aea7 	beq.w	400a64 <udc_process_setup+0x1c>
  400d16:	4b47      	ldr	r3, [pc, #284]	; (400e34 <udc_process_setup+0x3ec>)
  400d18:	791c      	ldrb	r4, [r3, #4]
  400d1a:	885d      	ldrh	r5, [r3, #2]
  400d1c:	4620      	mov	r0, r4
  400d1e:	4b47      	ldr	r3, [pc, #284]	; (400e3c <udc_process_setup+0x3f4>)
  400d20:	4798      	blx	r3
  400d22:	2800      	cmp	r0, #0
  400d24:	f43f ae9e 	beq.w	400a64 <udc_process_setup+0x1c>
  400d28:	b2e9      	uxtb	r1, r5
  400d2a:	4620      	mov	r0, r4
  400d2c:	4b44      	ldr	r3, [pc, #272]	; (400e40 <udc_process_setup+0x3f8>)
  400d2e:	4798      	blx	r3
  400d30:	4603      	mov	r3, r0
  400d32:	e025      	b.n	400d80 <udc_process_setup+0x338>
  400d34:	4b3f      	ldr	r3, [pc, #252]	; (400e34 <udc_process_setup+0x3ec>)
  400d36:	88db      	ldrh	r3, [r3, #6]
  400d38:	2b00      	cmp	r3, #0
  400d3a:	f47f ae93 	bne.w	400a64 <udc_process_setup+0x1c>
  400d3e:	4b3d      	ldr	r3, [pc, #244]	; (400e34 <udc_process_setup+0x3ec>)
  400d40:	885b      	ldrh	r3, [r3, #2]
  400d42:	2b00      	cmp	r3, #0
  400d44:	f47f ae8e 	bne.w	400a64 <udc_process_setup+0x1c>
  400d48:	4b3a      	ldr	r3, [pc, #232]	; (400e34 <udc_process_setup+0x3ec>)
  400d4a:	7918      	ldrb	r0, [r3, #4]
  400d4c:	4b3d      	ldr	r3, [pc, #244]	; (400e44 <udc_process_setup+0x3fc>)
  400d4e:	4798      	blx	r3
  400d50:	4603      	mov	r3, r0
  400d52:	e015      	b.n	400d80 <udc_process_setup+0x338>
  400d54:	4b37      	ldr	r3, [pc, #220]	; (400e34 <udc_process_setup+0x3ec>)
  400d56:	88db      	ldrh	r3, [r3, #6]
  400d58:	2b00      	cmp	r3, #0
  400d5a:	f47f ae83 	bne.w	400a64 <udc_process_setup+0x1c>
  400d5e:	4b35      	ldr	r3, [pc, #212]	; (400e34 <udc_process_setup+0x3ec>)
  400d60:	885b      	ldrh	r3, [r3, #2]
  400d62:	2b00      	cmp	r3, #0
  400d64:	f47f ae7e 	bne.w	400a64 <udc_process_setup+0x1c>
  400d68:	4c32      	ldr	r4, [pc, #200]	; (400e34 <udc_process_setup+0x3ec>)
  400d6a:	7920      	ldrb	r0, [r4, #4]
  400d6c:	4b36      	ldr	r3, [pc, #216]	; (400e48 <udc_process_setup+0x400>)
  400d6e:	4798      	blx	r3
  400d70:	7920      	ldrb	r0, [r4, #4]
  400d72:	4b36      	ldr	r3, [pc, #216]	; (400e4c <udc_process_setup+0x404>)
  400d74:	4798      	blx	r3
  400d76:	4603      	mov	r3, r0
  400d78:	e002      	b.n	400d80 <udc_process_setup+0x338>
  400d7a:	2300      	movs	r3, #0
  400d7c:	e000      	b.n	400d80 <udc_process_setup+0x338>
  400d7e:	2300      	movs	r3, #0
  400d80:	2b00      	cmp	r3, #0
  400d82:	f47f ae7e 	bne.w	400a82 <udc_process_setup+0x3a>
  400d86:	e66d      	b.n	400a64 <udc_process_setup+0x1c>
  400d88:	4b2b      	ldr	r3, [pc, #172]	; (400e38 <udc_process_setup+0x3f0>)
  400d8a:	781b      	ldrb	r3, [r3, #0]
  400d8c:	2b00      	cmp	r3, #0
  400d8e:	d04e      	beq.n	400e2e <udc_process_setup+0x3e6>
  400d90:	4b28      	ldr	r3, [pc, #160]	; (400e34 <udc_process_setup+0x3ec>)
  400d92:	791c      	ldrb	r4, [r3, #4]
  400d94:	4b2e      	ldr	r3, [pc, #184]	; (400e50 <udc_process_setup+0x408>)
  400d96:	681d      	ldr	r5, [r3, #0]
  400d98:	682b      	ldr	r3, [r5, #0]
  400d9a:	791b      	ldrb	r3, [r3, #4]
  400d9c:	42a3      	cmp	r3, r4
  400d9e:	d801      	bhi.n	400da4 <udc_process_setup+0x35c>
  400da0:	2300      	movs	r3, #0
  400da2:	e66e      	b.n	400a82 <udc_process_setup+0x3a>
  400da4:	2100      	movs	r1, #0
  400da6:	4620      	mov	r0, r4
  400da8:	4b2a      	ldr	r3, [pc, #168]	; (400e54 <udc_process_setup+0x40c>)
  400daa:	4798      	blx	r3
  400dac:	2800      	cmp	r0, #0
  400dae:	f43f ae60 	beq.w	400a72 <udc_process_setup+0x2a>
  400db2:	686b      	ldr	r3, [r5, #4]
  400db4:	f853 5024 	ldr.w	r5, [r3, r4, lsl #2]
  400db8:	68eb      	ldr	r3, [r5, #12]
  400dba:	4798      	blx	r3
  400dbc:	4601      	mov	r1, r0
  400dbe:	4620      	mov	r0, r4
  400dc0:	4b24      	ldr	r3, [pc, #144]	; (400e54 <udc_process_setup+0x40c>)
  400dc2:	4798      	blx	r3
  400dc4:	2800      	cmp	r0, #0
  400dc6:	f43f ae54 	beq.w	400a72 <udc_process_setup+0x2a>
  400dca:	68ab      	ldr	r3, [r5, #8]
  400dcc:	4798      	blx	r3
  400dce:	4603      	mov	r3, r0
  400dd0:	2800      	cmp	r0, #0
  400dd2:	f47f ae56 	bne.w	400a82 <udc_process_setup+0x3a>
  400dd6:	e64c      	b.n	400a72 <udc_process_setup+0x2a>
  400dd8:	4b17      	ldr	r3, [pc, #92]	; (400e38 <udc_process_setup+0x3f0>)
  400dda:	781b      	ldrb	r3, [r3, #0]
  400ddc:	b30b      	cbz	r3, 400e22 <udc_process_setup+0x3da>
  400dde:	4b1c      	ldr	r3, [pc, #112]	; (400e50 <udc_process_setup+0x408>)
  400de0:	681a      	ldr	r2, [r3, #0]
  400de2:	6813      	ldr	r3, [r2, #0]
  400de4:	791b      	ldrb	r3, [r3, #4]
  400de6:	b1f3      	cbz	r3, 400e26 <udc_process_setup+0x3de>
  400de8:	2400      	movs	r4, #0
  400dea:	4e1a      	ldr	r6, [pc, #104]	; (400e54 <udc_process_setup+0x40c>)
  400dec:	4f18      	ldr	r7, [pc, #96]	; (400e50 <udc_process_setup+0x408>)
  400dee:	6853      	ldr	r3, [r2, #4]
  400df0:	f853 5024 	ldr.w	r5, [r3, r4, lsl #2]
  400df4:	68eb      	ldr	r3, [r5, #12]
  400df6:	4798      	blx	r3
  400df8:	4601      	mov	r1, r0
  400dfa:	4620      	mov	r0, r4
  400dfc:	47b0      	blx	r6
  400dfe:	4603      	mov	r3, r0
  400e00:	2800      	cmp	r0, #0
  400e02:	f43f ae3e 	beq.w	400a82 <udc_process_setup+0x3a>
  400e06:	68ab      	ldr	r3, [r5, #8]
  400e08:	4798      	blx	r3
  400e0a:	4603      	mov	r3, r0
  400e0c:	2800      	cmp	r0, #0
  400e0e:	f47f ae38 	bne.w	400a82 <udc_process_setup+0x3a>
  400e12:	3401      	adds	r4, #1
  400e14:	b2e4      	uxtb	r4, r4
  400e16:	683a      	ldr	r2, [r7, #0]
  400e18:	6811      	ldr	r1, [r2, #0]
  400e1a:	7909      	ldrb	r1, [r1, #4]
  400e1c:	42a1      	cmp	r1, r4
  400e1e:	d8e6      	bhi.n	400dee <udc_process_setup+0x3a6>
  400e20:	e62f      	b.n	400a82 <udc_process_setup+0x3a>
  400e22:	2300      	movs	r3, #0
  400e24:	e62d      	b.n	400a82 <udc_process_setup+0x3a>
  400e26:	2300      	movs	r3, #0
  400e28:	e62b      	b.n	400a82 <udc_process_setup+0x3a>
  400e2a:	2300      	movs	r3, #0
  400e2c:	e629      	b.n	400a82 <udc_process_setup+0x3a>
  400e2e:	2300      	movs	r3, #0
  400e30:	e627      	b.n	400a82 <udc_process_setup+0x3a>
  400e32:	bf00      	nop
  400e34:	20000e4c 	.word	0x20000e4c
  400e38:	20000d20 	.word	0x20000d20
  400e3c:	004008ed 	.word	0x004008ed
  400e40:	00400959 	.word	0x00400959
  400e44:	00402289 	.word	0x00402289
  400e48:	004024dd 	.word	0x004024dd
  400e4c:	004021a9 	.word	0x004021a9
  400e50:	20000d24 	.word	0x20000d24
  400e54:	00400879 	.word	0x00400879

00400e58 <adc_init>:
  400e58:	b430      	push	{r4, r5}
  400e5a:	2401      	movs	r4, #1
  400e5c:	6004      	str	r4, [r0, #0]
  400e5e:	2400      	movs	r4, #0
  400e60:	6044      	str	r4, [r0, #4]
  400e62:	f240 2502 	movw	r5, #514	; 0x202
  400e66:	f8c0 5120 	str.w	r5, [r0, #288]	; 0x120
  400e6a:	f8c0 4104 	str.w	r4, [r0, #260]	; 0x104
  400e6e:	f8c0 4114 	str.w	r4, [r0, #276]	; 0x114
  400e72:	6845      	ldr	r5, [r0, #4]
  400e74:	0052      	lsls	r2, r2, #1
  400e76:	fbb1 f2f2 	udiv	r2, r1, r2
  400e7a:	3a01      	subs	r2, #1
  400e7c:	0212      	lsls	r2, r2, #8
  400e7e:	b292      	uxth	r2, r2
  400e80:	432b      	orrs	r3, r5
  400e82:	431a      	orrs	r2, r3
  400e84:	6042      	str	r2, [r0, #4]
  400e86:	4620      	mov	r0, r4
  400e88:	bc30      	pop	{r4, r5}
  400e8a:	4770      	bx	lr

00400e8c <adc_configure_trigger>:
  400e8c:	6843      	ldr	r3, [r0, #4]
  400e8e:	01d2      	lsls	r2, r2, #7
  400e90:	b2d2      	uxtb	r2, r2
  400e92:	4319      	orrs	r1, r3
  400e94:	430a      	orrs	r2, r1
  400e96:	6042      	str	r2, [r0, #4]
  400e98:	4770      	bx	lr

00400e9a <adc_configure_timing>:
  400e9a:	b410      	push	{r4}
  400e9c:	6844      	ldr	r4, [r0, #4]
  400e9e:	0609      	lsls	r1, r1, #24
  400ea0:	f001 6170 	and.w	r1, r1, #251658240	; 0xf000000
  400ea4:	4321      	orrs	r1, r4
  400ea6:	430a      	orrs	r2, r1
  400ea8:	0719      	lsls	r1, r3, #28
  400eaa:	f001 5140 	and.w	r1, r1, #805306368	; 0x30000000
  400eae:	4311      	orrs	r1, r2
  400eb0:	6041      	str	r1, [r0, #4]
  400eb2:	bc10      	pop	{r4}
  400eb4:	4770      	bx	lr

00400eb6 <adc_start>:
  400eb6:	2302      	movs	r3, #2
  400eb8:	6003      	str	r3, [r0, #0]
  400eba:	4770      	bx	lr

00400ebc <adc_enable_channel>:
  400ebc:	2301      	movs	r3, #1
  400ebe:	fa03 f101 	lsl.w	r1, r3, r1
  400ec2:	6101      	str	r1, [r0, #16]
  400ec4:	4770      	bx	lr

00400ec6 <adc_disable_all_channel>:
  400ec6:	f64f 73ff 	movw	r3, #65535	; 0xffff
  400eca:	6143      	str	r3, [r0, #20]
  400ecc:	4770      	bx	lr

00400ece <adc_enable_interrupt>:
  400ece:	6241      	str	r1, [r0, #36]	; 0x24
  400ed0:	4770      	bx	lr

00400ed2 <adc_get_status>:
  400ed2:	6b00      	ldr	r0, [r0, #48]	; 0x30
  400ed4:	4770      	bx	lr

00400ed6 <adc_set_bias_current>:
  400ed6:	f8d0 3094 	ldr.w	r3, [r0, #148]	; 0x94
  400eda:	0209      	lsls	r1, r1, #8
  400edc:	f401 7140 	and.w	r1, r1, #768	; 0x300
  400ee0:	4319      	orrs	r1, r3
  400ee2:	f8c0 1094 	str.w	r1, [r0, #148]	; 0x94
  400ee6:	4770      	bx	lr

00400ee8 <adc_get_pdc_base>:
  400ee8:	4800      	ldr	r0, [pc, #0]	; (400eec <adc_get_pdc_base+0x4>)
  400eea:	4770      	bx	lr
  400eec:	40038100 	.word	0x40038100

00400ef0 <pio_handler_process>:
  400ef0:	e92d 43f8 	stmdb	sp!, {r3, r4, r5, r6, r7, r8, r9, lr}
  400ef4:	4681      	mov	r9, r0
  400ef6:	460f      	mov	r7, r1
  400ef8:	4b12      	ldr	r3, [pc, #72]	; (400f44 <pio_handler_process+0x54>)
  400efa:	4798      	blx	r3
  400efc:	4605      	mov	r5, r0
  400efe:	4648      	mov	r0, r9
  400f00:	4b11      	ldr	r3, [pc, #68]	; (400f48 <pio_handler_process+0x58>)
  400f02:	4798      	blx	r3
  400f04:	4005      	ands	r5, r0
  400f06:	d013      	beq.n	400f30 <pio_handler_process+0x40>
  400f08:	4c10      	ldr	r4, [pc, #64]	; (400f4c <pio_handler_process+0x5c>)
  400f0a:	f104 0660 	add.w	r6, r4, #96	; 0x60
  400f0e:	e003      	b.n	400f18 <pio_handler_process+0x28>
  400f10:	42b4      	cmp	r4, r6
  400f12:	d00d      	beq.n	400f30 <pio_handler_process+0x40>
  400f14:	3410      	adds	r4, #16
  400f16:	b15d      	cbz	r5, 400f30 <pio_handler_process+0x40>
  400f18:	6820      	ldr	r0, [r4, #0]
  400f1a:	42b8      	cmp	r0, r7
  400f1c:	d1f8      	bne.n	400f10 <pio_handler_process+0x20>
  400f1e:	6861      	ldr	r1, [r4, #4]
  400f20:	4229      	tst	r1, r5
  400f22:	d0f5      	beq.n	400f10 <pio_handler_process+0x20>
  400f24:	68e3      	ldr	r3, [r4, #12]
  400f26:	4798      	blx	r3
  400f28:	6863      	ldr	r3, [r4, #4]
  400f2a:	ea25 0503 	bic.w	r5, r5, r3
  400f2e:	e7ef      	b.n	400f10 <pio_handler_process+0x20>
  400f30:	4b07      	ldr	r3, [pc, #28]	; (400f50 <pio_handler_process+0x60>)
  400f32:	681b      	ldr	r3, [r3, #0]
  400f34:	b123      	cbz	r3, 400f40 <pio_handler_process+0x50>
  400f36:	4b07      	ldr	r3, [pc, #28]	; (400f54 <pio_handler_process+0x64>)
  400f38:	681b      	ldr	r3, [r3, #0]
  400f3a:	b10b      	cbz	r3, 400f40 <pio_handler_process+0x50>
  400f3c:	4648      	mov	r0, r9
  400f3e:	4798      	blx	r3
  400f40:	e8bd 83f8 	ldmia.w	sp!, {r3, r4, r5, r6, r7, r8, r9, pc}
  400f44:	004030d5 	.word	0x004030d5
  400f48:	004030d9 	.word	0x004030d9
  400f4c:	20000d2c 	.word	0x20000d2c
  400f50:	20000eac 	.word	0x20000eac
  400f54:	20000d9c 	.word	0x20000d9c

00400f58 <PIOA_Handler>:
  400f58:	b508      	push	{r3, lr}
  400f5a:	210b      	movs	r1, #11
  400f5c:	4801      	ldr	r0, [pc, #4]	; (400f64 <PIOA_Handler+0xc>)
  400f5e:	4b02      	ldr	r3, [pc, #8]	; (400f68 <PIOA_Handler+0x10>)
  400f60:	4798      	blx	r3
  400f62:	bd08      	pop	{r3, pc}
  400f64:	400e0e00 	.word	0x400e0e00
  400f68:	00400ef1 	.word	0x00400ef1

00400f6c <PIOB_Handler>:
  400f6c:	b508      	push	{r3, lr}
  400f6e:	210c      	movs	r1, #12
  400f70:	4801      	ldr	r0, [pc, #4]	; (400f78 <PIOB_Handler+0xc>)
  400f72:	4b02      	ldr	r3, [pc, #8]	; (400f7c <PIOB_Handler+0x10>)
  400f74:	4798      	blx	r3
  400f76:	bd08      	pop	{r3, pc}
  400f78:	400e1000 	.word	0x400e1000
  400f7c:	00400ef1 	.word	0x00400ef1

00400f80 <udd_sleep_mode>:
  400f80:	b082      	sub	sp, #8
  400f82:	4601      	mov	r1, r0
  400f84:	bb28      	cbnz	r0, 400fd2 <udd_sleep_mode+0x52>
  400f86:	4b24      	ldr	r3, [pc, #144]	; (401018 <udd_sleep_mode+0x98>)
  400f88:	781b      	ldrb	r3, [r3, #0]
  400f8a:	b91b      	cbnz	r3, 400f94 <udd_sleep_mode+0x14>
  400f8c:	4b22      	ldr	r3, [pc, #136]	; (401018 <udd_sleep_mode+0x98>)
  400f8e:	7019      	strb	r1, [r3, #0]
  400f90:	b002      	add	sp, #8
  400f92:	4770      	bx	lr
  400f94:	4b21      	ldr	r3, [pc, #132]	; (40101c <udd_sleep_mode+0x9c>)
  400f96:	789b      	ldrb	r3, [r3, #2]
  400f98:	b903      	cbnz	r3, 400f9c <udd_sleep_mode+0x1c>
  400f9a:	e7fe      	b.n	400f9a <udd_sleep_mode+0x1a>
  400f9c:	f3ef 8310 	mrs	r3, PRIMASK
  400fa0:	fab3 f383 	clz	r3, r3
  400fa4:	095b      	lsrs	r3, r3, #5
  400fa6:	9300      	str	r3, [sp, #0]
  400fa8:	b672      	cpsid	i
  400faa:	f3bf 8f5f 	dmb	sy
  400fae:	2200      	movs	r2, #0
  400fb0:	4b1b      	ldr	r3, [pc, #108]	; (401020 <udd_sleep_mode+0xa0>)
  400fb2:	701a      	strb	r2, [r3, #0]
  400fb4:	9800      	ldr	r0, [sp, #0]
  400fb6:	4a19      	ldr	r2, [pc, #100]	; (40101c <udd_sleep_mode+0x9c>)
  400fb8:	7893      	ldrb	r3, [r2, #2]
  400fba:	3b01      	subs	r3, #1
  400fbc:	7093      	strb	r3, [r2, #2]
  400fbe:	2800      	cmp	r0, #0
  400fc0:	d0e4      	beq.n	400f8c <udd_sleep_mode+0xc>
  400fc2:	2201      	movs	r2, #1
  400fc4:	4b16      	ldr	r3, [pc, #88]	; (401020 <udd_sleep_mode+0xa0>)
  400fc6:	701a      	strb	r2, [r3, #0]
  400fc8:	f3bf 8f5f 	dmb	sy
  400fcc:	b662      	cpsie	i
  400fce:	e7dd      	b.n	400f8c <udd_sleep_mode+0xc>
  400fd0:	e7fe      	b.n	400fd0 <udd_sleep_mode+0x50>
  400fd2:	4b11      	ldr	r3, [pc, #68]	; (401018 <udd_sleep_mode+0x98>)
  400fd4:	781b      	ldrb	r3, [r3, #0]
  400fd6:	2b00      	cmp	r3, #0
  400fd8:	d1d8      	bne.n	400f8c <udd_sleep_mode+0xc>
  400fda:	4b10      	ldr	r3, [pc, #64]	; (40101c <udd_sleep_mode+0x9c>)
  400fdc:	789b      	ldrb	r3, [r3, #2]
  400fde:	2bff      	cmp	r3, #255	; 0xff
  400fe0:	d0f6      	beq.n	400fd0 <udd_sleep_mode+0x50>
  400fe2:	f3ef 8310 	mrs	r3, PRIMASK
  400fe6:	fab3 f383 	clz	r3, r3
  400fea:	095b      	lsrs	r3, r3, #5
  400fec:	9301      	str	r3, [sp, #4]
  400fee:	b672      	cpsid	i
  400ff0:	f3bf 8f5f 	dmb	sy
  400ff4:	2200      	movs	r2, #0
  400ff6:	4b0a      	ldr	r3, [pc, #40]	; (401020 <udd_sleep_mode+0xa0>)
  400ff8:	701a      	strb	r2, [r3, #0]
  400ffa:	9801      	ldr	r0, [sp, #4]
  400ffc:	4a07      	ldr	r2, [pc, #28]	; (40101c <udd_sleep_mode+0x9c>)
  400ffe:	7893      	ldrb	r3, [r2, #2]
  401000:	3301      	adds	r3, #1
  401002:	7093      	strb	r3, [r2, #2]
  401004:	2800      	cmp	r0, #0
  401006:	d0c1      	beq.n	400f8c <udd_sleep_mode+0xc>
  401008:	2201      	movs	r2, #1
  40100a:	4b05      	ldr	r3, [pc, #20]	; (401020 <udd_sleep_mode+0xa0>)
  40100c:	701a      	strb	r2, [r3, #0]
  40100e:	f3bf 8f5f 	dmb	sy
  401012:	b662      	cpsie	i
  401014:	e7ba      	b.n	400f8c <udd_sleep_mode+0xc>
  401016:	bf00      	nop
  401018:	20000da1 	.word	0x20000da1
  40101c:	20000e44 	.word	0x20000e44
  401020:	20000200 	.word	0x20000200

00401024 <udd_ctrl_init>:
  401024:	4a03      	ldr	r2, [pc, #12]	; (401034 <udd_ctrl_init+0x10>)
  401026:	2300      	movs	r3, #0
  401028:	6113      	str	r3, [r2, #16]
  40102a:	6153      	str	r3, [r2, #20]
  40102c:	8193      	strh	r3, [r2, #12]
  40102e:	4a02      	ldr	r2, [pc, #8]	; (401038 <udd_ctrl_init+0x14>)
  401030:	7013      	strb	r3, [r2, #0]
  401032:	4770      	bx	lr
  401034:	20000e4c 	.word	0x20000e4c
  401038:	20000da6 	.word	0x20000da6

0040103c <udd_ctrl_stall_data>:
  40103c:	b082      	sub	sp, #8
  40103e:	2205      	movs	r2, #5
  401040:	4b0a      	ldr	r3, [pc, #40]	; (40106c <udd_ctrl_stall_data+0x30>)
  401042:	701a      	strb	r2, [r3, #0]
  401044:	4a0a      	ldr	r2, [pc, #40]	; (401070 <udd_ctrl_stall_data+0x34>)
  401046:	6b13      	ldr	r3, [r2, #48]	; 0x30
  401048:	9301      	str	r3, [sp, #4]
  40104a:	9b01      	ldr	r3, [sp, #4]
  40104c:	f043 034f 	orr.w	r3, r3, #79	; 0x4f
  401050:	9301      	str	r3, [sp, #4]
  401052:	9b01      	ldr	r3, [sp, #4]
  401054:	f043 0320 	orr.w	r3, r3, #32
  401058:	9301      	str	r3, [sp, #4]
  40105a:	9b01      	ldr	r3, [sp, #4]
  40105c:	6313      	str	r3, [r2, #48]	; 0x30
  40105e:	6b13      	ldr	r3, [r2, #48]	; 0x30
  401060:	f013 0f20 	tst.w	r3, #32
  401064:	d0fb      	beq.n	40105e <udd_ctrl_stall_data+0x22>
  401066:	b002      	add	sp, #8
  401068:	4770      	bx	lr
  40106a:	bf00      	nop
  40106c:	20000da6 	.word	0x20000da6
  401070:	40034000 	.word	0x40034000

00401074 <udd_ctrl_send_zlp_in>:
  401074:	b082      	sub	sp, #8
  401076:	2203      	movs	r2, #3
  401078:	4b0a      	ldr	r3, [pc, #40]	; (4010a4 <udd_ctrl_send_zlp_in+0x30>)
  40107a:	701a      	strb	r2, [r3, #0]
  40107c:	4a0a      	ldr	r2, [pc, #40]	; (4010a8 <udd_ctrl_send_zlp_in+0x34>)
  40107e:	6b13      	ldr	r3, [r2, #48]	; 0x30
  401080:	9301      	str	r3, [sp, #4]
  401082:	9b01      	ldr	r3, [sp, #4]
  401084:	f043 034f 	orr.w	r3, r3, #79	; 0x4f
  401088:	9301      	str	r3, [sp, #4]
  40108a:	9b01      	ldr	r3, [sp, #4]
  40108c:	f043 0310 	orr.w	r3, r3, #16
  401090:	9301      	str	r3, [sp, #4]
  401092:	9b01      	ldr	r3, [sp, #4]
  401094:	6313      	str	r3, [r2, #48]	; 0x30
  401096:	6b13      	ldr	r3, [r2, #48]	; 0x30
  401098:	f013 0f10 	tst.w	r3, #16
  40109c:	d0fb      	beq.n	401096 <udd_ctrl_send_zlp_in+0x22>
  40109e:	b002      	add	sp, #8
  4010a0:	4770      	bx	lr
  4010a2:	bf00      	nop
  4010a4:	20000da6 	.word	0x20000da6
  4010a8:	40034000 	.word	0x40034000

004010ac <udd_ctrl_endofrequest>:
  4010ac:	b508      	push	{r3, lr}
  4010ae:	4b02      	ldr	r3, [pc, #8]	; (4010b8 <udd_ctrl_endofrequest+0xc>)
  4010b0:	691b      	ldr	r3, [r3, #16]
  4010b2:	b103      	cbz	r3, 4010b6 <udd_ctrl_endofrequest+0xa>
  4010b4:	4798      	blx	r3
  4010b6:	bd08      	pop	{r3, pc}
  4010b8:	20000e4c 	.word	0x20000e4c

004010bc <udd_ctrl_in_sent>:
  4010bc:	b530      	push	{r4, r5, lr}
  4010be:	b087      	sub	sp, #28
  4010c0:	4b63      	ldr	r3, [pc, #396]	; (401250 <udd_ctrl_in_sent+0x194>)
  4010c2:	781b      	ldrb	r3, [r3, #0]
  4010c4:	2b03      	cmp	r3, #3
  4010c6:	d029      	beq.n	40111c <udd_ctrl_in_sent+0x60>
  4010c8:	4b62      	ldr	r3, [pc, #392]	; (401254 <udd_ctrl_in_sent+0x198>)
  4010ca:	881b      	ldrh	r3, [r3, #0]
  4010cc:	4a62      	ldr	r2, [pc, #392]	; (401258 <udd_ctrl_in_sent+0x19c>)
  4010ce:	8994      	ldrh	r4, [r2, #12]
  4010d0:	1ae4      	subs	r4, r4, r3
  4010d2:	b2a4      	uxth	r4, r4
  4010d4:	2c00      	cmp	r4, #0
  4010d6:	d144      	bne.n	401162 <udd_ctrl_in_sent+0xa6>
  4010d8:	4a60      	ldr	r2, [pc, #384]	; (40125c <udd_ctrl_in_sent+0x1a0>)
  4010da:	8811      	ldrh	r1, [r2, #0]
  4010dc:	440b      	add	r3, r1
  4010de:	b29b      	uxth	r3, r3
  4010e0:	8013      	strh	r3, [r2, #0]
  4010e2:	4a5d      	ldr	r2, [pc, #372]	; (401258 <udd_ctrl_in_sent+0x19c>)
  4010e4:	88d2      	ldrh	r2, [r2, #6]
  4010e6:	429a      	cmp	r2, r3
  4010e8:	d003      	beq.n	4010f2 <udd_ctrl_in_sent+0x36>
  4010ea:	4b5d      	ldr	r3, [pc, #372]	; (401260 <udd_ctrl_in_sent+0x1a4>)
  4010ec:	781b      	ldrb	r3, [r3, #0]
  4010ee:	2b00      	cmp	r3, #0
  4010f0:	d02b      	beq.n	40114a <udd_ctrl_in_sent+0x8e>
  4010f2:	2204      	movs	r2, #4
  4010f4:	4b56      	ldr	r3, [pc, #344]	; (401250 <udd_ctrl_in_sent+0x194>)
  4010f6:	701a      	strb	r2, [r3, #0]
  4010f8:	4a5a      	ldr	r2, [pc, #360]	; (401264 <udd_ctrl_in_sent+0x1a8>)
  4010fa:	6b13      	ldr	r3, [r2, #48]	; 0x30
  4010fc:	9301      	str	r3, [sp, #4]
  4010fe:	9b01      	ldr	r3, [sp, #4]
  401100:	f043 034f 	orr.w	r3, r3, #79	; 0x4f
  401104:	9301      	str	r3, [sp, #4]
  401106:	9b01      	ldr	r3, [sp, #4]
  401108:	f023 0301 	bic.w	r3, r3, #1
  40110c:	9301      	str	r3, [sp, #4]
  40110e:	9b01      	ldr	r3, [sp, #4]
  401110:	6313      	str	r3, [r2, #48]	; 0x30
  401112:	6b13      	ldr	r3, [r2, #48]	; 0x30
  401114:	f013 0f01 	tst.w	r3, #1
  401118:	d1fb      	bne.n	401112 <udd_ctrl_in_sent+0x56>
  40111a:	e014      	b.n	401146 <udd_ctrl_in_sent+0x8a>
  40111c:	4a51      	ldr	r2, [pc, #324]	; (401264 <udd_ctrl_in_sent+0x1a8>)
  40111e:	6b13      	ldr	r3, [r2, #48]	; 0x30
  401120:	9300      	str	r3, [sp, #0]
  401122:	9b00      	ldr	r3, [sp, #0]
  401124:	f043 034f 	orr.w	r3, r3, #79	; 0x4f
  401128:	9300      	str	r3, [sp, #0]
  40112a:	9b00      	ldr	r3, [sp, #0]
  40112c:	f023 0301 	bic.w	r3, r3, #1
  401130:	9300      	str	r3, [sp, #0]
  401132:	9b00      	ldr	r3, [sp, #0]
  401134:	6313      	str	r3, [r2, #48]	; 0x30
  401136:	6b13      	ldr	r3, [r2, #48]	; 0x30
  401138:	f013 0f01 	tst.w	r3, #1
  40113c:	d1fb      	bne.n	401136 <udd_ctrl_in_sent+0x7a>
  40113e:	4b4a      	ldr	r3, [pc, #296]	; (401268 <udd_ctrl_in_sent+0x1ac>)
  401140:	4798      	blx	r3
  401142:	4b4a      	ldr	r3, [pc, #296]	; (40126c <udd_ctrl_in_sent+0x1b0>)
  401144:	4798      	blx	r3
  401146:	b007      	add	sp, #28
  401148:	bd30      	pop	{r4, r5, pc}
  40114a:	4b43      	ldr	r3, [pc, #268]	; (401258 <udd_ctrl_in_sent+0x19c>)
  40114c:	695b      	ldr	r3, [r3, #20]
  40114e:	2b00      	cmp	r3, #0
  401150:	d05d      	beq.n	40120e <udd_ctrl_in_sent+0x152>
  401152:	4798      	blx	r3
  401154:	2800      	cmp	r0, #0
  401156:	d05a      	beq.n	40120e <udd_ctrl_in_sent+0x152>
  401158:	2200      	movs	r2, #0
  40115a:	4b3e      	ldr	r3, [pc, #248]	; (401254 <udd_ctrl_in_sent+0x198>)
  40115c:	801a      	strh	r2, [r3, #0]
  40115e:	4b3e      	ldr	r3, [pc, #248]	; (401258 <udd_ctrl_in_sent+0x19c>)
  401160:	899c      	ldrh	r4, [r3, #12]
  401162:	2c3f      	cmp	r4, #63	; 0x3f
  401164:	d953      	bls.n	40120e <udd_ctrl_in_sent+0x152>
  401166:	2200      	movs	r2, #0
  401168:	4b3d      	ldr	r3, [pc, #244]	; (401260 <udd_ctrl_in_sent+0x1a4>)
  40116a:	701a      	strb	r2, [r3, #0]
  40116c:	2440      	movs	r4, #64	; 0x40
  40116e:	4b3a      	ldr	r3, [pc, #232]	; (401258 <udd_ctrl_in_sent+0x19c>)
  401170:	6899      	ldr	r1, [r3, #8]
  401172:	4b38      	ldr	r3, [pc, #224]	; (401254 <udd_ctrl_in_sent+0x198>)
  401174:	8818      	ldrh	r0, [r3, #0]
  401176:	f3ef 8310 	mrs	r3, PRIMASK
  40117a:	fab3 f383 	clz	r3, r3
  40117e:	095b      	lsrs	r3, r3, #5
  401180:	9305      	str	r3, [sp, #20]
  401182:	b672      	cpsid	i
  401184:	f3bf 8f5f 	dmb	sy
  401188:	2200      	movs	r2, #0
  40118a:	4b39      	ldr	r3, [pc, #228]	; (401270 <udd_ctrl_in_sent+0x1b4>)
  40118c:	701a      	strb	r2, [r3, #0]
  40118e:	9d05      	ldr	r5, [sp, #20]
  401190:	4b34      	ldr	r3, [pc, #208]	; (401264 <udd_ctrl_in_sent+0x1a8>)
  401192:	6b1b      	ldr	r3, [r3, #48]	; 0x30
  401194:	f013 0f02 	tst.w	r3, #2
  401198:	d13d      	bne.n	401216 <udd_ctrl_in_sent+0x15a>
  40119a:	b14c      	cbz	r4, 4011b0 <udd_ctrl_in_sent+0xf4>
  40119c:	4401      	add	r1, r0
  40119e:	460a      	mov	r2, r1
  4011a0:	4830      	ldr	r0, [pc, #192]	; (401264 <udd_ctrl_in_sent+0x1a8>)
  4011a2:	f812 3b01 	ldrb.w	r3, [r2], #1
  4011a6:	6503      	str	r3, [r0, #80]	; 0x50
  4011a8:	1a53      	subs	r3, r2, r1
  4011aa:	b2db      	uxtb	r3, r3
  4011ac:	42a3      	cmp	r3, r4
  4011ae:	d3f8      	bcc.n	4011a2 <udd_ctrl_in_sent+0xe6>
  4011b0:	4b28      	ldr	r3, [pc, #160]	; (401254 <udd_ctrl_in_sent+0x198>)
  4011b2:	881a      	ldrh	r2, [r3, #0]
  4011b4:	4414      	add	r4, r2
  4011b6:	801c      	strh	r4, [r3, #0]
  4011b8:	4a2a      	ldr	r2, [pc, #168]	; (401264 <udd_ctrl_in_sent+0x1a8>)
  4011ba:	6b13      	ldr	r3, [r2, #48]	; 0x30
  4011bc:	9303      	str	r3, [sp, #12]
  4011be:	9b03      	ldr	r3, [sp, #12]
  4011c0:	f043 034f 	orr.w	r3, r3, #79	; 0x4f
  4011c4:	9303      	str	r3, [sp, #12]
  4011c6:	9b03      	ldr	r3, [sp, #12]
  4011c8:	f043 0310 	orr.w	r3, r3, #16
  4011cc:	9303      	str	r3, [sp, #12]
  4011ce:	9b03      	ldr	r3, [sp, #12]
  4011d0:	6313      	str	r3, [r2, #48]	; 0x30
  4011d2:	6b13      	ldr	r3, [r2, #48]	; 0x30
  4011d4:	f013 0f10 	tst.w	r3, #16
  4011d8:	d0fb      	beq.n	4011d2 <udd_ctrl_in_sent+0x116>
  4011da:	4a22      	ldr	r2, [pc, #136]	; (401264 <udd_ctrl_in_sent+0x1a8>)
  4011dc:	6b13      	ldr	r3, [r2, #48]	; 0x30
  4011de:	9304      	str	r3, [sp, #16]
  4011e0:	9b04      	ldr	r3, [sp, #16]
  4011e2:	f043 034f 	orr.w	r3, r3, #79	; 0x4f
  4011e6:	9304      	str	r3, [sp, #16]
  4011e8:	9b04      	ldr	r3, [sp, #16]
  4011ea:	f023 0301 	bic.w	r3, r3, #1
  4011ee:	9304      	str	r3, [sp, #16]
  4011f0:	9b04      	ldr	r3, [sp, #16]
  4011f2:	6313      	str	r3, [r2, #48]	; 0x30
  4011f4:	6b13      	ldr	r3, [r2, #48]	; 0x30
  4011f6:	f013 0f01 	tst.w	r3, #1
  4011fa:	d1fb      	bne.n	4011f4 <udd_ctrl_in_sent+0x138>
  4011fc:	2d00      	cmp	r5, #0
  4011fe:	d0a2      	beq.n	401146 <udd_ctrl_in_sent+0x8a>
  401200:	2201      	movs	r2, #1
  401202:	4b1b      	ldr	r3, [pc, #108]	; (401270 <udd_ctrl_in_sent+0x1b4>)
  401204:	701a      	strb	r2, [r3, #0]
  401206:	f3bf 8f5f 	dmb	sy
  40120a:	b662      	cpsie	i
  40120c:	e79b      	b.n	401146 <udd_ctrl_in_sent+0x8a>
  40120e:	2201      	movs	r2, #1
  401210:	4b13      	ldr	r3, [pc, #76]	; (401260 <udd_ctrl_in_sent+0x1a4>)
  401212:	701a      	strb	r2, [r3, #0]
  401214:	e7ab      	b.n	40116e <udd_ctrl_in_sent+0xb2>
  401216:	b12d      	cbz	r5, 401224 <udd_ctrl_in_sent+0x168>
  401218:	2201      	movs	r2, #1
  40121a:	4b15      	ldr	r3, [pc, #84]	; (401270 <udd_ctrl_in_sent+0x1b4>)
  40121c:	701a      	strb	r2, [r3, #0]
  40121e:	f3bf 8f5f 	dmb	sy
  401222:	b662      	cpsie	i
  401224:	2204      	movs	r2, #4
  401226:	4b0a      	ldr	r3, [pc, #40]	; (401250 <udd_ctrl_in_sent+0x194>)
  401228:	701a      	strb	r2, [r3, #0]
  40122a:	4a0e      	ldr	r2, [pc, #56]	; (401264 <udd_ctrl_in_sent+0x1a8>)
  40122c:	6b13      	ldr	r3, [r2, #48]	; 0x30
  40122e:	9302      	str	r3, [sp, #8]
  401230:	9b02      	ldr	r3, [sp, #8]
  401232:	f043 034f 	orr.w	r3, r3, #79	; 0x4f
  401236:	9302      	str	r3, [sp, #8]
  401238:	9b02      	ldr	r3, [sp, #8]
  40123a:	f023 0301 	bic.w	r3, r3, #1
  40123e:	9302      	str	r3, [sp, #8]
  401240:	9b02      	ldr	r3, [sp, #8]
  401242:	6313      	str	r3, [r2, #48]	; 0x30
  401244:	6b13      	ldr	r3, [r2, #48]	; 0x30
  401246:	f013 0f01 	tst.w	r3, #1
  40124a:	d1fb      	bne.n	401244 <udd_ctrl_in_sent+0x188>
  40124c:	e77b      	b.n	401146 <udd_ctrl_in_sent+0x8a>
  40124e:	bf00      	nop
  401250:	20000da6 	.word	0x20000da6
  401254:	20000da2 	.word	0x20000da2
  401258:	20000e4c 	.word	0x20000e4c
  40125c:	20000da4 	.word	0x20000da4
  401260:	20000da0 	.word	0x20000da0
  401264:	40034000 	.word	0x40034000
  401268:	004010ad 	.word	0x004010ad
  40126c:	00401025 	.word	0x00401025
  401270:	20000200 	.word	0x20000200

00401274 <udd_ep_finish_job>:
  401274:	b538      	push	{r3, r4, r5, lr}
  401276:	7c43      	ldrb	r3, [r0, #17]
  401278:	f013 0f10 	tst.w	r3, #16
  40127c:	d016      	beq.n	4012ac <udd_ep_finish_job+0x38>
  40127e:	460d      	mov	r5, r1
  401280:	7c43      	ldrb	r3, [r0, #17]
  401282:	f36f 1304 	bfc	r3, #4, #1
  401286:	7443      	strb	r3, [r0, #17]
  401288:	6804      	ldr	r4, [r0, #0]
  40128a:	b17c      	cbz	r4, 4012ac <udd_ep_finish_job+0x38>
  40128c:	f102 030c 	add.w	r3, r2, #12
  401290:	4907      	ldr	r1, [pc, #28]	; (4012b0 <udd_ep_finish_job+0x3c>)
  401292:	f851 3023 	ldr.w	r3, [r1, r3, lsl #2]
  401296:	f413 6f80 	tst.w	r3, #1024	; 0x400
  40129a:	bf18      	it	ne
  40129c:	f042 0280 	orrne.w	r2, r2, #128	; 0x80
  4012a0:	6881      	ldr	r1, [r0, #8]
  4012a2:	2d01      	cmp	r5, #1
  4012a4:	bf14      	ite	ne
  4012a6:	2000      	movne	r0, #0
  4012a8:	2001      	moveq	r0, #1
  4012aa:	47a0      	blx	r4
  4012ac:	bd38      	pop	{r3, r4, r5, pc}
  4012ae:	bf00      	nop
  4012b0:	40034000 	.word	0x40034000

004012b4 <udd_ep_ack_out_received>:
  4012b4:	b430      	push	{r4, r5}
  4012b6:	b082      	sub	sp, #8
  4012b8:	1e41      	subs	r1, r0, #1
  4012ba:	0083      	lsls	r3, r0, #2
  4012bc:	f103 2340 	add.w	r3, r3, #1073758208	; 0x40004000
  4012c0:	f503 3340 	add.w	r3, r3, #196608	; 0x30000
  4012c4:	6b1a      	ldr	r2, [r3, #48]	; 0x30
  4012c6:	6b1c      	ldr	r4, [r3, #48]	; 0x30
  4012c8:	f012 0f02 	tst.w	r2, #2
  4012cc:	d032      	beq.n	401334 <udd_ep_ack_out_received+0x80>
  4012ce:	f014 0f40 	tst.w	r4, #64	; 0x40
  4012d2:	d108      	bne.n	4012e6 <udd_ep_ack_out_received+0x32>
  4012d4:	eb01 0281 	add.w	r2, r1, r1, lsl #2
  4012d8:	4c2a      	ldr	r4, [pc, #168]	; (401384 <udd_ep_ack_out_received+0xd0>)
  4012da:	eb04 0282 	add.w	r2, r4, r2, lsl #2
  4012de:	7c54      	ldrb	r4, [r2, #17]
  4012e0:	f36f 0483 	bfc	r4, #2, #2
  4012e4:	7454      	strb	r4, [r2, #17]
  4012e6:	eb01 0281 	add.w	r2, r1, r1, lsl #2
  4012ea:	4c26      	ldr	r4, [pc, #152]	; (401384 <udd_ep_ack_out_received+0xd0>)
  4012ec:	eb04 0282 	add.w	r2, r4, r2, lsl #2
  4012f0:	7c52      	ldrb	r2, [r2, #17]
  4012f2:	f012 0f0c 	tst.w	r2, #12
  4012f6:	d128      	bne.n	40134a <udd_ep_ack_out_received+0x96>
  4012f8:	6b1a      	ldr	r2, [r3, #48]	; 0x30
  4012fa:	9200      	str	r2, [sp, #0]
  4012fc:	9a00      	ldr	r2, [sp, #0]
  4012fe:	f042 024f 	orr.w	r2, r2, #79	; 0x4f
  401302:	9200      	str	r2, [sp, #0]
  401304:	9a00      	ldr	r2, [sp, #0]
  401306:	f022 0202 	bic.w	r2, r2, #2
  40130a:	9200      	str	r2, [sp, #0]
  40130c:	9a00      	ldr	r2, [sp, #0]
  40130e:	631a      	str	r2, [r3, #48]	; 0x30
  401310:	6b1a      	ldr	r2, [r3, #48]	; 0x30
  401312:	f012 0f02 	tst.w	r2, #2
  401316:	d1fb      	bne.n	401310 <udd_ep_ack_out_received+0x5c>
  401318:	b380      	cbz	r0, 40137c <udd_ep_ack_out_received+0xc8>
  40131a:	2803      	cmp	r0, #3
  40131c:	d02e      	beq.n	40137c <udd_ep_ack_out_received+0xc8>
  40131e:	eb01 0181 	add.w	r1, r1, r1, lsl #2
  401322:	4b18      	ldr	r3, [pc, #96]	; (401384 <udd_ep_ack_out_received+0xd0>)
  401324:	eb03 0381 	add.w	r3, r3, r1, lsl #2
  401328:	7c5a      	ldrb	r2, [r3, #17]
  40132a:	2101      	movs	r1, #1
  40132c:	f361 0283 	bfi	r2, r1, #2, #2
  401330:	745a      	strb	r2, [r3, #17]
  401332:	e023      	b.n	40137c <udd_ep_ack_out_received+0xc8>
  401334:	eb01 0281 	add.w	r2, r1, r1, lsl #2
  401338:	4c12      	ldr	r4, [pc, #72]	; (401384 <udd_ep_ack_out_received+0xd0>)
  40133a:	eb04 0282 	add.w	r2, r4, r2, lsl #2
  40133e:	7c54      	ldrb	r4, [r2, #17]
  401340:	2501      	movs	r5, #1
  401342:	f365 0483 	bfi	r4, r5, #2, #2
  401346:	7454      	strb	r4, [r2, #17]
  401348:	e7cd      	b.n	4012e6 <udd_ep_ack_out_received+0x32>
  40134a:	6b1a      	ldr	r2, [r3, #48]	; 0x30
  40134c:	9201      	str	r2, [sp, #4]
  40134e:	9a01      	ldr	r2, [sp, #4]
  401350:	f042 024f 	orr.w	r2, r2, #79	; 0x4f
  401354:	9201      	str	r2, [sp, #4]
  401356:	9a01      	ldr	r2, [sp, #4]
  401358:	f022 0240 	bic.w	r2, r2, #64	; 0x40
  40135c:	9201      	str	r2, [sp, #4]
  40135e:	9a01      	ldr	r2, [sp, #4]
  401360:	631a      	str	r2, [r3, #48]	; 0x30
  401362:	6b1a      	ldr	r2, [r3, #48]	; 0x30
  401364:	f012 0f40 	tst.w	r2, #64	; 0x40
  401368:	d1fb      	bne.n	401362 <udd_ep_ack_out_received+0xae>
  40136a:	eb01 0181 	add.w	r1, r1, r1, lsl #2
  40136e:	4b05      	ldr	r3, [pc, #20]	; (401384 <udd_ep_ack_out_received+0xd0>)
  401370:	eb03 0181 	add.w	r1, r3, r1, lsl #2
  401374:	7c4b      	ldrb	r3, [r1, #17]
  401376:	f36f 0383 	bfc	r3, #2, #2
  40137a:	744b      	strb	r3, [r1, #17]
  40137c:	b002      	add	sp, #8
  40137e:	bc30      	pop	{r4, r5}
  401380:	4770      	bx	lr
  401382:	bf00      	nop
  401384:	20000da8 	.word	0x20000da8

00401388 <udd_ep_in_sent>:
  401388:	e92d 43f0 	stmdb	sp!, {r4, r5, r6, r7, r8, r9, lr}
  40138c:	b083      	sub	sp, #12
  40138e:	4688      	mov	r8, r1
  401390:	4681      	mov	r9, r0
  401392:	1e46      	subs	r6, r0, #1
  401394:	eb06 0286 	add.w	r2, r6, r6, lsl #2
  401398:	4b66      	ldr	r3, [pc, #408]	; (401534 <udd_ep_in_sent+0x1ac>)
  40139a:	eb03 0382 	add.w	r3, r3, r2, lsl #2
  40139e:	f893 c011 	ldrb.w	ip, [r3, #17]
  4013a2:	f3cc 0c81 	ubfx	ip, ip, #2, #2
  4013a6:	2800      	cmp	r0, #0
  4013a8:	f000 80b7 	beq.w	40151a <udd_ep_in_sent+0x192>
  4013ac:	2803      	cmp	r0, #3
  4013ae:	bf0c      	ite	eq
  4013b0:	2301      	moveq	r3, #1
  4013b2:	2302      	movne	r3, #2
  4013b4:	4563      	cmp	r3, ip
  4013b6:	f340 80b2 	ble.w	40151e <udd_ep_in_sent+0x196>
  4013ba:	eb06 0386 	add.w	r3, r6, r6, lsl #2
  4013be:	4a5d      	ldr	r2, [pc, #372]	; (401534 <udd_ep_in_sent+0x1ac>)
  4013c0:	eb02 0383 	add.w	r3, r2, r3, lsl #2
  4013c4:	68da      	ldr	r2, [r3, #12]
  4013c6:	689b      	ldr	r3, [r3, #8]
  4013c8:	429a      	cmp	r2, r3
  4013ca:	d309      	bcc.n	4013e0 <udd_ep_in_sent+0x58>
  4013cc:	eb06 0186 	add.w	r1, r6, r6, lsl #2
  4013d0:	4c58      	ldr	r4, [pc, #352]	; (401534 <udd_ep_in_sent+0x1ac>)
  4013d2:	eb04 0181 	add.w	r1, r4, r1, lsl #2
  4013d6:	7c49      	ldrb	r1, [r1, #17]
  4013d8:	f011 0f40 	tst.w	r1, #64	; 0x40
  4013dc:	f000 80a3 	beq.w	401526 <udd_ep_in_sent+0x19e>
  4013e0:	eb06 0586 	add.w	r5, r6, r6, lsl #2
  4013e4:	4953      	ldr	r1, [pc, #332]	; (401534 <udd_ep_in_sent+0x1ac>)
  4013e6:	eb01 0585 	add.w	r5, r1, r5, lsl #2
  4013ea:	686c      	ldr	r4, [r5, #4]
  4013ec:	4414      	add	r4, r2
  4013ee:	1a99      	subs	r1, r3, r2
  4013f0:	8a2b      	ldrh	r3, [r5, #16]
  4013f2:	f3c3 0709 	ubfx	r7, r3, #0, #10
  4013f6:	42b9      	cmp	r1, r7
  4013f8:	bf3a      	itte	cc
  4013fa:	460f      	movcc	r7, r1
  4013fc:	f04f 0e01 	movcc.w	lr, #1
  401400:	f04f 0e00 	movcs.w	lr, #0
  401404:	eb06 0386 	add.w	r3, r6, r6, lsl #2
  401408:	494a      	ldr	r1, [pc, #296]	; (401534 <udd_ep_in_sent+0x1ac>)
  40140a:	eb01 0383 	add.w	r3, r1, r3, lsl #2
  40140e:	443a      	add	r2, r7
  401410:	60da      	str	r2, [r3, #12]
  401412:	2f07      	cmp	r7, #7
  401414:	d92b      	bls.n	40146e <udd_ep_in_sent+0xe6>
  401416:	f104 0308 	add.w	r3, r4, #8
  40141a:	463d      	mov	r5, r7
  40141c:	0082      	lsls	r2, r0, #2
  40141e:	f102 2240 	add.w	r2, r2, #1073758208	; 0x40004000
  401422:	f502 3240 	add.w	r2, r2, #196608	; 0x30000
  401426:	f813 1c08 	ldrb.w	r1, [r3, #-8]
  40142a:	6511      	str	r1, [r2, #80]	; 0x50
  40142c:	f813 1c07 	ldrb.w	r1, [r3, #-7]
  401430:	6511      	str	r1, [r2, #80]	; 0x50
  401432:	f813 1c06 	ldrb.w	r1, [r3, #-6]
  401436:	6511      	str	r1, [r2, #80]	; 0x50
  401438:	f813 1c05 	ldrb.w	r1, [r3, #-5]
  40143c:	6511      	str	r1, [r2, #80]	; 0x50
  40143e:	f813 1c04 	ldrb.w	r1, [r3, #-4]
  401442:	6511      	str	r1, [r2, #80]	; 0x50
  401444:	f813 1c03 	ldrb.w	r1, [r3, #-3]
  401448:	6511      	str	r1, [r2, #80]	; 0x50
  40144a:	f813 1c02 	ldrb.w	r1, [r3, #-2]
  40144e:	6511      	str	r1, [r2, #80]	; 0x50
  401450:	f813 1c01 	ldrb.w	r1, [r3, #-1]
  401454:	6511      	str	r1, [r2, #80]	; 0x50
  401456:	3d08      	subs	r5, #8
  401458:	3308      	adds	r3, #8
  40145a:	2d07      	cmp	r5, #7
  40145c:	d8e3      	bhi.n	401426 <udd_ep_in_sent+0x9e>
  40145e:	f1a7 0308 	sub.w	r3, r7, #8
  401462:	f023 0307 	bic.w	r3, r3, #7
  401466:	3308      	adds	r3, #8
  401468:	441c      	add	r4, r3
  40146a:	f007 0707 	and.w	r7, r7, #7
  40146e:	b14f      	cbz	r7, 401484 <udd_ep_in_sent+0xfc>
  401470:	19e3      	adds	r3, r4, r7
  401472:	4931      	ldr	r1, [pc, #196]	; (401538 <udd_ep_in_sent+0x1b0>)
  401474:	f109 0914 	add.w	r9, r9, #20
  401478:	f814 2b01 	ldrb.w	r2, [r4], #1
  40147c:	f841 2029 	str.w	r2, [r1, r9, lsl #2]
  401480:	429c      	cmp	r4, r3
  401482:	d1f9      	bne.n	401478 <udd_ep_in_sent+0xf0>
  401484:	eb06 0386 	add.w	r3, r6, r6, lsl #2
  401488:	4a2a      	ldr	r2, [pc, #168]	; (401534 <udd_ep_in_sent+0x1ac>)
  40148a:	eb02 0383 	add.w	r3, r2, r3, lsl #2
  40148e:	f10c 0c01 	add.w	ip, ip, #1
  401492:	7c5a      	ldrb	r2, [r3, #17]
  401494:	f36c 0283 	bfi	r2, ip, #2, #2
  401498:	745a      	strb	r2, [r3, #17]
  40149a:	f1b8 0f00 	cmp.w	r8, #0
  40149e:	d014      	beq.n	4014ca <udd_ep_in_sent+0x142>
  4014a0:	0080      	lsls	r0, r0, #2
  4014a2:	f100 2040 	add.w	r0, r0, #1073758208	; 0x40004000
  4014a6:	f500 3040 	add.w	r0, r0, #196608	; 0x30000
  4014aa:	6b03      	ldr	r3, [r0, #48]	; 0x30
  4014ac:	9301      	str	r3, [sp, #4]
  4014ae:	9b01      	ldr	r3, [sp, #4]
  4014b0:	f043 034f 	orr.w	r3, r3, #79	; 0x4f
  4014b4:	9301      	str	r3, [sp, #4]
  4014b6:	9b01      	ldr	r3, [sp, #4]
  4014b8:	f043 0310 	orr.w	r3, r3, #16
  4014bc:	9301      	str	r3, [sp, #4]
  4014be:	9b01      	ldr	r3, [sp, #4]
  4014c0:	6303      	str	r3, [r0, #48]	; 0x30
  4014c2:	6b03      	ldr	r3, [r0, #48]	; 0x30
  4014c4:	f013 0f10 	tst.w	r3, #16
  4014c8:	d0fb      	beq.n	4014c2 <udd_ep_in_sent+0x13a>
  4014ca:	f1be 0f00 	cmp.w	lr, #0
  4014ce:	d008      	beq.n	4014e2 <udd_ep_in_sent+0x15a>
  4014d0:	eb06 0386 	add.w	r3, r6, r6, lsl #2
  4014d4:	4a17      	ldr	r2, [pc, #92]	; (401534 <udd_ep_in_sent+0x1ac>)
  4014d6:	eb02 0383 	add.w	r3, r2, r3, lsl #2
  4014da:	7c5a      	ldrb	r2, [r3, #17]
  4014dc:	f36f 1286 	bfc	r2, #6, #1
  4014e0:	745a      	strb	r2, [r3, #17]
  4014e2:	eb06 0386 	add.w	r3, r6, r6, lsl #2
  4014e6:	4a13      	ldr	r2, [pc, #76]	; (401534 <udd_ep_in_sent+0x1ac>)
  4014e8:	eb02 0383 	add.w	r3, r2, r3, lsl #2
  4014ec:	68da      	ldr	r2, [r3, #12]
  4014ee:	689b      	ldr	r3, [r3, #8]
  4014f0:	429a      	cmp	r2, r3
  4014f2:	d31a      	bcc.n	40152a <udd_ep_in_sent+0x1a2>
  4014f4:	eb06 0386 	add.w	r3, r6, r6, lsl #2
  4014f8:	4a0e      	ldr	r2, [pc, #56]	; (401534 <udd_ep_in_sent+0x1ac>)
  4014fa:	eb02 0383 	add.w	r3, r2, r3, lsl #2
  4014fe:	7c5b      	ldrb	r3, [r3, #17]
  401500:	f013 0f40 	tst.w	r3, #64	; 0x40
  401504:	d113      	bne.n	40152e <udd_ep_in_sent+0x1a6>
  401506:	eb06 0686 	add.w	r6, r6, r6, lsl #2
  40150a:	eb02 0686 	add.w	r6, r2, r6, lsl #2
  40150e:	7c73      	ldrb	r3, [r6, #17]
  401510:	f043 0380 	orr.w	r3, r3, #128	; 0x80
  401514:	7473      	strb	r3, [r6, #17]
  401516:	2000      	movs	r0, #0
  401518:	e002      	b.n	401520 <udd_ep_in_sent+0x198>
  40151a:	2301      	movs	r3, #1
  40151c:	e74a      	b.n	4013b4 <udd_ep_in_sent+0x2c>
  40151e:	2001      	movs	r0, #1
  401520:	b003      	add	sp, #12
  401522:	e8bd 83f0 	ldmia.w	sp!, {r4, r5, r6, r7, r8, r9, pc}
  401526:	2000      	movs	r0, #0
  401528:	e7fa      	b.n	401520 <udd_ep_in_sent+0x198>
  40152a:	2001      	movs	r0, #1
  40152c:	e7f8      	b.n	401520 <udd_ep_in_sent+0x198>
  40152e:	2001      	movs	r0, #1
  401530:	e7f6      	b.n	401520 <udd_ep_in_sent+0x198>
  401532:	bf00      	nop
  401534:	20000da8 	.word	0x20000da8
  401538:	40034000 	.word	0x40034000

0040153c <UDP_Handler>:
  40153c:	e92d 4ff0 	stmdb	sp!, {r4, r5, r6, r7, r8, r9, sl, fp, lr}
  401540:	b09b      	sub	sp, #108	; 0x6c
  401542:	4b86      	ldr	r3, [pc, #536]	; (40175c <UDP_Handler+0x220>)
  401544:	4798      	blx	r3
  401546:	b920      	cbnz	r0, 401552 <UDP_Handler+0x16>
  401548:	4b85      	ldr	r3, [pc, #532]	; (401760 <UDP_Handler+0x224>)
  40154a:	69db      	ldr	r3, [r3, #28]
  40154c:	f413 7f80 	tst.w	r3, #256	; 0x100
  401550:	d03b      	beq.n	4015ca <UDP_Handler+0x8e>
  401552:	2022      	movs	r0, #34	; 0x22
  401554:	4b83      	ldr	r3, [pc, #524]	; (401764 <UDP_Handler+0x228>)
  401556:	4798      	blx	r3
  401558:	4b81      	ldr	r3, [pc, #516]	; (401760 <UDP_Handler+0x224>)
  40155a:	699b      	ldr	r3, [r3, #24]
  40155c:	f413 6f00 	tst.w	r3, #2048	; 0x800
  401560:	d004      	beq.n	40156c <UDP_Handler+0x30>
  401562:	4b7f      	ldr	r3, [pc, #508]	; (401760 <UDP_Handler+0x224>)
  401564:	69db      	ldr	r3, [r3, #28]
  401566:	f413 6f00 	tst.w	r3, #2048	; 0x800
  40156a:	d137      	bne.n	4015dc <UDP_Handler+0xa0>
  40156c:	4b7c      	ldr	r3, [pc, #496]	; (401760 <UDP_Handler+0x224>)
  40156e:	69db      	ldr	r3, [r3, #28]
  401570:	f013 0f01 	tst.w	r3, #1
  401574:	f000 81b6 	beq.w	4018e4 <UDP_Handler+0x3a8>
  401578:	4b79      	ldr	r3, [pc, #484]	; (401760 <UDP_Handler+0x224>)
  40157a:	6b1b      	ldr	r3, [r3, #48]	; 0x30
  40157c:	f013 0f04 	tst.w	r3, #4
  401580:	d133      	bne.n	4015ea <UDP_Handler+0xae>
  401582:	4b77      	ldr	r3, [pc, #476]	; (401760 <UDP_Handler+0x224>)
  401584:	6b1b      	ldr	r3, [r3, #48]	; 0x30
  401586:	f013 0f01 	tst.w	r3, #1
  40158a:	f040 80c3 	bne.w	401714 <UDP_Handler+0x1d8>
  40158e:	4b74      	ldr	r3, [pc, #464]	; (401760 <UDP_Handler+0x224>)
  401590:	6b1b      	ldr	r3, [r3, #48]	; 0x30
  401592:	f013 0f02 	tst.w	r3, #2
  401596:	f040 80c0 	bne.w	40171a <UDP_Handler+0x1de>
  40159a:	4b71      	ldr	r3, [pc, #452]	; (401760 <UDP_Handler+0x224>)
  40159c:	6b1b      	ldr	r3, [r3, #48]	; 0x30
  40159e:	f013 0f08 	tst.w	r3, #8
  4015a2:	f000 819f 	beq.w	4018e4 <UDP_Handler+0x3a8>
  4015a6:	4a6e      	ldr	r2, [pc, #440]	; (401760 <UDP_Handler+0x224>)
  4015a8:	6b13      	ldr	r3, [r2, #48]	; 0x30
  4015aa:	9300      	str	r3, [sp, #0]
  4015ac:	9b00      	ldr	r3, [sp, #0]
  4015ae:	f043 034f 	orr.w	r3, r3, #79	; 0x4f
  4015b2:	9300      	str	r3, [sp, #0]
  4015b4:	9b00      	ldr	r3, [sp, #0]
  4015b6:	f023 0308 	bic.w	r3, r3, #8
  4015ba:	9300      	str	r3, [sp, #0]
  4015bc:	9b00      	ldr	r3, [sp, #0]
  4015be:	6313      	str	r3, [r2, #48]	; 0x30
  4015c0:	6b13      	ldr	r3, [r2, #48]	; 0x30
  4015c2:	f013 0f08 	tst.w	r3, #8
  4015c6:	d1fb      	bne.n	4015c0 <UDP_Handler+0x84>
  4015c8:	e005      	b.n	4015d6 <UDP_Handler+0x9a>
  4015ca:	b672      	cpsid	i
  4015cc:	f3bf 8f5f 	dmb	sy
  4015d0:	2200      	movs	r2, #0
  4015d2:	4b65      	ldr	r3, [pc, #404]	; (401768 <UDP_Handler+0x22c>)
  4015d4:	701a      	strb	r2, [r3, #0]
  4015d6:	b01b      	add	sp, #108	; 0x6c
  4015d8:	e8bd 8ff0 	ldmia.w	sp!, {r4, r5, r6, r7, r8, r9, sl, fp, pc}
  4015dc:	f44f 6200 	mov.w	r2, #2048	; 0x800
  4015e0:	4b5f      	ldr	r3, [pc, #380]	; (401760 <UDP_Handler+0x224>)
  4015e2:	621a      	str	r2, [r3, #32]
  4015e4:	4b61      	ldr	r3, [pc, #388]	; (40176c <UDP_Handler+0x230>)
  4015e6:	4798      	blx	r3
  4015e8:	e7f5      	b.n	4015d6 <UDP_Handler+0x9a>
  4015ea:	4b61      	ldr	r3, [pc, #388]	; (401770 <UDP_Handler+0x234>)
  4015ec:	781b      	ldrb	r3, [r3, #0]
  4015ee:	b9cb      	cbnz	r3, 401624 <UDP_Handler+0xe8>
  4015f0:	4b5b      	ldr	r3, [pc, #364]	; (401760 <UDP_Handler+0x224>)
  4015f2:	6b1b      	ldr	r3, [r3, #48]	; 0x30
  4015f4:	f3c3 430a 	ubfx	r3, r3, #16, #11
  4015f8:	2b08      	cmp	r3, #8
  4015fa:	d018      	beq.n	40162e <UDP_Handler+0xf2>
  4015fc:	4a58      	ldr	r2, [pc, #352]	; (401760 <UDP_Handler+0x224>)
  4015fe:	6b13      	ldr	r3, [r2, #48]	; 0x30
  401600:	9301      	str	r3, [sp, #4]
  401602:	9b01      	ldr	r3, [sp, #4]
  401604:	f043 034f 	orr.w	r3, r3, #79	; 0x4f
  401608:	9301      	str	r3, [sp, #4]
  40160a:	9b01      	ldr	r3, [sp, #4]
  40160c:	f023 0304 	bic.w	r3, r3, #4
  401610:	9301      	str	r3, [sp, #4]
  401612:	9b01      	ldr	r3, [sp, #4]
  401614:	6313      	str	r3, [r2, #48]	; 0x30
  401616:	6b13      	ldr	r3, [r2, #48]	; 0x30
  401618:	f013 0f04 	tst.w	r3, #4
  40161c:	d1fb      	bne.n	401616 <UDP_Handler+0xda>
  40161e:	4b55      	ldr	r3, [pc, #340]	; (401774 <UDP_Handler+0x238>)
  401620:	4798      	blx	r3
  401622:	e7d8      	b.n	4015d6 <UDP_Handler+0x9a>
  401624:	4b54      	ldr	r3, [pc, #336]	; (401778 <UDP_Handler+0x23c>)
  401626:	4798      	blx	r3
  401628:	4b54      	ldr	r3, [pc, #336]	; (40177c <UDP_Handler+0x240>)
  40162a:	4798      	blx	r3
  40162c:	e7e0      	b.n	4015f0 <UDP_Handler+0xb4>
  40162e:	4b54      	ldr	r3, [pc, #336]	; (401780 <UDP_Handler+0x244>)
  401630:	f103 0008 	add.w	r0, r3, #8
  401634:	494a      	ldr	r1, [pc, #296]	; (401760 <UDP_Handler+0x224>)
  401636:	6d0a      	ldr	r2, [r1, #80]	; 0x50
  401638:	f803 2f01 	strb.w	r2, [r3, #1]!
  40163c:	4283      	cmp	r3, r0
  40163e:	d1fa      	bne.n	401636 <UDP_Handler+0xfa>
  401640:	4b50      	ldr	r3, [pc, #320]	; (401784 <UDP_Handler+0x248>)
  401642:	4798      	blx	r3
  401644:	b998      	cbnz	r0, 40166e <UDP_Handler+0x132>
  401646:	4a46      	ldr	r2, [pc, #280]	; (401760 <UDP_Handler+0x224>)
  401648:	6b13      	ldr	r3, [r2, #48]	; 0x30
  40164a:	9302      	str	r3, [sp, #8]
  40164c:	9b02      	ldr	r3, [sp, #8]
  40164e:	f043 034f 	orr.w	r3, r3, #79	; 0x4f
  401652:	9302      	str	r3, [sp, #8]
  401654:	9b02      	ldr	r3, [sp, #8]
  401656:	f023 0304 	bic.w	r3, r3, #4
  40165a:	9302      	str	r3, [sp, #8]
  40165c:	9b02      	ldr	r3, [sp, #8]
  40165e:	6313      	str	r3, [r2, #48]	; 0x30
  401660:	6b13      	ldr	r3, [r2, #48]	; 0x30
  401662:	f013 0f04 	tst.w	r3, #4
  401666:	d1fb      	bne.n	401660 <UDP_Handler+0x124>
  401668:	4b42      	ldr	r3, [pc, #264]	; (401774 <UDP_Handler+0x238>)
  40166a:	4798      	blx	r3
  40166c:	e7b3      	b.n	4015d6 <UDP_Handler+0x9a>
  40166e:	4b46      	ldr	r3, [pc, #280]	; (401788 <UDP_Handler+0x24c>)
  401670:	f993 3000 	ldrsb.w	r3, [r3]
  401674:	2b00      	cmp	r3, #0
  401676:	db1d      	blt.n	4016b4 <UDP_Handler+0x178>
  401678:	4a39      	ldr	r2, [pc, #228]	; (401760 <UDP_Handler+0x224>)
  40167a:	6b13      	ldr	r3, [r2, #48]	; 0x30
  40167c:	9305      	str	r3, [sp, #20]
  40167e:	9b05      	ldr	r3, [sp, #20]
  401680:	f043 034f 	orr.w	r3, r3, #79	; 0x4f
  401684:	9305      	str	r3, [sp, #20]
  401686:	9b05      	ldr	r3, [sp, #20]
  401688:	f023 0304 	bic.w	r3, r3, #4
  40168c:	9305      	str	r3, [sp, #20]
  40168e:	9b05      	ldr	r3, [sp, #20]
  401690:	6313      	str	r3, [r2, #48]	; 0x30
  401692:	6b13      	ldr	r3, [r2, #48]	; 0x30
  401694:	f013 0f04 	tst.w	r3, #4
  401698:	d1fb      	bne.n	401692 <UDP_Handler+0x156>
  40169a:	4b3b      	ldr	r3, [pc, #236]	; (401788 <UDP_Handler+0x24c>)
  40169c:	88db      	ldrh	r3, [r3, #6]
  40169e:	2b00      	cmp	r3, #0
  4016a0:	d035      	beq.n	40170e <UDP_Handler+0x1d2>
  4016a2:	2300      	movs	r3, #0
  4016a4:	4a39      	ldr	r2, [pc, #228]	; (40178c <UDP_Handler+0x250>)
  4016a6:	8013      	strh	r3, [r2, #0]
  4016a8:	4a39      	ldr	r2, [pc, #228]	; (401790 <UDP_Handler+0x254>)
  4016aa:	8013      	strh	r3, [r2, #0]
  4016ac:	2201      	movs	r2, #1
  4016ae:	4b30      	ldr	r3, [pc, #192]	; (401770 <UDP_Handler+0x234>)
  4016b0:	701a      	strb	r2, [r3, #0]
  4016b2:	e790      	b.n	4015d6 <UDP_Handler+0x9a>
  4016b4:	4a2a      	ldr	r2, [pc, #168]	; (401760 <UDP_Handler+0x224>)
  4016b6:	6b13      	ldr	r3, [r2, #48]	; 0x30
  4016b8:	9303      	str	r3, [sp, #12]
  4016ba:	9b03      	ldr	r3, [sp, #12]
  4016bc:	f043 034f 	orr.w	r3, r3, #79	; 0x4f
  4016c0:	9303      	str	r3, [sp, #12]
  4016c2:	9b03      	ldr	r3, [sp, #12]
  4016c4:	f043 0380 	orr.w	r3, r3, #128	; 0x80
  4016c8:	9303      	str	r3, [sp, #12]
  4016ca:	9b03      	ldr	r3, [sp, #12]
  4016cc:	6313      	str	r3, [r2, #48]	; 0x30
  4016ce:	6b13      	ldr	r3, [r2, #48]	; 0x30
  4016d0:	f013 0f80 	tst.w	r3, #128	; 0x80
  4016d4:	d0fb      	beq.n	4016ce <UDP_Handler+0x192>
  4016d6:	4a22      	ldr	r2, [pc, #136]	; (401760 <UDP_Handler+0x224>)
  4016d8:	6b13      	ldr	r3, [r2, #48]	; 0x30
  4016da:	9304      	str	r3, [sp, #16]
  4016dc:	9b04      	ldr	r3, [sp, #16]
  4016de:	f043 034f 	orr.w	r3, r3, #79	; 0x4f
  4016e2:	9304      	str	r3, [sp, #16]
  4016e4:	9b04      	ldr	r3, [sp, #16]
  4016e6:	f023 0304 	bic.w	r3, r3, #4
  4016ea:	9304      	str	r3, [sp, #16]
  4016ec:	9b04      	ldr	r3, [sp, #16]
  4016ee:	6313      	str	r3, [r2, #48]	; 0x30
  4016f0:	6b13      	ldr	r3, [r2, #48]	; 0x30
  4016f2:	f013 0f04 	tst.w	r3, #4
  4016f6:	d1fb      	bne.n	4016f0 <UDP_Handler+0x1b4>
  4016f8:	2300      	movs	r3, #0
  4016fa:	4a24      	ldr	r2, [pc, #144]	; (40178c <UDP_Handler+0x250>)
  4016fc:	8013      	strh	r3, [r2, #0]
  4016fe:	4a24      	ldr	r2, [pc, #144]	; (401790 <UDP_Handler+0x254>)
  401700:	8013      	strh	r3, [r2, #0]
  401702:	2202      	movs	r2, #2
  401704:	4b1a      	ldr	r3, [pc, #104]	; (401770 <UDP_Handler+0x234>)
  401706:	701a      	strb	r2, [r3, #0]
  401708:	4b22      	ldr	r3, [pc, #136]	; (401794 <UDP_Handler+0x258>)
  40170a:	4798      	blx	r3
  40170c:	e763      	b.n	4015d6 <UDP_Handler+0x9a>
  40170e:	4b22      	ldr	r3, [pc, #136]	; (401798 <UDP_Handler+0x25c>)
  401710:	4798      	blx	r3
  401712:	e760      	b.n	4015d6 <UDP_Handler+0x9a>
  401714:	4b1f      	ldr	r3, [pc, #124]	; (401794 <UDP_Handler+0x258>)
  401716:	4798      	blx	r3
  401718:	e75d      	b.n	4015d6 <UDP_Handler+0x9a>
  40171a:	4b15      	ldr	r3, [pc, #84]	; (401770 <UDP_Handler+0x234>)
  40171c:	781b      	ldrb	r3, [r3, #0]
  40171e:	2b01      	cmp	r3, #1
  401720:	d03c      	beq.n	40179c <UDP_Handler+0x260>
  401722:	2b02      	cmp	r3, #2
  401724:	d004      	beq.n	401730 <UDP_Handler+0x1f4>
  401726:	2b04      	cmp	r3, #4
  401728:	d002      	beq.n	401730 <UDP_Handler+0x1f4>
  40172a:	4b12      	ldr	r3, [pc, #72]	; (401774 <UDP_Handler+0x238>)
  40172c:	4798      	blx	r3
  40172e:	e001      	b.n	401734 <UDP_Handler+0x1f8>
  401730:	4b11      	ldr	r3, [pc, #68]	; (401778 <UDP_Handler+0x23c>)
  401732:	4798      	blx	r3
  401734:	4a0a      	ldr	r2, [pc, #40]	; (401760 <UDP_Handler+0x224>)
  401736:	6b13      	ldr	r3, [r2, #48]	; 0x30
  401738:	9306      	str	r3, [sp, #24]
  40173a:	9b06      	ldr	r3, [sp, #24]
  40173c:	f043 034f 	orr.w	r3, r3, #79	; 0x4f
  401740:	9306      	str	r3, [sp, #24]
  401742:	9b06      	ldr	r3, [sp, #24]
  401744:	f023 0302 	bic.w	r3, r3, #2
  401748:	9306      	str	r3, [sp, #24]
  40174a:	9b06      	ldr	r3, [sp, #24]
  40174c:	6313      	str	r3, [r2, #48]	; 0x30
  40174e:	6b13      	ldr	r3, [r2, #48]	; 0x30
  401750:	f013 0f02 	tst.w	r3, #2
  401754:	d1fb      	bne.n	40174e <UDP_Handler+0x212>
  401756:	4b09      	ldr	r3, [pc, #36]	; (40177c <UDP_Handler+0x240>)
  401758:	4798      	blx	r3
  40175a:	e73c      	b.n	4015d6 <UDP_Handler+0x9a>
  40175c:	00403301 	.word	0x00403301
  401760:	40034000 	.word	0x40034000
  401764:	004031ed 	.word	0x004031ed
  401768:	20000200 	.word	0x20000200
  40176c:	00400a09 	.word	0x00400a09
  401770:	20000da6 	.word	0x20000da6
  401774:	0040103d 	.word	0x0040103d
  401778:	004010ad 	.word	0x004010ad
  40177c:	00401025 	.word	0x00401025
  401780:	20000e4b 	.word	0x20000e4b
  401784:	00400a49 	.word	0x00400a49
  401788:	20000e4c 	.word	0x20000e4c
  40178c:	20000da4 	.word	0x20000da4
  401790:	20000da2 	.word	0x20000da2
  401794:	004010bd 	.word	0x004010bd
  401798:	00401075 	.word	0x00401075
  40179c:	4b93      	ldr	r3, [pc, #588]	; (4019ec <UDP_Handler+0x4b0>)
  40179e:	6b19      	ldr	r1, [r3, #48]	; 0x30
  4017a0:	f3c1 410a 	ubfx	r1, r1, #16, #11
  4017a4:	4b92      	ldr	r3, [pc, #584]	; (4019f0 <UDP_Handler+0x4b4>)
  4017a6:	899b      	ldrh	r3, [r3, #12]
  4017a8:	4a92      	ldr	r2, [pc, #584]	; (4019f4 <UDP_Handler+0x4b8>)
  4017aa:	8815      	ldrh	r5, [r2, #0]
  4017ac:	186a      	adds	r2, r5, r1
  4017ae:	4293      	cmp	r3, r2
  4017b0:	bfbc      	itt	lt
  4017b2:	1b5b      	sublt	r3, r3, r5
  4017b4:	b299      	uxthlt	r1, r3
  4017b6:	4b8e      	ldr	r3, [pc, #568]	; (4019f0 <UDP_Handler+0x4b4>)
  4017b8:	6898      	ldr	r0, [r3, #8]
  4017ba:	4428      	add	r0, r5
  4017bc:	b171      	cbz	r1, 4017dc <UDP_Handler+0x2a0>
  4017be:	4602      	mov	r2, r0
  4017c0:	4c8a      	ldr	r4, [pc, #552]	; (4019ec <UDP_Handler+0x4b0>)
  4017c2:	6d23      	ldr	r3, [r4, #80]	; 0x50
  4017c4:	f802 3b01 	strb.w	r3, [r2], #1
  4017c8:	1a13      	subs	r3, r2, r0
  4017ca:	b2db      	uxtb	r3, r3
  4017cc:	428b      	cmp	r3, r1
  4017ce:	d3f8      	bcc.n	4017c2 <UDP_Handler+0x286>
  4017d0:	440d      	add	r5, r1
  4017d2:	b2ad      	uxth	r5, r5
  4017d4:	4b87      	ldr	r3, [pc, #540]	; (4019f4 <UDP_Handler+0x4b8>)
  4017d6:	801d      	strh	r5, [r3, #0]
  4017d8:	2940      	cmp	r1, #64	; 0x40
  4017da:	d01a      	beq.n	401812 <UDP_Handler+0x2d6>
  4017dc:	4b84      	ldr	r3, [pc, #528]	; (4019f0 <UDP_Handler+0x4b4>)
  4017de:	819d      	strh	r5, [r3, #12]
  4017e0:	695b      	ldr	r3, [r3, #20]
  4017e2:	b113      	cbz	r3, 4017ea <UDP_Handler+0x2ae>
  4017e4:	4798      	blx	r3
  4017e6:	2800      	cmp	r0, #0
  4017e8:	d030      	beq.n	40184c <UDP_Handler+0x310>
  4017ea:	4a80      	ldr	r2, [pc, #512]	; (4019ec <UDP_Handler+0x4b0>)
  4017ec:	6b13      	ldr	r3, [r2, #48]	; 0x30
  4017ee:	9308      	str	r3, [sp, #32]
  4017f0:	9b08      	ldr	r3, [sp, #32]
  4017f2:	f043 034f 	orr.w	r3, r3, #79	; 0x4f
  4017f6:	9308      	str	r3, [sp, #32]
  4017f8:	9b08      	ldr	r3, [sp, #32]
  4017fa:	f023 0302 	bic.w	r3, r3, #2
  4017fe:	9308      	str	r3, [sp, #32]
  401800:	9b08      	ldr	r3, [sp, #32]
  401802:	6313      	str	r3, [r2, #48]	; 0x30
  401804:	6b13      	ldr	r3, [r2, #48]	; 0x30
  401806:	f013 0f02 	tst.w	r3, #2
  40180a:	d1fb      	bne.n	401804 <UDP_Handler+0x2c8>
  40180c:	4b7a      	ldr	r3, [pc, #488]	; (4019f8 <UDP_Handler+0x4bc>)
  40180e:	4798      	blx	r3
  401810:	e6e1      	b.n	4015d6 <UDP_Handler+0x9a>
  401812:	4b77      	ldr	r3, [pc, #476]	; (4019f0 <UDP_Handler+0x4b4>)
  401814:	88da      	ldrh	r2, [r3, #6]
  401816:	4b79      	ldr	r3, [pc, #484]	; (4019fc <UDP_Handler+0x4c0>)
  401818:	881b      	ldrh	r3, [r3, #0]
  40181a:	442b      	add	r3, r5
  40181c:	429a      	cmp	r2, r3
  40181e:	dddd      	ble.n	4017dc <UDP_Handler+0x2a0>
  401820:	4b73      	ldr	r3, [pc, #460]	; (4019f0 <UDP_Handler+0x4b4>)
  401822:	899b      	ldrh	r3, [r3, #12]
  401824:	42ab      	cmp	r3, r5
  401826:	d025      	beq.n	401874 <UDP_Handler+0x338>
  401828:	4a70      	ldr	r2, [pc, #448]	; (4019ec <UDP_Handler+0x4b0>)
  40182a:	6b13      	ldr	r3, [r2, #48]	; 0x30
  40182c:	930b      	str	r3, [sp, #44]	; 0x2c
  40182e:	9b0b      	ldr	r3, [sp, #44]	; 0x2c
  401830:	f043 034f 	orr.w	r3, r3, #79	; 0x4f
  401834:	930b      	str	r3, [sp, #44]	; 0x2c
  401836:	9b0b      	ldr	r3, [sp, #44]	; 0x2c
  401838:	f023 0302 	bic.w	r3, r3, #2
  40183c:	930b      	str	r3, [sp, #44]	; 0x2c
  40183e:	9b0b      	ldr	r3, [sp, #44]	; 0x2c
  401840:	6313      	str	r3, [r2, #48]	; 0x30
  401842:	6b13      	ldr	r3, [r2, #48]	; 0x30
  401844:	f013 0f02 	tst.w	r3, #2
  401848:	d1fb      	bne.n	401842 <UDP_Handler+0x306>
  40184a:	e6c4      	b.n	4015d6 <UDP_Handler+0x9a>
  40184c:	4b6c      	ldr	r3, [pc, #432]	; (401a00 <UDP_Handler+0x4c4>)
  40184e:	4798      	blx	r3
  401850:	4a66      	ldr	r2, [pc, #408]	; (4019ec <UDP_Handler+0x4b0>)
  401852:	6b13      	ldr	r3, [r2, #48]	; 0x30
  401854:	9307      	str	r3, [sp, #28]
  401856:	9b07      	ldr	r3, [sp, #28]
  401858:	f043 034f 	orr.w	r3, r3, #79	; 0x4f
  40185c:	9307      	str	r3, [sp, #28]
  40185e:	9b07      	ldr	r3, [sp, #28]
  401860:	f023 0302 	bic.w	r3, r3, #2
  401864:	9307      	str	r3, [sp, #28]
  401866:	9b07      	ldr	r3, [sp, #28]
  401868:	6313      	str	r3, [r2, #48]	; 0x30
  40186a:	6b13      	ldr	r3, [r2, #48]	; 0x30
  40186c:	f013 0f02 	tst.w	r3, #2
  401870:	d1fb      	bne.n	40186a <UDP_Handler+0x32e>
  401872:	e6b0      	b.n	4015d6 <UDP_Handler+0x9a>
  401874:	4b5e      	ldr	r3, [pc, #376]	; (4019f0 <UDP_Handler+0x4b4>)
  401876:	695b      	ldr	r3, [r3, #20]
  401878:	b153      	cbz	r3, 401890 <UDP_Handler+0x354>
  40187a:	4798      	blx	r3
  40187c:	b1e8      	cbz	r0, 4018ba <UDP_Handler+0x37e>
  40187e:	495f      	ldr	r1, [pc, #380]	; (4019fc <UDP_Handler+0x4c0>)
  401880:	4a5c      	ldr	r2, [pc, #368]	; (4019f4 <UDP_Handler+0x4b8>)
  401882:	880b      	ldrh	r3, [r1, #0]
  401884:	8810      	ldrh	r0, [r2, #0]
  401886:	4403      	add	r3, r0
  401888:	800b      	strh	r3, [r1, #0]
  40188a:	2300      	movs	r3, #0
  40188c:	8013      	strh	r3, [r2, #0]
  40188e:	e7cb      	b.n	401828 <UDP_Handler+0x2ec>
  401890:	4b5b      	ldr	r3, [pc, #364]	; (401a00 <UDP_Handler+0x4c4>)
  401892:	4798      	blx	r3
  401894:	4a55      	ldr	r2, [pc, #340]	; (4019ec <UDP_Handler+0x4b0>)
  401896:	6b13      	ldr	r3, [r2, #48]	; 0x30
  401898:	9309      	str	r3, [sp, #36]	; 0x24
  40189a:	9b09      	ldr	r3, [sp, #36]	; 0x24
  40189c:	f043 034f 	orr.w	r3, r3, #79	; 0x4f
  4018a0:	9309      	str	r3, [sp, #36]	; 0x24
  4018a2:	9b09      	ldr	r3, [sp, #36]	; 0x24
  4018a4:	f023 0302 	bic.w	r3, r3, #2
  4018a8:	9309      	str	r3, [sp, #36]	; 0x24
  4018aa:	9b09      	ldr	r3, [sp, #36]	; 0x24
  4018ac:	6313      	str	r3, [r2, #48]	; 0x30
  4018ae:	4613      	mov	r3, r2
  4018b0:	6b1a      	ldr	r2, [r3, #48]	; 0x30
  4018b2:	f012 0f02 	tst.w	r2, #2
  4018b6:	d1fb      	bne.n	4018b0 <UDP_Handler+0x374>
  4018b8:	e68d      	b.n	4015d6 <UDP_Handler+0x9a>
  4018ba:	4b51      	ldr	r3, [pc, #324]	; (401a00 <UDP_Handler+0x4c4>)
  4018bc:	4798      	blx	r3
  4018be:	4a4b      	ldr	r2, [pc, #300]	; (4019ec <UDP_Handler+0x4b0>)
  4018c0:	6b13      	ldr	r3, [r2, #48]	; 0x30
  4018c2:	930a      	str	r3, [sp, #40]	; 0x28
  4018c4:	9b0a      	ldr	r3, [sp, #40]	; 0x28
  4018c6:	f043 034f 	orr.w	r3, r3, #79	; 0x4f
  4018ca:	930a      	str	r3, [sp, #40]	; 0x28
  4018cc:	9b0a      	ldr	r3, [sp, #40]	; 0x28
  4018ce:	f023 0302 	bic.w	r3, r3, #2
  4018d2:	930a      	str	r3, [sp, #40]	; 0x28
  4018d4:	9b0a      	ldr	r3, [sp, #40]	; 0x28
  4018d6:	6313      	str	r3, [r2, #48]	; 0x30
  4018d8:	4613      	mov	r3, r2
  4018da:	6b1a      	ldr	r2, [r3, #48]	; 0x30
  4018dc:	f012 0f02 	tst.w	r2, #2
  4018e0:	d1fb      	bne.n	4018da <UDP_Handler+0x39e>
  4018e2:	e678      	b.n	4015d6 <UDP_Handler+0x9a>
  4018e4:	4a47      	ldr	r2, [pc, #284]	; (401a04 <UDP_Handler+0x4c8>)
  4018e6:	2301      	movs	r3, #1
  4018e8:	f8df e100 	ldr.w	lr, [pc, #256]	; 4019ec <UDP_Handler+0x4b0>
  4018ec:	4618      	mov	r0, r3
  4018ee:	e17f      	b.n	401bf0 <UDP_Handler+0x6b4>
  4018f0:	eb07 0287 	add.w	r2, r7, r7, lsl #2
  4018f4:	4b43      	ldr	r3, [pc, #268]	; (401a04 <UDP_Handler+0x4c8>)
  4018f6:	eb03 0382 	add.w	r3, r3, r2, lsl #2
  4018fa:	f8b3 a010 	ldrh.w	sl, [r3, #16]
  4018fe:	f3ca 0a09 	ubfx	sl, sl, #0, #10
  401902:	6b23      	ldr	r3, [r4, #48]	; 0x30
  401904:	f3c3 490a 	ubfx	r9, r3, #16, #11
  401908:	f1b9 0f00 	cmp.w	r9, #0
  40190c:	f000 81df 	beq.w	401cce <UDP_Handler+0x792>
  401910:	4b3c      	ldr	r3, [pc, #240]	; (401a04 <UDP_Handler+0x4c8>)
  401912:	eb03 0382 	add.w	r3, r3, r2, lsl #2
  401916:	f8d3 e008 	ldr.w	lr, [r3, #8]
  40191a:	68da      	ldr	r2, [r3, #12]
  40191c:	ebae 0002 	sub.w	r0, lr, r2
  401920:	6859      	ldr	r1, [r3, #4]
  401922:	4548      	cmp	r0, r9
  401924:	f240 81c7 	bls.w	401cb6 <UDP_Handler+0x77a>
  401928:	eb07 0087 	add.w	r0, r7, r7, lsl #2
  40192c:	4b35      	ldr	r3, [pc, #212]	; (401a04 <UDP_Handler+0x4c8>)
  40192e:	eb03 0380 	add.w	r3, r3, r0, lsl #2
  401932:	eb02 0009 	add.w	r0, r2, r9
  401936:	60d8      	str	r0, [r3, #12]
  401938:	4648      	mov	r0, r9
  40193a:	f04f 0b00 	mov.w	fp, #0
  40193e:	4411      	add	r1, r2
  401940:	460b      	mov	r3, r1
  401942:	6d22      	ldr	r2, [r4, #80]	; 0x50
  401944:	f803 2b01 	strb.w	r2, [r3], #1
  401948:	1a5a      	subs	r2, r3, r1
  40194a:	4282      	cmp	r2, r0
  40194c:	d3f9      	bcc.n	401942 <UDP_Handler+0x406>
  40194e:	4630      	mov	r0, r6
  401950:	4b2d      	ldr	r3, [pc, #180]	; (401a08 <UDP_Handler+0x4cc>)
  401952:	4798      	blx	r3
  401954:	f1bb 0f00 	cmp.w	fp, #0
  401958:	f000 81bc 	beq.w	401cd4 <UDP_Handler+0x798>
  40195c:	6b23      	ldr	r3, [r4, #48]	; 0x30
  40195e:	f013 0f20 	tst.w	r3, #32
  401962:	f47f ae38 	bne.w	4015d6 <UDP_Handler+0x9a>
  401966:	4b21      	ldr	r3, [pc, #132]	; (4019ec <UDP_Handler+0x4b0>)
  401968:	615d      	str	r5, [r3, #20]
  40196a:	4b26      	ldr	r3, [pc, #152]	; (401a04 <UDP_Handler+0x4c8>)
  40196c:	00ba      	lsls	r2, r7, #2
  40196e:	19d1      	adds	r1, r2, r7
  401970:	eb03 0181 	add.w	r1, r3, r1, lsl #2
  401974:	68cb      	ldr	r3, [r1, #12]
  401976:	608b      	str	r3, [r1, #8]
  401978:	4632      	mov	r2, r6
  40197a:	2100      	movs	r1, #0
  40197c:	4640      	mov	r0, r8
  40197e:	4b23      	ldr	r3, [pc, #140]	; (401a0c <UDP_Handler+0x4d0>)
  401980:	4798      	blx	r3
  401982:	e628      	b.n	4015d6 <UDP_Handler+0x9a>
  401984:	eb07 0287 	add.w	r2, r7, r7, lsl #2
  401988:	4b1e      	ldr	r3, [pc, #120]	; (401a04 <UDP_Handler+0x4c8>)
  40198a:	eb03 0282 	add.w	r2, r3, r2, lsl #2
  40198e:	7c53      	ldrb	r3, [r2, #17]
  401990:	f3c3 0181 	ubfx	r1, r3, #2, #2
  401994:	3103      	adds	r1, #3
  401996:	f361 0383 	bfi	r3, r1, #2, #2
  40199a:	7453      	strb	r3, [r2, #17]
  40199c:	7c53      	ldrb	r3, [r2, #17]
  40199e:	f013 0f20 	tst.w	r3, #32
  4019a2:	d05f      	beq.n	401a64 <UDP_Handler+0x528>
  4019a4:	f013 0f0c 	tst.w	r3, #12
  4019a8:	d032      	beq.n	401a10 <UDP_Handler+0x4d4>
  4019aa:	6b23      	ldr	r3, [r4, #48]	; 0x30
  4019ac:	930c      	str	r3, [sp, #48]	; 0x30
  4019ae:	9b0c      	ldr	r3, [sp, #48]	; 0x30
  4019b0:	f043 034f 	orr.w	r3, r3, #79	; 0x4f
  4019b4:	930c      	str	r3, [sp, #48]	; 0x30
  4019b6:	9b0c      	ldr	r3, [sp, #48]	; 0x30
  4019b8:	f043 0310 	orr.w	r3, r3, #16
  4019bc:	930c      	str	r3, [sp, #48]	; 0x30
  4019be:	9b0c      	ldr	r3, [sp, #48]	; 0x30
  4019c0:	6323      	str	r3, [r4, #48]	; 0x30
  4019c2:	6b23      	ldr	r3, [r4, #48]	; 0x30
  4019c4:	f013 0f10 	tst.w	r3, #16
  4019c8:	d0fb      	beq.n	4019c2 <UDP_Handler+0x486>
  4019ca:	6b23      	ldr	r3, [r4, #48]	; 0x30
  4019cc:	930d      	str	r3, [sp, #52]	; 0x34
  4019ce:	9b0d      	ldr	r3, [sp, #52]	; 0x34
  4019d0:	f043 034f 	orr.w	r3, r3, #79	; 0x4f
  4019d4:	930d      	str	r3, [sp, #52]	; 0x34
  4019d6:	9b0d      	ldr	r3, [sp, #52]	; 0x34
  4019d8:	f023 0301 	bic.w	r3, r3, #1
  4019dc:	930d      	str	r3, [sp, #52]	; 0x34
  4019de:	9b0d      	ldr	r3, [sp, #52]	; 0x34
  4019e0:	6323      	str	r3, [r4, #48]	; 0x30
  4019e2:	6b23      	ldr	r3, [r4, #48]	; 0x30
  4019e4:	f013 0f01 	tst.w	r3, #1
  4019e8:	d1fb      	bne.n	4019e2 <UDP_Handler+0x4a6>
  4019ea:	e5f4      	b.n	4015d6 <UDP_Handler+0x9a>
  4019ec:	40034000 	.word	0x40034000
  4019f0:	20000e4c 	.word	0x20000e4c
  4019f4:	20000da2 	.word	0x20000da2
  4019f8:	00401075 	.word	0x00401075
  4019fc:	20000da4 	.word	0x20000da4
  401a00:	0040103d 	.word	0x0040103d
  401a04:	20000da8 	.word	0x20000da8
  401a08:	004012b5 	.word	0x004012b5
  401a0c:	00401275 	.word	0x00401275
  401a10:	6b23      	ldr	r3, [r4, #48]	; 0x30
  401a12:	930e      	str	r3, [sp, #56]	; 0x38
  401a14:	9b0e      	ldr	r3, [sp, #56]	; 0x38
  401a16:	f043 034f 	orr.w	r3, r3, #79	; 0x4f
  401a1a:	930e      	str	r3, [sp, #56]	; 0x38
  401a1c:	9b0e      	ldr	r3, [sp, #56]	; 0x38
  401a1e:	f023 0301 	bic.w	r3, r3, #1
  401a22:	930e      	str	r3, [sp, #56]	; 0x38
  401a24:	9b0e      	ldr	r3, [sp, #56]	; 0x38
  401a26:	6323      	str	r3, [r4, #48]	; 0x30
  401a28:	6b23      	ldr	r3, [r4, #48]	; 0x30
  401a2a:	f013 0f01 	tst.w	r3, #1
  401a2e:	d1fb      	bne.n	401a28 <UDP_Handler+0x4ec>
  401a30:	6b23      	ldr	r3, [r4, #48]	; 0x30
  401a32:	930f      	str	r3, [sp, #60]	; 0x3c
  401a34:	9b0f      	ldr	r3, [sp, #60]	; 0x3c
  401a36:	f043 034f 	orr.w	r3, r3, #79	; 0x4f
  401a3a:	930f      	str	r3, [sp, #60]	; 0x3c
  401a3c:	9b0f      	ldr	r3, [sp, #60]	; 0x3c
  401a3e:	f043 0320 	orr.w	r3, r3, #32
  401a42:	930f      	str	r3, [sp, #60]	; 0x3c
  401a44:	9b0f      	ldr	r3, [sp, #60]	; 0x3c
  401a46:	6323      	str	r3, [r4, #48]	; 0x30
  401a48:	6b23      	ldr	r3, [r4, #48]	; 0x30
  401a4a:	f013 0f20 	tst.w	r3, #32
  401a4e:	d0fb      	beq.n	401a48 <UDP_Handler+0x50c>
  401a50:	eb07 0787 	add.w	r7, r7, r7, lsl #2
  401a54:	4ba1      	ldr	r3, [pc, #644]	; (401cdc <UDP_Handler+0x7a0>)
  401a56:	eb03 0387 	add.w	r3, r3, r7, lsl #2
  401a5a:	7c5a      	ldrb	r2, [r3, #17]
  401a5c:	f36f 1245 	bfc	r2, #5, #1
  401a60:	745a      	strb	r2, [r3, #17]
  401a62:	e5b8      	b.n	4015d6 <UDP_Handler+0x9a>
  401a64:	f013 0f80 	tst.w	r3, #128	; 0x80
  401a68:	d138      	bne.n	401adc <UDP_Handler+0x5a0>
  401a6a:	eb07 0287 	add.w	r2, r7, r7, lsl #2
  401a6e:	4b9b      	ldr	r3, [pc, #620]	; (401cdc <UDP_Handler+0x7a0>)
  401a70:	eb03 0382 	add.w	r3, r3, r2, lsl #2
  401a74:	68da      	ldr	r2, [r3, #12]
  401a76:	689b      	ldr	r3, [r3, #8]
  401a78:	429a      	cmp	r2, r3
  401a7a:	d341      	bcc.n	401b00 <UDP_Handler+0x5c4>
  401a7c:	eb07 0287 	add.w	r2, r7, r7, lsl #2
  401a80:	4b96      	ldr	r3, [pc, #600]	; (401cdc <UDP_Handler+0x7a0>)
  401a82:	eb03 0382 	add.w	r3, r3, r2, lsl #2
  401a86:	7c5b      	ldrb	r3, [r3, #17]
  401a88:	f013 0f4c 	tst.w	r3, #76	; 0x4c
  401a8c:	d138      	bne.n	401b00 <UDP_Handler+0x5c4>
  401a8e:	f3ef 8310 	mrs	r3, PRIMASK
  401a92:	fab3 f383 	clz	r3, r3
  401a96:	095b      	lsrs	r3, r3, #5
  401a98:	9310      	str	r3, [sp, #64]	; 0x40
  401a9a:	b672      	cpsid	i
  401a9c:	f3bf 8f5f 	dmb	sy
  401aa0:	2200      	movs	r2, #0
  401aa2:	4b8f      	ldr	r3, [pc, #572]	; (401ce0 <UDP_Handler+0x7a4>)
  401aa4:	701a      	strb	r2, [r3, #0]
  401aa6:	9b10      	ldr	r3, [sp, #64]	; 0x40
  401aa8:	4a8e      	ldr	r2, [pc, #568]	; (401ce4 <UDP_Handler+0x7a8>)
  401aaa:	6155      	str	r5, [r2, #20]
  401aac:	b12b      	cbz	r3, 401aba <UDP_Handler+0x57e>
  401aae:	2201      	movs	r2, #1
  401ab0:	4b8b      	ldr	r3, [pc, #556]	; (401ce0 <UDP_Handler+0x7a4>)
  401ab2:	701a      	strb	r2, [r3, #0]
  401ab4:	f3bf 8f5f 	dmb	sy
  401ab8:	b662      	cpsie	i
  401aba:	6b23      	ldr	r3, [r4, #48]	; 0x30
  401abc:	9311      	str	r3, [sp, #68]	; 0x44
  401abe:	9b11      	ldr	r3, [sp, #68]	; 0x44
  401ac0:	f043 034f 	orr.w	r3, r3, #79	; 0x4f
  401ac4:	9311      	str	r3, [sp, #68]	; 0x44
  401ac6:	9b11      	ldr	r3, [sp, #68]	; 0x44
  401ac8:	f023 0301 	bic.w	r3, r3, #1
  401acc:	9311      	str	r3, [sp, #68]	; 0x44
  401ace:	9b11      	ldr	r3, [sp, #68]	; 0x44
  401ad0:	6323      	str	r3, [r4, #48]	; 0x30
  401ad2:	6b23      	ldr	r3, [r4, #48]	; 0x30
  401ad4:	f013 0f01 	tst.w	r3, #1
  401ad8:	d1fb      	bne.n	401ad2 <UDP_Handler+0x596>
  401ada:	e57c      	b.n	4015d6 <UDP_Handler+0x9a>
  401adc:	2314      	movs	r3, #20
  401ade:	4a7f      	ldr	r2, [pc, #508]	; (401cdc <UDP_Handler+0x7a0>)
  401ae0:	fb03 2307 	mla	r3, r3, r7, r2
  401ae4:	7c59      	ldrb	r1, [r3, #17]
  401ae6:	f36f 11c7 	bfc	r1, #7, #1
  401aea:	7459      	strb	r1, [r3, #17]
  401aec:	68da      	ldr	r2, [r3, #12]
  401aee:	609a      	str	r2, [r3, #8]
  401af0:	4b7c      	ldr	r3, [pc, #496]	; (401ce4 <UDP_Handler+0x7a8>)
  401af2:	615d      	str	r5, [r3, #20]
  401af4:	4632      	mov	r2, r6
  401af6:	2100      	movs	r1, #0
  401af8:	4640      	mov	r0, r8
  401afa:	4b7b      	ldr	r3, [pc, #492]	; (401ce8 <UDP_Handler+0x7ac>)
  401afc:	4798      	blx	r3
  401afe:	e7b4      	b.n	401a6a <UDP_Handler+0x52e>
  401b00:	2e00      	cmp	r6, #0
  401b02:	d05b      	beq.n	401bbc <UDP_Handler+0x680>
  401b04:	2e03      	cmp	r6, #3
  401b06:	d059      	beq.n	401bbc <UDP_Handler+0x680>
  401b08:	eb07 0287 	add.w	r2, r7, r7, lsl #2
  401b0c:	4b73      	ldr	r3, [pc, #460]	; (401cdc <UDP_Handler+0x7a0>)
  401b0e:	eb03 0382 	add.w	r3, r3, r2, lsl #2
  401b12:	7c5b      	ldrb	r3, [r3, #17]
  401b14:	f013 0f0c 	tst.w	r3, #12
  401b18:	d024      	beq.n	401b64 <UDP_Handler+0x628>
  401b1a:	6b23      	ldr	r3, [r4, #48]	; 0x30
  401b1c:	9312      	str	r3, [sp, #72]	; 0x48
  401b1e:	9b12      	ldr	r3, [sp, #72]	; 0x48
  401b20:	f043 034f 	orr.w	r3, r3, #79	; 0x4f
  401b24:	9312      	str	r3, [sp, #72]	; 0x48
  401b26:	9b12      	ldr	r3, [sp, #72]	; 0x48
  401b28:	f043 0310 	orr.w	r3, r3, #16
  401b2c:	9312      	str	r3, [sp, #72]	; 0x48
  401b2e:	9b12      	ldr	r3, [sp, #72]	; 0x48
  401b30:	6323      	str	r3, [r4, #48]	; 0x30
  401b32:	6b23      	ldr	r3, [r4, #48]	; 0x30
  401b34:	f013 0f10 	tst.w	r3, #16
  401b38:	d0fb      	beq.n	401b32 <UDP_Handler+0x5f6>
  401b3a:	6b23      	ldr	r3, [r4, #48]	; 0x30
  401b3c:	9313      	str	r3, [sp, #76]	; 0x4c
  401b3e:	9b13      	ldr	r3, [sp, #76]	; 0x4c
  401b40:	f043 034f 	orr.w	r3, r3, #79	; 0x4f
  401b44:	9313      	str	r3, [sp, #76]	; 0x4c
  401b46:	9b13      	ldr	r3, [sp, #76]	; 0x4c
  401b48:	f023 0301 	bic.w	r3, r3, #1
  401b4c:	9313      	str	r3, [sp, #76]	; 0x4c
  401b4e:	9b13      	ldr	r3, [sp, #76]	; 0x4c
  401b50:	6323      	str	r3, [r4, #48]	; 0x30
  401b52:	6b23      	ldr	r3, [r4, #48]	; 0x30
  401b54:	f013 0f01 	tst.w	r3, #1
  401b58:	d1fb      	bne.n	401b52 <UDP_Handler+0x616>
  401b5a:	2100      	movs	r1, #0
  401b5c:	4630      	mov	r0, r6
  401b5e:	4b63      	ldr	r3, [pc, #396]	; (401cec <UDP_Handler+0x7b0>)
  401b60:	4798      	blx	r3
  401b62:	e538      	b.n	4015d6 <UDP_Handler+0x9a>
  401b64:	2101      	movs	r1, #1
  401b66:	4630      	mov	r0, r6
  401b68:	4b60      	ldr	r3, [pc, #384]	; (401cec <UDP_Handler+0x7b0>)
  401b6a:	4798      	blx	r3
  401b6c:	b1a0      	cbz	r0, 401b98 <UDP_Handler+0x65c>
  401b6e:	6b23      	ldr	r3, [r4, #48]	; 0x30
  401b70:	9314      	str	r3, [sp, #80]	; 0x50
  401b72:	9b14      	ldr	r3, [sp, #80]	; 0x50
  401b74:	f043 034f 	orr.w	r3, r3, #79	; 0x4f
  401b78:	9314      	str	r3, [sp, #80]	; 0x50
  401b7a:	9b14      	ldr	r3, [sp, #80]	; 0x50
  401b7c:	f023 0301 	bic.w	r3, r3, #1
  401b80:	9314      	str	r3, [sp, #80]	; 0x50
  401b82:	9b14      	ldr	r3, [sp, #80]	; 0x50
  401b84:	6323      	str	r3, [r4, #48]	; 0x30
  401b86:	6b23      	ldr	r3, [r4, #48]	; 0x30
  401b88:	f013 0f01 	tst.w	r3, #1
  401b8c:	d1fb      	bne.n	401b86 <UDP_Handler+0x64a>
  401b8e:	2100      	movs	r1, #0
  401b90:	4630      	mov	r0, r6
  401b92:	4b56      	ldr	r3, [pc, #344]	; (401cec <UDP_Handler+0x7b0>)
  401b94:	4798      	blx	r3
  401b96:	e51e      	b.n	4015d6 <UDP_Handler+0x9a>
  401b98:	2314      	movs	r3, #20
  401b9a:	4a50      	ldr	r2, [pc, #320]	; (401cdc <UDP_Handler+0x7a0>)
  401b9c:	fb03 2707 	mla	r7, r3, r7, r2
  401ba0:	7c7a      	ldrb	r2, [r7, #17]
  401ba2:	f36f 12c7 	bfc	r2, #7, #1
  401ba6:	747a      	strb	r2, [r7, #17]
  401ba8:	68fb      	ldr	r3, [r7, #12]
  401baa:	60bb      	str	r3, [r7, #8]
  401bac:	4b4d      	ldr	r3, [pc, #308]	; (401ce4 <UDP_Handler+0x7a8>)
  401bae:	615d      	str	r5, [r3, #20]
  401bb0:	4632      	mov	r2, r6
  401bb2:	2100      	movs	r1, #0
  401bb4:	4640      	mov	r0, r8
  401bb6:	4b4c      	ldr	r3, [pc, #304]	; (401ce8 <UDP_Handler+0x7ac>)
  401bb8:	4798      	blx	r3
  401bba:	e7d8      	b.n	401b6e <UDP_Handler+0x632>
  401bbc:	2101      	movs	r1, #1
  401bbe:	4630      	mov	r0, r6
  401bc0:	4b4a      	ldr	r3, [pc, #296]	; (401cec <UDP_Handler+0x7b0>)
  401bc2:	4798      	blx	r3
  401bc4:	6b23      	ldr	r3, [r4, #48]	; 0x30
  401bc6:	9315      	str	r3, [sp, #84]	; 0x54
  401bc8:	9b15      	ldr	r3, [sp, #84]	; 0x54
  401bca:	f043 034f 	orr.w	r3, r3, #79	; 0x4f
  401bce:	9315      	str	r3, [sp, #84]	; 0x54
  401bd0:	9b15      	ldr	r3, [sp, #84]	; 0x54
  401bd2:	f023 0301 	bic.w	r3, r3, #1
  401bd6:	9315      	str	r3, [sp, #84]	; 0x54
  401bd8:	9b15      	ldr	r3, [sp, #84]	; 0x54
  401bda:	6323      	str	r3, [r4, #48]	; 0x30
  401bdc:	6b23      	ldr	r3, [r4, #48]	; 0x30
  401bde:	f013 0f01 	tst.w	r3, #1
  401be2:	d1fb      	bne.n	401bdc <UDP_Handler+0x6a0>
  401be4:	e4f7      	b.n	4015d6 <UDP_Handler+0x9a>
  401be6:	3301      	adds	r3, #1
  401be8:	3214      	adds	r2, #20
  401bea:	2b04      	cmp	r3, #4
  401bec:	f000 8086 	beq.w	401cfc <UDP_Handler+0x7c0>
  401bf0:	b2de      	uxtb	r6, r3
  401bf2:	f8de 1018 	ldr.w	r1, [lr, #24]
  401bf6:	fa00 f503 	lsl.w	r5, r0, r3
  401bfa:	4229      	tst	r1, r5
  401bfc:	d0f3      	beq.n	401be6 <UDP_Handler+0x6aa>
  401bfe:	1e5f      	subs	r7, r3, #1
  401c00:	4690      	mov	r8, r2
  401c02:	009c      	lsls	r4, r3, #2
  401c04:	f104 2440 	add.w	r4, r4, #1073758208	; 0x40004000
  401c08:	f504 3440 	add.w	r4, r4, #196608	; 0x30000
  401c0c:	6b21      	ldr	r1, [r4, #48]	; 0x30
  401c0e:	f011 0f42 	tst.w	r1, #66	; 0x42
  401c12:	f47f ae6d 	bne.w	4018f0 <UDP_Handler+0x3b4>
  401c16:	6b21      	ldr	r1, [r4, #48]	; 0x30
  401c18:	f011 0f01 	tst.w	r1, #1
  401c1c:	f47f aeb2 	bne.w	401984 <UDP_Handler+0x448>
  401c20:	6b21      	ldr	r1, [r4, #48]	; 0x30
  401c22:	f011 0f08 	tst.w	r1, #8
  401c26:	d0de      	beq.n	401be6 <UDP_Handler+0x6aa>
  401c28:	6b23      	ldr	r3, [r4, #48]	; 0x30
  401c2a:	9316      	str	r3, [sp, #88]	; 0x58
  401c2c:	9b16      	ldr	r3, [sp, #88]	; 0x58
  401c2e:	f043 034f 	orr.w	r3, r3, #79	; 0x4f
  401c32:	9316      	str	r3, [sp, #88]	; 0x58
  401c34:	9b16      	ldr	r3, [sp, #88]	; 0x58
  401c36:	f023 0308 	bic.w	r3, r3, #8
  401c3a:	9316      	str	r3, [sp, #88]	; 0x58
  401c3c:	9b16      	ldr	r3, [sp, #88]	; 0x58
  401c3e:	6323      	str	r3, [r4, #48]	; 0x30
  401c40:	6b23      	ldr	r3, [r4, #48]	; 0x30
  401c42:	f013 0f08 	tst.w	r3, #8
  401c46:	d1fb      	bne.n	401c40 <UDP_Handler+0x704>
  401c48:	6b23      	ldr	r3, [r4, #48]	; 0x30
  401c4a:	f403 63e0 	and.w	r3, r3, #1792	; 0x700
  401c4e:	f5b3 7f80 	cmp.w	r3, #256	; 0x100
  401c52:	f43f acc0 	beq.w	4015d6 <UDP_Handler+0x9a>
  401c56:	6b23      	ldr	r3, [r4, #48]	; 0x30
  401c58:	e4bd      	b.n	4015d6 <UDP_Handler+0x9a>
  401c5a:	4b22      	ldr	r3, [pc, #136]	; (401ce4 <UDP_Handler+0x7a8>)
  401c5c:	69db      	ldr	r3, [r3, #28]
  401c5e:	f413 5f00 	tst.w	r3, #8192	; 0x2000
  401c62:	d050      	beq.n	401d06 <UDP_Handler+0x7ca>
  401c64:	4c1f      	ldr	r4, [pc, #124]	; (401ce4 <UDP_Handler+0x7a8>)
  401c66:	f44f 5318 	mov.w	r3, #9728	; 0x2600
  401c6a:	6223      	str	r3, [r4, #32]
  401c6c:	6163      	str	r3, [r4, #20]
  401c6e:	2001      	movs	r0, #1
  401c70:	4b1f      	ldr	r3, [pc, #124]	; (401cf0 <UDP_Handler+0x7b4>)
  401c72:	4798      	blx	r3
  401c74:	f44f 7380 	mov.w	r3, #256	; 0x100
  401c78:	6223      	str	r3, [r4, #32]
  401c7a:	6123      	str	r3, [r4, #16]
  401c7c:	f44f 6300 	mov.w	r3, #2048	; 0x800
  401c80:	6123      	str	r3, [r4, #16]
  401c82:	e4a8      	b.n	4015d6 <UDP_Handler+0x9a>
  401c84:	4b17      	ldr	r3, [pc, #92]	; (401ce4 <UDP_Handler+0x7a8>)
  401c86:	f44f 7280 	mov.w	r2, #256	; 0x100
  401c8a:	621a      	str	r2, [r3, #32]
  401c8c:	615a      	str	r2, [r3, #20]
  401c8e:	f44f 5200 	mov.w	r2, #8192	; 0x2000
  401c92:	611a      	str	r2, [r3, #16]
  401c94:	f44f 7200 	mov.w	r2, #512	; 0x200
  401c98:	611a      	str	r2, [r3, #16]
  401c9a:	f44f 6280 	mov.w	r2, #1024	; 0x400
  401c9e:	611a      	str	r2, [r3, #16]
  401ca0:	2022      	movs	r0, #34	; 0x22
  401ca2:	4b14      	ldr	r3, [pc, #80]	; (401cf4 <UDP_Handler+0x7b8>)
  401ca4:	4798      	blx	r3
  401ca6:	2000      	movs	r0, #0
  401ca8:	4b11      	ldr	r3, [pc, #68]	; (401cf0 <UDP_Handler+0x7b4>)
  401caa:	4798      	blx	r3
  401cac:	e493      	b.n	4015d6 <UDP_Handler+0x9a>
  401cae:	4630      	mov	r0, r6
  401cb0:	4b11      	ldr	r3, [pc, #68]	; (401cf8 <UDP_Handler+0x7bc>)
  401cb2:	4798      	blx	r3
  401cb4:	e652      	b.n	40195c <UDP_Handler+0x420>
  401cb6:	eb07 0c87 	add.w	ip, r7, r7, lsl #2
  401cba:	4b08      	ldr	r3, [pc, #32]	; (401cdc <UDP_Handler+0x7a0>)
  401cbc:	eb03 038c 	add.w	r3, r3, ip, lsl #2
  401cc0:	f8c3 e00c 	str.w	lr, [r3, #12]
  401cc4:	2800      	cmp	r0, #0
  401cc6:	d0f2      	beq.n	401cae <UDP_Handler+0x772>
  401cc8:	f04f 0b01 	mov.w	fp, #1
  401ccc:	e637      	b.n	40193e <UDP_Handler+0x402>
  401cce:	4630      	mov	r0, r6
  401cd0:	4b09      	ldr	r3, [pc, #36]	; (401cf8 <UDP_Handler+0x7bc>)
  401cd2:	4798      	blx	r3
  401cd4:	45ca      	cmp	sl, r9
  401cd6:	f63f ae41 	bhi.w	40195c <UDP_Handler+0x420>
  401cda:	e47c      	b.n	4015d6 <UDP_Handler+0x9a>
  401cdc:	20000da8 	.word	0x20000da8
  401ce0:	20000200 	.word	0x20000200
  401ce4:	40034000 	.word	0x40034000
  401ce8:	00401275 	.word	0x00401275
  401cec:	00401389 	.word	0x00401389
  401cf0:	00400f81 	.word	0x00400f81
  401cf4:	00403241 	.word	0x00403241
  401cf8:	004012b5 	.word	0x004012b5
  401cfc:	4b4b      	ldr	r3, [pc, #300]	; (401e2c <UDP_Handler+0x8f0>)
  401cfe:	699b      	ldr	r3, [r3, #24]
  401d00:	f413 5f00 	tst.w	r3, #8192	; 0x2000
  401d04:	d1a9      	bne.n	401c5a <UDP_Handler+0x71e>
  401d06:	4b49      	ldr	r3, [pc, #292]	; (401e2c <UDP_Handler+0x8f0>)
  401d08:	699b      	ldr	r3, [r3, #24]
  401d0a:	f413 7f00 	tst.w	r3, #512	; 0x200
  401d0e:	d004      	beq.n	401d1a <UDP_Handler+0x7de>
  401d10:	4b46      	ldr	r3, [pc, #280]	; (401e2c <UDP_Handler+0x8f0>)
  401d12:	69db      	ldr	r3, [r3, #28]
  401d14:	f413 7f00 	tst.w	r3, #512	; 0x200
  401d18:	d1a4      	bne.n	401c64 <UDP_Handler+0x728>
  401d1a:	4b44      	ldr	r3, [pc, #272]	; (401e2c <UDP_Handler+0x8f0>)
  401d1c:	699b      	ldr	r3, [r3, #24]
  401d1e:	f413 6f80 	tst.w	r3, #1024	; 0x400
  401d22:	d004      	beq.n	401d2e <UDP_Handler+0x7f2>
  401d24:	4b41      	ldr	r3, [pc, #260]	; (401e2c <UDP_Handler+0x8f0>)
  401d26:	69db      	ldr	r3, [r3, #28]
  401d28:	f413 6f80 	tst.w	r3, #1024	; 0x400
  401d2c:	d19a      	bne.n	401c64 <UDP_Handler+0x728>
  401d2e:	4b3f      	ldr	r3, [pc, #252]	; (401e2c <UDP_Handler+0x8f0>)
  401d30:	699b      	ldr	r3, [r3, #24]
  401d32:	f413 7f80 	tst.w	r3, #256	; 0x100
  401d36:	d004      	beq.n	401d42 <UDP_Handler+0x806>
  401d38:	4b3c      	ldr	r3, [pc, #240]	; (401e2c <UDP_Handler+0x8f0>)
  401d3a:	69db      	ldr	r3, [r3, #28]
  401d3c:	f413 7f80 	tst.w	r3, #256	; 0x100
  401d40:	d1a0      	bne.n	401c84 <UDP_Handler+0x748>
  401d42:	4b3a      	ldr	r3, [pc, #232]	; (401e2c <UDP_Handler+0x8f0>)
  401d44:	69db      	ldr	r3, [r3, #28]
  401d46:	f413 5f80 	tst.w	r3, #4096	; 0x1000
  401d4a:	f43f ac44 	beq.w	4015d6 <UDP_Handler+0x9a>
  401d4e:	4c37      	ldr	r4, [pc, #220]	; (401e2c <UDP_Handler+0x8f0>)
  401d50:	f44f 5380 	mov.w	r3, #4096	; 0x1000
  401d54:	6223      	str	r3, [r4, #32]
  401d56:	4e36      	ldr	r6, [pc, #216]	; (401e30 <UDP_Handler+0x8f4>)
  401d58:	2201      	movs	r2, #1
  401d5a:	4611      	mov	r1, r2
  401d5c:	4630      	mov	r0, r6
  401d5e:	4d35      	ldr	r5, [pc, #212]	; (401e34 <UDP_Handler+0x8f8>)
  401d60:	47a8      	blx	r5
  401d62:	2202      	movs	r2, #2
  401d64:	2101      	movs	r1, #1
  401d66:	f106 0014 	add.w	r0, r6, #20
  401d6a:	47a8      	blx	r5
  401d6c:	2203      	movs	r2, #3
  401d6e:	2101      	movs	r1, #1
  401d70:	f106 0028 	add.w	r0, r6, #40	; 0x28
  401d74:	47a8      	blx	r5
  401d76:	4b30      	ldr	r3, [pc, #192]	; (401e38 <UDP_Handler+0x8fc>)
  401d78:	4798      	blx	r3
  401d7a:	6863      	ldr	r3, [r4, #4]
  401d7c:	f023 0301 	bic.w	r3, r3, #1
  401d80:	6063      	str	r3, [r4, #4]
  401d82:	6863      	ldr	r3, [r4, #4]
  401d84:	f023 0302 	bic.w	r3, r3, #2
  401d88:	6063      	str	r3, [r4, #4]
  401d8a:	68a3      	ldr	r3, [r4, #8]
  401d8c:	f443 7380 	orr.w	r3, r3, #256	; 0x100
  401d90:	60a3      	str	r3, [r4, #8]
  401d92:	68a3      	ldr	r3, [r4, #8]
  401d94:	f023 037f 	bic.w	r3, r3, #127	; 0x7f
  401d98:	60a3      	str	r3, [r4, #8]
  401d9a:	6b23      	ldr	r3, [r4, #48]	; 0x30
  401d9c:	9318      	str	r3, [sp, #96]	; 0x60
  401d9e:	9b18      	ldr	r3, [sp, #96]	; 0x60
  401da0:	f043 034f 	orr.w	r3, r3, #79	; 0x4f
  401da4:	9318      	str	r3, [sp, #96]	; 0x60
  401da6:	9b18      	ldr	r3, [sp, #96]	; 0x60
  401da8:	f423 4307 	bic.w	r3, r3, #34560	; 0x8700
  401dac:	f023 0380 	bic.w	r3, r3, #128	; 0x80
  401db0:	9318      	str	r3, [sp, #96]	; 0x60
  401db2:	9b18      	ldr	r3, [sp, #96]	; 0x60
  401db4:	f443 4300 	orr.w	r3, r3, #32768	; 0x8000
  401db8:	9318      	str	r3, [sp, #96]	; 0x60
  401dba:	9b18      	ldr	r3, [sp, #96]	; 0x60
  401dbc:	6323      	str	r3, [r4, #48]	; 0x30
  401dbe:	4622      	mov	r2, r4
  401dc0:	6b13      	ldr	r3, [r2, #48]	; 0x30
  401dc2:	f413 4f00 	tst.w	r3, #32768	; 0x8000
  401dc6:	d0fb      	beq.n	401dc0 <UDP_Handler+0x884>
  401dc8:	4a18      	ldr	r2, [pc, #96]	; (401e2c <UDP_Handler+0x8f0>)
  401dca:	6b13      	ldr	r3, [r2, #48]	; 0x30
  401dcc:	9319      	str	r3, [sp, #100]	; 0x64
  401dce:	9b19      	ldr	r3, [sp, #100]	; 0x64
  401dd0:	f043 034f 	orr.w	r3, r3, #79	; 0x4f
  401dd4:	9319      	str	r3, [sp, #100]	; 0x64
  401dd6:	9b19      	ldr	r3, [sp, #100]	; 0x64
  401dd8:	f443 4300 	orr.w	r3, r3, #32768	; 0x8000
  401ddc:	9319      	str	r3, [sp, #100]	; 0x64
  401dde:	9b19      	ldr	r3, [sp, #100]	; 0x64
  401de0:	6313      	str	r3, [r2, #48]	; 0x30
  401de2:	6b13      	ldr	r3, [r2, #48]	; 0x30
  401de4:	f413 4f00 	tst.w	r3, #32768	; 0x8000
  401de8:	d0fb      	beq.n	401de2 <UDP_Handler+0x8a6>
  401dea:	f3ef 8310 	mrs	r3, PRIMASK
  401dee:	fab3 f383 	clz	r3, r3
  401df2:	095b      	lsrs	r3, r3, #5
  401df4:	9317      	str	r3, [sp, #92]	; 0x5c
  401df6:	b672      	cpsid	i
  401df8:	f3bf 8f5f 	dmb	sy
  401dfc:	2200      	movs	r2, #0
  401dfe:	4b0f      	ldr	r3, [pc, #60]	; (401e3c <UDP_Handler+0x900>)
  401e00:	701a      	strb	r2, [r3, #0]
  401e02:	9b17      	ldr	r3, [sp, #92]	; 0x5c
  401e04:	2101      	movs	r1, #1
  401e06:	4a09      	ldr	r2, [pc, #36]	; (401e2c <UDP_Handler+0x8f0>)
  401e08:	6111      	str	r1, [r2, #16]
  401e0a:	b123      	cbz	r3, 401e16 <UDP_Handler+0x8da>
  401e0c:	4b0b      	ldr	r3, [pc, #44]	; (401e3c <UDP_Handler+0x900>)
  401e0e:	7019      	strb	r1, [r3, #0]
  401e10:	f3bf 8f5f 	dmb	sy
  401e14:	b662      	cpsie	i
  401e16:	4b0a      	ldr	r3, [pc, #40]	; (401e40 <UDP_Handler+0x904>)
  401e18:	4798      	blx	r3
  401e1a:	4b04      	ldr	r3, [pc, #16]	; (401e2c <UDP_Handler+0x8f0>)
  401e1c:	f44f 7280 	mov.w	r2, #256	; 0x100
  401e20:	611a      	str	r2, [r3, #16]
  401e22:	f44f 6200 	mov.w	r2, #2048	; 0x800
  401e26:	611a      	str	r2, [r3, #16]
  401e28:	f7ff bbd5 	b.w	4015d6 <UDP_Handler+0x9a>
  401e2c:	40034000 	.word	0x40034000
  401e30:	20000da8 	.word	0x20000da8
  401e34:	00401275 	.word	0x00401275
  401e38:	004009c1 	.word	0x004009c1
  401e3c:	20000200 	.word	0x20000200
  401e40:	00401025 	.word	0x00401025

00401e44 <udd_attach>:
  401e44:	b510      	push	{r4, lr}
  401e46:	b082      	sub	sp, #8
  401e48:	f3ef 8310 	mrs	r3, PRIMASK
  401e4c:	fab3 f383 	clz	r3, r3
  401e50:	095b      	lsrs	r3, r3, #5
  401e52:	9301      	str	r3, [sp, #4]
  401e54:	b672      	cpsid	i
  401e56:	f3bf 8f5f 	dmb	sy
  401e5a:	2200      	movs	r2, #0
  401e5c:	4b14      	ldr	r3, [pc, #80]	; (401eb0 <udd_attach+0x6c>)
  401e5e:	701a      	strb	r2, [r3, #0]
  401e60:	9c01      	ldr	r4, [sp, #4]
  401e62:	2001      	movs	r0, #1
  401e64:	4b13      	ldr	r3, [pc, #76]	; (401eb4 <udd_attach+0x70>)
  401e66:	4798      	blx	r3
  401e68:	2022      	movs	r0, #34	; 0x22
  401e6a:	4b13      	ldr	r3, [pc, #76]	; (401eb8 <udd_attach+0x74>)
  401e6c:	4798      	blx	r3
  401e6e:	4b13      	ldr	r3, [pc, #76]	; (401ebc <udd_attach+0x78>)
  401e70:	6f5a      	ldr	r2, [r3, #116]	; 0x74
  401e72:	f422 7280 	bic.w	r2, r2, #256	; 0x100
  401e76:	675a      	str	r2, [r3, #116]	; 0x74
  401e78:	6f5a      	ldr	r2, [r3, #116]	; 0x74
  401e7a:	f442 7200 	orr.w	r2, r2, #512	; 0x200
  401e7e:	675a      	str	r2, [r3, #116]	; 0x74
  401e80:	f44f 7280 	mov.w	r2, #256	; 0x100
  401e84:	611a      	str	r2, [r3, #16]
  401e86:	f44f 5200 	mov.w	r2, #8192	; 0x2000
  401e8a:	611a      	str	r2, [r3, #16]
  401e8c:	f44f 7200 	mov.w	r2, #512	; 0x200
  401e90:	611a      	str	r2, [r3, #16]
  401e92:	f44f 6280 	mov.w	r2, #1024	; 0x400
  401e96:	611a      	str	r2, [r3, #16]
  401e98:	f44f 6200 	mov.w	r2, #2048	; 0x800
  401e9c:	611a      	str	r2, [r3, #16]
  401e9e:	b12c      	cbz	r4, 401eac <udd_attach+0x68>
  401ea0:	2201      	movs	r2, #1
  401ea2:	4b03      	ldr	r3, [pc, #12]	; (401eb0 <udd_attach+0x6c>)
  401ea4:	701a      	strb	r2, [r3, #0]
  401ea6:	f3bf 8f5f 	dmb	sy
  401eaa:	b662      	cpsie	i
  401eac:	b002      	add	sp, #8
  401eae:	bd10      	pop	{r4, pc}
  401eb0:	20000200 	.word	0x20000200
  401eb4:	00400f81 	.word	0x00400f81
  401eb8:	004031ed 	.word	0x004031ed
  401ebc:	40034000 	.word	0x40034000

00401ec0 <udd_enable>:
  401ec0:	b530      	push	{r4, r5, lr}
  401ec2:	b083      	sub	sp, #12
  401ec4:	f3ef 8310 	mrs	r3, PRIMASK
  401ec8:	fab3 f383 	clz	r3, r3
  401ecc:	095b      	lsrs	r3, r3, #5
  401ece:	9300      	str	r3, [sp, #0]
  401ed0:	b672      	cpsid	i
  401ed2:	f3bf 8f5f 	dmb	sy
  401ed6:	2400      	movs	r4, #0
  401ed8:	4b27      	ldr	r3, [pc, #156]	; (401f78 <udd_enable+0xb8>)
  401eda:	701c      	strb	r4, [r3, #0]
  401edc:	9d00      	ldr	r5, [sp, #0]
  401ede:	2022      	movs	r0, #34	; 0x22
  401ee0:	4b26      	ldr	r3, [pc, #152]	; (401f7c <udd_enable+0xbc>)
  401ee2:	4798      	blx	r3
  401ee4:	4b26      	ldr	r3, [pc, #152]	; (401f80 <udd_enable+0xc0>)
  401ee6:	4798      	blx	r3
  401ee8:	4b26      	ldr	r3, [pc, #152]	; (401f84 <udd_enable+0xc4>)
  401eea:	2250      	movs	r2, #80	; 0x50
  401eec:	f883 2322 	strb.w	r2, [r3, #802]	; 0x322
  401ef0:	2204      	movs	r2, #4
  401ef2:	605a      	str	r2, [r3, #4]
  401ef4:	4623      	mov	r3, r4
  401ef6:	4824      	ldr	r0, [pc, #144]	; (401f88 <udd_enable+0xc8>)
  401ef8:	009a      	lsls	r2, r3, #2
  401efa:	18d1      	adds	r1, r2, r3
  401efc:	eb00 0181 	add.w	r1, r0, r1, lsl #2
  401f00:	7c49      	ldrb	r1, [r1, #17]
  401f02:	441a      	add	r2, r3
  401f04:	eb00 0282 	add.w	r2, r0, r2, lsl #2
  401f08:	f001 0183 	and.w	r1, r1, #131	; 0x83
  401f0c:	f36f 11c7 	bfc	r1, #7, #1
  401f10:	7451      	strb	r1, [r2, #17]
  401f12:	3301      	adds	r3, #1
  401f14:	2b03      	cmp	r3, #3
  401f16:	d1ef      	bne.n	401ef8 <udd_enable+0x38>
  401f18:	f44f 2080 	mov.w	r0, #262144	; 0x40000
  401f1c:	4b1b      	ldr	r3, [pc, #108]	; (401f8c <udd_enable+0xcc>)
  401f1e:	4798      	blx	r3
  401f20:	2200      	movs	r2, #0
  401f22:	4b1b      	ldr	r3, [pc, #108]	; (401f90 <udd_enable+0xd0>)
  401f24:	701a      	strb	r2, [r3, #0]
  401f26:	4b1b      	ldr	r3, [pc, #108]	; (401f94 <udd_enable+0xd4>)
  401f28:	781b      	ldrb	r3, [r3, #0]
  401f2a:	2bff      	cmp	r3, #255	; 0xff
  401f2c:	d022      	beq.n	401f74 <udd_enable+0xb4>
  401f2e:	f3ef 8310 	mrs	r3, PRIMASK
  401f32:	fab3 f383 	clz	r3, r3
  401f36:	095b      	lsrs	r3, r3, #5
  401f38:	9301      	str	r3, [sp, #4]
  401f3a:	b672      	cpsid	i
  401f3c:	f3bf 8f5f 	dmb	sy
  401f40:	2200      	movs	r2, #0
  401f42:	4b0d      	ldr	r3, [pc, #52]	; (401f78 <udd_enable+0xb8>)
  401f44:	701a      	strb	r2, [r3, #0]
  401f46:	9901      	ldr	r1, [sp, #4]
  401f48:	4a12      	ldr	r2, [pc, #72]	; (401f94 <udd_enable+0xd4>)
  401f4a:	7813      	ldrb	r3, [r2, #0]
  401f4c:	3301      	adds	r3, #1
  401f4e:	7013      	strb	r3, [r2, #0]
  401f50:	b129      	cbz	r1, 401f5e <udd_enable+0x9e>
  401f52:	2201      	movs	r2, #1
  401f54:	4b08      	ldr	r3, [pc, #32]	; (401f78 <udd_enable+0xb8>)
  401f56:	701a      	strb	r2, [r3, #0]
  401f58:	f3bf 8f5f 	dmb	sy
  401f5c:	b662      	cpsie	i
  401f5e:	4b0e      	ldr	r3, [pc, #56]	; (401f98 <udd_enable+0xd8>)
  401f60:	4798      	blx	r3
  401f62:	b12d      	cbz	r5, 401f70 <udd_enable+0xb0>
  401f64:	2201      	movs	r2, #1
  401f66:	4b04      	ldr	r3, [pc, #16]	; (401f78 <udd_enable+0xb8>)
  401f68:	701a      	strb	r2, [r3, #0]
  401f6a:	f3bf 8f5f 	dmb	sy
  401f6e:	b662      	cpsie	i
  401f70:	b003      	add	sp, #12
  401f72:	bd30      	pop	{r4, r5, pc}
  401f74:	e7fe      	b.n	401f74 <udd_enable+0xb4>
  401f76:	bf00      	nop
  401f78:	20000200 	.word	0x20000200
  401f7c:	004031ed 	.word	0x004031ed
  401f80:	00402f3d 	.word	0x00402f3d
  401f84:	e000e100 	.word	0xe000e100
  401f88:	20000da8 	.word	0x20000da8
  401f8c:	004032b5 	.word	0x004032b5
  401f90:	20000da1 	.word	0x20000da1
  401f94:	20000e44 	.word	0x20000e44
  401f98:	00401e45 	.word	0x00401e45

00401f9c <udd_is_high_speed>:
  401f9c:	2000      	movs	r0, #0
  401f9e:	4770      	bx	lr

00401fa0 <udd_set_address>:
  401fa0:	4b0d      	ldr	r3, [pc, #52]	; (401fd8 <udd_set_address+0x38>)
  401fa2:	685a      	ldr	r2, [r3, #4]
  401fa4:	f022 0201 	bic.w	r2, r2, #1
  401fa8:	605a      	str	r2, [r3, #4]
  401faa:	689a      	ldr	r2, [r3, #8]
  401fac:	f422 7280 	bic.w	r2, r2, #256	; 0x100
  401fb0:	609a      	str	r2, [r3, #8]
  401fb2:	4602      	mov	r2, r0
  401fb4:	b170      	cbz	r0, 401fd4 <udd_set_address+0x34>
  401fb6:	6898      	ldr	r0, [r3, #8]
  401fb8:	f020 007f 	bic.w	r0, r0, #127	; 0x7f
  401fbc:	f002 027f 	and.w	r2, r2, #127	; 0x7f
  401fc0:	4310      	orrs	r0, r2
  401fc2:	6098      	str	r0, [r3, #8]
  401fc4:	689a      	ldr	r2, [r3, #8]
  401fc6:	f442 7280 	orr.w	r2, r2, #256	; 0x100
  401fca:	609a      	str	r2, [r3, #8]
  401fcc:	685a      	ldr	r2, [r3, #4]
  401fce:	f042 0201 	orr.w	r2, r2, #1
  401fd2:	605a      	str	r2, [r3, #4]
  401fd4:	4770      	bx	lr
  401fd6:	bf00      	nop
  401fd8:	40034000 	.word	0x40034000

00401fdc <udd_getaddress>:
  401fdc:	4b05      	ldr	r3, [pc, #20]	; (401ff4 <udd_getaddress+0x18>)
  401fde:	685b      	ldr	r3, [r3, #4]
  401fe0:	f013 0f01 	tst.w	r3, #1
  401fe4:	bf1d      	ittte	ne
  401fe6:	4b03      	ldrne	r3, [pc, #12]	; (401ff4 <udd_getaddress+0x18>)
  401fe8:	6898      	ldrne	r0, [r3, #8]
  401fea:	f000 007f 	andne.w	r0, r0, #127	; 0x7f
  401fee:	2000      	moveq	r0, #0
  401ff0:	4770      	bx	lr
  401ff2:	bf00      	nop
  401ff4:	40034000 	.word	0x40034000

00401ff8 <udd_get_frame_number>:
  401ff8:	4b02      	ldr	r3, [pc, #8]	; (402004 <udd_get_frame_number+0xc>)
  401ffa:	6818      	ldr	r0, [r3, #0]
  401ffc:	f3c0 000a 	ubfx	r0, r0, #0, #11
  402000:	4770      	bx	lr
  402002:	bf00      	nop
  402004:	40034000 	.word	0x40034000

00402008 <udd_get_micro_frame_number>:
  402008:	2000      	movs	r0, #0
  40200a:	4770      	bx	lr

0040200c <udd_set_setup_payload>:
  40200c:	4b01      	ldr	r3, [pc, #4]	; (402014 <udd_set_setup_payload+0x8>)
  40200e:	6098      	str	r0, [r3, #8]
  402010:	8199      	strh	r1, [r3, #12]
  402012:	4770      	bx	lr
  402014:	20000e4c 	.word	0x20000e4c

00402018 <udd_ep_alloc>:
  402018:	b5f0      	push	{r4, r5, r6, r7, lr}
  40201a:	b083      	sub	sp, #12
  40201c:	f000 040f 	and.w	r4, r0, #15
  402020:	2c03      	cmp	r4, #3
  402022:	d867      	bhi.n	4020f4 <udd_ep_alloc+0xdc>
  402024:	00a3      	lsls	r3, r4, #2
  402026:	f103 2340 	add.w	r3, r3, #1073758208	; 0x40004000
  40202a:	f503 3340 	add.w	r3, r3, #196608	; 0x30000
  40202e:	6b1d      	ldr	r5, [r3, #48]	; 0x30
  402030:	f415 4f00 	tst.w	r5, #32768	; 0x8000
  402034:	d161      	bne.n	4020fa <udd_ep_alloc+0xe2>
  402036:	f001 0503 	and.w	r5, r1, #3
  40203a:	2d01      	cmp	r5, #1
  40203c:	d050      	beq.n	4020e0 <udd_ep_alloc+0xc8>
  40203e:	1f25      	subs	r5, r4, #4
  402040:	b2ed      	uxtb	r5, r5
  402042:	2d02      	cmp	r5, #2
  402044:	bf34      	ite	cc
  402046:	f44f 7500 	movcc.w	r5, #512	; 0x200
  40204a:	2540      	movcs	r5, #64	; 0x40
  40204c:	4295      	cmp	r5, r2
  40204e:	db58      	blt.n	402102 <udd_ep_alloc+0xea>
  402050:	b240      	sxtb	r0, r0
  402052:	1e66      	subs	r6, r4, #1
  402054:	eb06 0786 	add.w	r7, r6, r6, lsl #2
  402058:	4d2b      	ldr	r5, [pc, #172]	; (402108 <udd_ep_alloc+0xf0>)
  40205a:	eb05 0587 	add.w	r5, r5, r7, lsl #2
  40205e:	f105 0710 	add.w	r7, r5, #16
  402062:	f8b5 e010 	ldrh.w	lr, [r5, #16]
  402066:	f362 0e09 	bfi	lr, r2, #0, #10
  40206a:	f8a5 e010 	strh.w	lr, [r5, #16]
  40206e:	7c6a      	ldrb	r2, [r5, #17]
  402070:	f002 027f 	and.w	r2, r2, #127	; 0x7f
  402074:	f36f 1245 	bfc	r2, #5, #1
  402078:	746a      	strb	r2, [r5, #17]
  40207a:	2800      	cmp	r0, #0
  40207c:	db35      	blt.n	4020ea <udd_ep_alloc+0xd2>
  40207e:	4e23      	ldr	r6, [pc, #140]	; (40210c <udd_ep_alloc+0xf4>)
  402080:	6ab5      	ldr	r5, [r6, #40]	; 0x28
  402082:	2201      	movs	r2, #1
  402084:	fa02 f404 	lsl.w	r4, r2, r4
  402088:	4325      	orrs	r5, r4
  40208a:	62b5      	str	r5, [r6, #40]	; 0x28
  40208c:	4635      	mov	r5, r6
  40208e:	6aaa      	ldr	r2, [r5, #40]	; 0x28
  402090:	4214      	tst	r4, r2
  402092:	d0fc      	beq.n	40208e <udd_ep_alloc+0x76>
  402094:	4d1d      	ldr	r5, [pc, #116]	; (40210c <udd_ep_alloc+0xf4>)
  402096:	6aaa      	ldr	r2, [r5, #40]	; 0x28
  402098:	ea22 0404 	bic.w	r4, r2, r4
  40209c:	62ac      	str	r4, [r5, #40]	; 0x28
  40209e:	6b1a      	ldr	r2, [r3, #48]	; 0x30
  4020a0:	9201      	str	r2, [sp, #4]
  4020a2:	9a01      	ldr	r2, [sp, #4]
  4020a4:	f042 024f 	orr.w	r2, r2, #79	; 0x4f
  4020a8:	9201      	str	r2, [sp, #4]
  4020aa:	9a01      	ldr	r2, [sp, #4]
  4020ac:	f422 4207 	bic.w	r2, r2, #34560	; 0x8700
  4020b0:	f022 0280 	bic.w	r2, r2, #128	; 0x80
  4020b4:	9201      	str	r2, [sp, #4]
  4020b6:	2800      	cmp	r0, #0
  4020b8:	ea4f 2201 	mov.w	r2, r1, lsl #8
  4020bc:	f402 7240 	and.w	r2, r2, #768	; 0x300
  4020c0:	bfb4      	ite	lt
  4020c2:	f442 4204 	orrlt.w	r2, r2, #33792	; 0x8400
  4020c6:	f442 4200 	orrge.w	r2, r2, #32768	; 0x8000
  4020ca:	9901      	ldr	r1, [sp, #4]
  4020cc:	4311      	orrs	r1, r2
  4020ce:	9101      	str	r1, [sp, #4]
  4020d0:	9901      	ldr	r1, [sp, #4]
  4020d2:	6319      	str	r1, [r3, #48]	; 0x30
  4020d4:	6b19      	ldr	r1, [r3, #48]	; 0x30
  4020d6:	ea32 0101 	bics.w	r1, r2, r1
  4020da:	d1fb      	bne.n	4020d4 <udd_ep_alloc+0xbc>
  4020dc:	2001      	movs	r0, #1
  4020de:	e00a      	b.n	4020f6 <udd_ep_alloc+0xde>
  4020e0:	b16c      	cbz	r4, 4020fe <udd_ep_alloc+0xe6>
  4020e2:	2c03      	cmp	r4, #3
  4020e4:	d1ab      	bne.n	40203e <udd_ep_alloc+0x26>
  4020e6:	2000      	movs	r0, #0
  4020e8:	e005      	b.n	4020f6 <udd_ep_alloc+0xde>
  4020ea:	787a      	ldrb	r2, [r7, #1]
  4020ec:	f36f 0283 	bfc	r2, #2, #2
  4020f0:	707a      	strb	r2, [r7, #1]
  4020f2:	e7c4      	b.n	40207e <udd_ep_alloc+0x66>
  4020f4:	2000      	movs	r0, #0
  4020f6:	b003      	add	sp, #12
  4020f8:	bdf0      	pop	{r4, r5, r6, r7, pc}
  4020fa:	2000      	movs	r0, #0
  4020fc:	e7fb      	b.n	4020f6 <udd_ep_alloc+0xde>
  4020fe:	2000      	movs	r0, #0
  402100:	e7f9      	b.n	4020f6 <udd_ep_alloc+0xde>
  402102:	2000      	movs	r0, #0
  402104:	e7f7      	b.n	4020f6 <udd_ep_alloc+0xde>
  402106:	bf00      	nop
  402108:	20000da8 	.word	0x20000da8
  40210c:	40034000 	.word	0x40034000

00402110 <udd_ep_free>:
  402110:	f000 020f 	and.w	r2, r0, #15
  402114:	2a03      	cmp	r2, #3
  402116:	d822      	bhi.n	40215e <udd_ep_free+0x4e>
  402118:	b500      	push	{lr}
  40211a:	b083      	sub	sp, #12
  40211c:	0091      	lsls	r1, r2, #2
  40211e:	f101 2140 	add.w	r1, r1, #1073758208	; 0x40004000
  402122:	f501 3140 	add.w	r1, r1, #196608	; 0x30000
  402126:	6b0b      	ldr	r3, [r1, #48]	; 0x30
  402128:	9301      	str	r3, [sp, #4]
  40212a:	9b01      	ldr	r3, [sp, #4]
  40212c:	f043 034f 	orr.w	r3, r3, #79	; 0x4f
  402130:	9301      	str	r3, [sp, #4]
  402132:	9b01      	ldr	r3, [sp, #4]
  402134:	f423 4300 	bic.w	r3, r3, #32768	; 0x8000
  402138:	9301      	str	r3, [sp, #4]
  40213a:	9b01      	ldr	r3, [sp, #4]
  40213c:	630b      	str	r3, [r1, #48]	; 0x30
  40213e:	6b0b      	ldr	r3, [r1, #48]	; 0x30
  402140:	f413 4f00 	tst.w	r3, #32768	; 0x8000
  402144:	d1fb      	bne.n	40213e <udd_ep_free+0x2e>
  402146:	1e50      	subs	r0, r2, #1
  402148:	eb00 0080 	add.w	r0, r0, r0, lsl #2
  40214c:	2101      	movs	r1, #1
  40214e:	4b04      	ldr	r3, [pc, #16]	; (402160 <udd_ep_free+0x50>)
  402150:	eb03 0080 	add.w	r0, r3, r0, lsl #2
  402154:	4b03      	ldr	r3, [pc, #12]	; (402164 <udd_ep_free+0x54>)
  402156:	4798      	blx	r3
  402158:	b003      	add	sp, #12
  40215a:	f85d fb04 	ldr.w	pc, [sp], #4
  40215e:	4770      	bx	lr
  402160:	20000da8 	.word	0x20000da8
  402164:	00401275 	.word	0x00401275

00402168 <udd_ep_is_halted>:
  402168:	f000 000f 	and.w	r0, r0, #15
  40216c:	2803      	cmp	r0, #3
  40216e:	d815      	bhi.n	40219c <udd_ep_is_halted+0x34>
  402170:	1e43      	subs	r3, r0, #1
  402172:	eb03 0383 	add.w	r3, r3, r3, lsl #2
  402176:	4a0a      	ldr	r2, [pc, #40]	; (4021a0 <udd_ep_is_halted+0x38>)
  402178:	eb02 0383 	add.w	r3, r2, r3, lsl #2
  40217c:	7c5b      	ldrb	r3, [r3, #17]
  40217e:	f013 0f20 	tst.w	r3, #32
  402182:	d109      	bne.n	402198 <udd_ep_is_halted+0x30>
  402184:	300c      	adds	r0, #12
  402186:	4b07      	ldr	r3, [pc, #28]	; (4021a4 <udd_ep_is_halted+0x3c>)
  402188:	f853 3020 	ldr.w	r3, [r3, r0, lsl #2]
  40218c:	f013 0f28 	tst.w	r3, #40	; 0x28
  402190:	bf14      	ite	ne
  402192:	2001      	movne	r0, #1
  402194:	2000      	moveq	r0, #0
  402196:	4770      	bx	lr
  402198:	2001      	movs	r0, #1
  40219a:	4770      	bx	lr
  40219c:	2000      	movs	r0, #0
  40219e:	4770      	bx	lr
  4021a0:	20000da8 	.word	0x20000da8
  4021a4:	40034000 	.word	0x40034000

004021a8 <udd_ep_set_halt>:
  4021a8:	f000 010f 	and.w	r1, r0, #15
  4021ac:	2903      	cmp	r1, #3
  4021ae:	d85f      	bhi.n	402270 <udd_ep_set_halt+0xc8>
  4021b0:	b410      	push	{r4}
  4021b2:	b083      	sub	sp, #12
  4021b4:	f3ef 8310 	mrs	r3, PRIMASK
  4021b8:	fab3 f383 	clz	r3, r3
  4021bc:	095b      	lsrs	r3, r3, #5
  4021be:	9301      	str	r3, [sp, #4]
  4021c0:	b672      	cpsid	i
  4021c2:	f3bf 8f5f 	dmb	sy
  4021c6:	2200      	movs	r2, #0
  4021c8:	4b2c      	ldr	r3, [pc, #176]	; (40227c <udd_ep_set_halt+0xd4>)
  4021ca:	701a      	strb	r2, [r3, #0]
  4021cc:	9c01      	ldr	r4, [sp, #4]
  4021ce:	f010 0f80 	tst.w	r0, #128	; 0x80
  4021d2:	d124      	bne.n	40221e <udd_ep_set_halt+0x76>
  4021d4:	008a      	lsls	r2, r1, #2
  4021d6:	f102 2240 	add.w	r2, r2, #1073758208	; 0x40004000
  4021da:	f502 3240 	add.w	r2, r2, #196608	; 0x30000
  4021de:	6b13      	ldr	r3, [r2, #48]	; 0x30
  4021e0:	9300      	str	r3, [sp, #0]
  4021e2:	9b00      	ldr	r3, [sp, #0]
  4021e4:	f043 034f 	orr.w	r3, r3, #79	; 0x4f
  4021e8:	9300      	str	r3, [sp, #0]
  4021ea:	9b00      	ldr	r3, [sp, #0]
  4021ec:	f043 0320 	orr.w	r3, r3, #32
  4021f0:	9300      	str	r3, [sp, #0]
  4021f2:	9b00      	ldr	r3, [sp, #0]
  4021f4:	6313      	str	r3, [r2, #48]	; 0x30
  4021f6:	6b13      	ldr	r3, [r2, #48]	; 0x30
  4021f8:	f013 0f20 	tst.w	r3, #32
  4021fc:	d0fb      	beq.n	4021f6 <udd_ep_set_halt+0x4e>
  4021fe:	2301      	movs	r3, #1
  402200:	fa03 f101 	lsl.w	r1, r3, r1
  402204:	4b1e      	ldr	r3, [pc, #120]	; (402280 <udd_ep_set_halt+0xd8>)
  402206:	6119      	str	r1, [r3, #16]
  402208:	2c00      	cmp	r4, #0
  40220a:	d035      	beq.n	402278 <udd_ep_set_halt+0xd0>
  40220c:	2001      	movs	r0, #1
  40220e:	4b1b      	ldr	r3, [pc, #108]	; (40227c <udd_ep_set_halt+0xd4>)
  402210:	7018      	strb	r0, [r3, #0]
  402212:	f3bf 8f5f 	dmb	sy
  402216:	b662      	cpsie	i
  402218:	b003      	add	sp, #12
  40221a:	bc10      	pop	{r4}
  40221c:	4770      	bx	lr
  40221e:	1e4b      	subs	r3, r1, #1
  402220:	f101 020c 	add.w	r2, r1, #12
  402224:	4816      	ldr	r0, [pc, #88]	; (402280 <udd_ep_set_halt+0xd8>)
  402226:	f850 2022 	ldr.w	r2, [r0, r2, lsl #2]
  40222a:	f012 0f10 	tst.w	r2, #16
  40222e:	d109      	bne.n	402244 <udd_ep_set_halt+0x9c>
  402230:	eb03 0283 	add.w	r2, r3, r3, lsl #2
  402234:	4813      	ldr	r0, [pc, #76]	; (402284 <udd_ep_set_halt+0xdc>)
  402236:	eb00 0282 	add.w	r2, r0, r2, lsl #2
  40223a:	7c52      	ldrb	r2, [r2, #17]
  40223c:	f3c2 0281 	ubfx	r2, r2, #2, #2
  402240:	2a01      	cmp	r2, #1
  402242:	ddc7      	ble.n	4021d4 <udd_ep_set_halt+0x2c>
  402244:	eb03 0283 	add.w	r2, r3, r3, lsl #2
  402248:	4b0e      	ldr	r3, [pc, #56]	; (402284 <udd_ep_set_halt+0xdc>)
  40224a:	eb03 0382 	add.w	r3, r3, r2, lsl #2
  40224e:	7c5a      	ldrb	r2, [r3, #17]
  402250:	f042 0220 	orr.w	r2, r2, #32
  402254:	745a      	strb	r2, [r3, #17]
  402256:	2301      	movs	r3, #1
  402258:	fa03 f101 	lsl.w	r1, r3, r1
  40225c:	4b08      	ldr	r3, [pc, #32]	; (402280 <udd_ep_set_halt+0xd8>)
  40225e:	6119      	str	r1, [r3, #16]
  402260:	b144      	cbz	r4, 402274 <udd_ep_set_halt+0xcc>
  402262:	2001      	movs	r0, #1
  402264:	4b05      	ldr	r3, [pc, #20]	; (40227c <udd_ep_set_halt+0xd4>)
  402266:	7018      	strb	r0, [r3, #0]
  402268:	f3bf 8f5f 	dmb	sy
  40226c:	b662      	cpsie	i
  40226e:	e7d3      	b.n	402218 <udd_ep_set_halt+0x70>
  402270:	2000      	movs	r0, #0
  402272:	4770      	bx	lr
  402274:	2001      	movs	r0, #1
  402276:	e7cf      	b.n	402218 <udd_ep_set_halt+0x70>
  402278:	2001      	movs	r0, #1
  40227a:	e7cd      	b.n	402218 <udd_ep_set_halt+0x70>
  40227c:	20000200 	.word	0x20000200
  402280:	40034000 	.word	0x40034000
  402284:	20000da8 	.word	0x20000da8

00402288 <udd_ep_clear_halt>:
  402288:	f000 000f 	and.w	r0, r0, #15
  40228c:	2803      	cmp	r0, #3
  40228e:	d85e      	bhi.n	40234e <udd_ep_clear_halt+0xc6>
  402290:	b530      	push	{r4, r5, lr}
  402292:	b083      	sub	sp, #12
  402294:	1e44      	subs	r4, r0, #1
  402296:	eb04 0284 	add.w	r2, r4, r4, lsl #2
  40229a:	4b2f      	ldr	r3, [pc, #188]	; (402358 <udd_ep_clear_halt+0xd0>)
  40229c:	eb03 0382 	add.w	r3, r3, r2, lsl #2
  4022a0:	7c5a      	ldrb	r2, [r3, #17]
  4022a2:	f36f 1245 	bfc	r2, #5, #1
  4022a6:	745a      	strb	r2, [r3, #17]
  4022a8:	0083      	lsls	r3, r0, #2
  4022aa:	f103 2340 	add.w	r3, r3, #1073758208	; 0x40004000
  4022ae:	f503 3340 	add.w	r3, r3, #196608	; 0x30000
  4022b2:	6b1a      	ldr	r2, [r3, #48]	; 0x30
  4022b4:	f012 0f20 	tst.w	r2, #32
  4022b8:	d04b      	beq.n	402352 <udd_ep_clear_halt+0xca>
  4022ba:	6b1a      	ldr	r2, [r3, #48]	; 0x30
  4022bc:	9200      	str	r2, [sp, #0]
  4022be:	9a00      	ldr	r2, [sp, #0]
  4022c0:	f042 024f 	orr.w	r2, r2, #79	; 0x4f
  4022c4:	9200      	str	r2, [sp, #0]
  4022c6:	9a00      	ldr	r2, [sp, #0]
  4022c8:	f022 0220 	bic.w	r2, r2, #32
  4022cc:	9200      	str	r2, [sp, #0]
  4022ce:	9a00      	ldr	r2, [sp, #0]
  4022d0:	631a      	str	r2, [r3, #48]	; 0x30
  4022d2:	6b1a      	ldr	r2, [r3, #48]	; 0x30
  4022d4:	f012 0f20 	tst.w	r2, #32
  4022d8:	d1fb      	bne.n	4022d2 <udd_ep_clear_halt+0x4a>
  4022da:	4d20      	ldr	r5, [pc, #128]	; (40235c <udd_ep_clear_halt+0xd4>)
  4022dc:	6aa9      	ldr	r1, [r5, #40]	; 0x28
  4022de:	2201      	movs	r2, #1
  4022e0:	fa02 f000 	lsl.w	r0, r2, r0
  4022e4:	4301      	orrs	r1, r0
  4022e6:	62a9      	str	r1, [r5, #40]	; 0x28
  4022e8:	4629      	mov	r1, r5
  4022ea:	6a8a      	ldr	r2, [r1, #40]	; 0x28
  4022ec:	4210      	tst	r0, r2
  4022ee:	d0fc      	beq.n	4022ea <udd_ep_clear_halt+0x62>
  4022f0:	491a      	ldr	r1, [pc, #104]	; (40235c <udd_ep_clear_halt+0xd4>)
  4022f2:	6a8a      	ldr	r2, [r1, #40]	; 0x28
  4022f4:	ea22 0000 	bic.w	r0, r2, r0
  4022f8:	6288      	str	r0, [r1, #40]	; 0x28
  4022fa:	6b1a      	ldr	r2, [r3, #48]	; 0x30
  4022fc:	9201      	str	r2, [sp, #4]
  4022fe:	9a01      	ldr	r2, [sp, #4]
  402300:	f042 024f 	orr.w	r2, r2, #79	; 0x4f
  402304:	9201      	str	r2, [sp, #4]
  402306:	9a01      	ldr	r2, [sp, #4]
  402308:	f022 0208 	bic.w	r2, r2, #8
  40230c:	9201      	str	r2, [sp, #4]
  40230e:	9a01      	ldr	r2, [sp, #4]
  402310:	631a      	str	r2, [r3, #48]	; 0x30
  402312:	6b1a      	ldr	r2, [r3, #48]	; 0x30
  402314:	f012 0f08 	tst.w	r2, #8
  402318:	d1fb      	bne.n	402312 <udd_ep_clear_halt+0x8a>
  40231a:	eb04 0384 	add.w	r3, r4, r4, lsl #2
  40231e:	4a0e      	ldr	r2, [pc, #56]	; (402358 <udd_ep_clear_halt+0xd0>)
  402320:	eb02 0383 	add.w	r3, r2, r3, lsl #2
  402324:	7c5b      	ldrb	r3, [r3, #17]
  402326:	f013 0f10 	tst.w	r3, #16
  40232a:	d101      	bne.n	402330 <udd_ep_clear_halt+0xa8>
  40232c:	2001      	movs	r0, #1
  40232e:	e011      	b.n	402354 <udd_ep_clear_halt+0xcc>
  402330:	4611      	mov	r1, r2
  402332:	00a2      	lsls	r2, r4, #2
  402334:	1913      	adds	r3, r2, r4
  402336:	eb01 0383 	add.w	r3, r1, r3, lsl #2
  40233a:	7c58      	ldrb	r0, [r3, #17]
  40233c:	f36f 1004 	bfc	r0, #4, #1
  402340:	7458      	strb	r0, [r3, #17]
  402342:	4414      	add	r4, r2
  402344:	f851 3024 	ldr.w	r3, [r1, r4, lsl #2]
  402348:	4798      	blx	r3
  40234a:	2001      	movs	r0, #1
  40234c:	e002      	b.n	402354 <udd_ep_clear_halt+0xcc>
  40234e:	2000      	movs	r0, #0
  402350:	4770      	bx	lr
  402352:	2001      	movs	r0, #1
  402354:	b003      	add	sp, #12
  402356:	bd30      	pop	{r4, r5, pc}
  402358:	20000da8 	.word	0x20000da8
  40235c:	40034000 	.word	0x40034000

00402360 <udd_ep_run>:
  402360:	b5f0      	push	{r4, r5, r6, r7, lr}
  402362:	b083      	sub	sp, #12
  402364:	f000 070f 	and.w	r7, r0, #15
  402368:	2f03      	cmp	r7, #3
  40236a:	f200 80a2 	bhi.w	4024b2 <udd_ep_run+0x152>
  40236e:	00bc      	lsls	r4, r7, #2
  402370:	f104 2440 	add.w	r4, r4, #1073758208	; 0x40004000
  402374:	f504 3440 	add.w	r4, r4, #196608	; 0x30000
  402378:	6b25      	ldr	r5, [r4, #48]	; 0x30
  40237a:	f415 4f00 	tst.w	r5, #32768	; 0x8000
  40237e:	f000 809b 	beq.w	4024b8 <udd_ep_run+0x158>
  402382:	1e7d      	subs	r5, r7, #1
  402384:	eb05 0e85 	add.w	lr, r5, r5, lsl #2
  402388:	4e50      	ldr	r6, [pc, #320]	; (4024cc <udd_ep_run+0x16c>)
  40238a:	eb06 068e 	add.w	r6, r6, lr, lsl #2
  40238e:	7c76      	ldrb	r6, [r6, #17]
  402390:	f016 0f20 	tst.w	r6, #32
  402394:	f040 8092 	bne.w	4024bc <udd_ep_run+0x15c>
  402398:	6b26      	ldr	r6, [r4, #48]	; 0x30
  40239a:	f016 0f20 	tst.w	r6, #32
  40239e:	f040 808f 	bne.w	4024c0 <udd_ep_run+0x160>
  4023a2:	f3ef 8610 	mrs	r6, PRIMASK
  4023a6:	fab6 f686 	clz	r6, r6
  4023aa:	0976      	lsrs	r6, r6, #5
  4023ac:	9600      	str	r6, [sp, #0]
  4023ae:	b672      	cpsid	i
  4023b0:	f3bf 8f5f 	dmb	sy
  4023b4:	f04f 0e00 	mov.w	lr, #0
  4023b8:	4e45      	ldr	r6, [pc, #276]	; (4024d0 <udd_ep_run+0x170>)
  4023ba:	f886 e000 	strb.w	lr, [r6]
  4023be:	f8dd c000 	ldr.w	ip, [sp]
  4023c2:	eb05 0e85 	add.w	lr, r5, r5, lsl #2
  4023c6:	4e41      	ldr	r6, [pc, #260]	; (4024cc <udd_ep_run+0x16c>)
  4023c8:	eb06 068e 	add.w	r6, r6, lr, lsl #2
  4023cc:	7c76      	ldrb	r6, [r6, #17]
  4023ce:	f016 0f10 	tst.w	r6, #16
  4023d2:	d00a      	beq.n	4023ea <udd_ep_run+0x8a>
  4023d4:	f1bc 0f00 	cmp.w	ip, #0
  4023d8:	d074      	beq.n	4024c4 <udd_ep_run+0x164>
  4023da:	2201      	movs	r2, #1
  4023dc:	4b3c      	ldr	r3, [pc, #240]	; (4024d0 <udd_ep_run+0x170>)
  4023de:	701a      	strb	r2, [r3, #0]
  4023e0:	f3bf 8f5f 	dmb	sy
  4023e4:	b662      	cpsie	i
  4023e6:	2000      	movs	r0, #0
  4023e8:	e064      	b.n	4024b4 <udd_ep_run+0x154>
  4023ea:	eb05 0e85 	add.w	lr, r5, r5, lsl #2
  4023ee:	4e37      	ldr	r6, [pc, #220]	; (4024cc <udd_ep_run+0x16c>)
  4023f0:	eb06 068e 	add.w	r6, r6, lr, lsl #2
  4023f4:	f896 e011 	ldrb.w	lr, [r6, #17]
  4023f8:	f04e 0e10 	orr.w	lr, lr, #16
  4023fc:	f886 e011 	strb.w	lr, [r6, #17]
  402400:	f1bc 0f00 	cmp.w	ip, #0
  402404:	d007      	beq.n	402416 <udd_ep_run+0xb6>
  402406:	f04f 0e01 	mov.w	lr, #1
  40240a:	4e31      	ldr	r6, [pc, #196]	; (4024d0 <udd_ep_run+0x170>)
  40240c:	f886 e000 	strb.w	lr, [r6]
  402410:	f3bf 8f5f 	dmb	sy
  402414:	b662      	cpsie	i
  402416:	f8df c0b4 	ldr.w	ip, [pc, #180]	; 4024cc <udd_ep_run+0x16c>
  40241a:	eb05 0685 	add.w	r6, r5, r5, lsl #2
  40241e:	00b6      	lsls	r6, r6, #2
  402420:	eb0c 0e06 	add.w	lr, ip, r6
  402424:	f8ce 2004 	str.w	r2, [lr, #4]
  402428:	f8ce 3008 	str.w	r3, [lr, #8]
  40242c:	2200      	movs	r2, #0
  40242e:	f8ce 200c 	str.w	r2, [lr, #12]
  402432:	9a08      	ldr	r2, [sp, #32]
  402434:	f84c 2006 	str.w	r2, [ip, r6]
  402438:	b911      	cbnz	r1, 402440 <udd_ep_run+0xe0>
  40243a:	fab3 f183 	clz	r1, r3
  40243e:	0949      	lsrs	r1, r1, #5
  402440:	4a22      	ldr	r2, [pc, #136]	; (4024cc <udd_ep_run+0x16c>)
  402442:	00ae      	lsls	r6, r5, #2
  402444:	1973      	adds	r3, r6, r5
  402446:	eb02 0383 	add.w	r3, r2, r3, lsl #2
  40244a:	7c5b      	ldrb	r3, [r3, #17]
  40244c:	f361 1386 	bfi	r3, r1, #6, #1
  402450:	4435      	add	r5, r6
  402452:	eb02 0285 	add.w	r2, r2, r5, lsl #2
  402456:	f36f 13c7 	bfc	r3, #7, #1
  40245a:	7453      	strb	r3, [r2, #17]
  40245c:	f3ef 8310 	mrs	r3, PRIMASK
  402460:	fab3 f383 	clz	r3, r3
  402464:	095b      	lsrs	r3, r3, #5
  402466:	9301      	str	r3, [sp, #4]
  402468:	b672      	cpsid	i
  40246a:	f3bf 8f5f 	dmb	sy
  40246e:	2200      	movs	r2, #0
  402470:	4b17      	ldr	r3, [pc, #92]	; (4024d0 <udd_ep_run+0x170>)
  402472:	701a      	strb	r2, [r3, #0]
  402474:	9d01      	ldr	r5, [sp, #4]
  402476:	2301      	movs	r3, #1
  402478:	40bb      	lsls	r3, r7
  40247a:	4a16      	ldr	r2, [pc, #88]	; (4024d4 <udd_ep_run+0x174>)
  40247c:	6113      	str	r3, [r2, #16]
  40247e:	f010 0f80 	tst.w	r0, #128	; 0x80
  402482:	d107      	bne.n	402494 <udd_ep_run+0x134>
  402484:	b305      	cbz	r5, 4024c8 <udd_ep_run+0x168>
  402486:	2001      	movs	r0, #1
  402488:	4b11      	ldr	r3, [pc, #68]	; (4024d0 <udd_ep_run+0x170>)
  40248a:	7018      	strb	r0, [r3, #0]
  40248c:	f3bf 8f5f 	dmb	sy
  402490:	b662      	cpsie	i
  402492:	e00f      	b.n	4024b4 <udd_ep_run+0x154>
  402494:	6b23      	ldr	r3, [r4, #48]	; 0x30
  402496:	f013 0f11 	tst.w	r3, #17
  40249a:	d1f3      	bne.n	402484 <udd_ep_run+0x124>
  40249c:	2101      	movs	r1, #1
  40249e:	4638      	mov	r0, r7
  4024a0:	4b0d      	ldr	r3, [pc, #52]	; (4024d8 <udd_ep_run+0x178>)
  4024a2:	4798      	blx	r3
  4024a4:	2800      	cmp	r0, #0
  4024a6:	d0ed      	beq.n	402484 <udd_ep_run+0x124>
  4024a8:	2100      	movs	r1, #0
  4024aa:	4638      	mov	r0, r7
  4024ac:	4b0a      	ldr	r3, [pc, #40]	; (4024d8 <udd_ep_run+0x178>)
  4024ae:	4798      	blx	r3
  4024b0:	e7e8      	b.n	402484 <udd_ep_run+0x124>
  4024b2:	2000      	movs	r0, #0
  4024b4:	b003      	add	sp, #12
  4024b6:	bdf0      	pop	{r4, r5, r6, r7, pc}
  4024b8:	2000      	movs	r0, #0
  4024ba:	e7fb      	b.n	4024b4 <udd_ep_run+0x154>
  4024bc:	2000      	movs	r0, #0
  4024be:	e7f9      	b.n	4024b4 <udd_ep_run+0x154>
  4024c0:	2000      	movs	r0, #0
  4024c2:	e7f7      	b.n	4024b4 <udd_ep_run+0x154>
  4024c4:	2000      	movs	r0, #0
  4024c6:	e7f5      	b.n	4024b4 <udd_ep_run+0x154>
  4024c8:	2001      	movs	r0, #1
  4024ca:	e7f3      	b.n	4024b4 <udd_ep_run+0x154>
  4024cc:	20000da8 	.word	0x20000da8
  4024d0:	20000200 	.word	0x20000200
  4024d4:	40034000 	.word	0x40034000
  4024d8:	00401389 	.word	0x00401389

004024dc <udd_ep_abort>:
  4024dc:	b5f0      	push	{r4, r5, r6, r7, lr}
  4024de:	b087      	sub	sp, #28
  4024e0:	f000 050f 	and.w	r5, r0, #15
  4024e4:	2d03      	cmp	r5, #3
  4024e6:	d840      	bhi.n	40256a <udd_ep_abort+0x8e>
  4024e8:	f3ef 8310 	mrs	r3, PRIMASK
  4024ec:	fab3 f383 	clz	r3, r3
  4024f0:	095b      	lsrs	r3, r3, #5
  4024f2:	9305      	str	r3, [sp, #20]
  4024f4:	b672      	cpsid	i
  4024f6:	f3bf 8f5f 	dmb	sy
  4024fa:	2200      	movs	r2, #0
  4024fc:	4b4b      	ldr	r3, [pc, #300]	; (40262c <udd_ep_abort+0x150>)
  4024fe:	701a      	strb	r2, [r3, #0]
  402500:	9b05      	ldr	r3, [sp, #20]
  402502:	2401      	movs	r4, #1
  402504:	40ac      	lsls	r4, r5
  402506:	4a4a      	ldr	r2, [pc, #296]	; (402630 <udd_ep_abort+0x154>)
  402508:	6154      	str	r4, [r2, #20]
  40250a:	b12b      	cbz	r3, 402518 <udd_ep_abort+0x3c>
  40250c:	2201      	movs	r2, #1
  40250e:	4b47      	ldr	r3, [pc, #284]	; (40262c <udd_ep_abort+0x150>)
  402510:	701a      	strb	r2, [r3, #0]
  402512:	f3bf 8f5f 	dmb	sy
  402516:	b662      	cpsie	i
  402518:	f010 0f80 	tst.w	r0, #128	; 0x80
  40251c:	d127      	bne.n	40256e <udd_ep_abort+0x92>
  40251e:	00ae      	lsls	r6, r5, #2
  402520:	f106 2640 	add.w	r6, r6, #1073758208	; 0x40004000
  402524:	f506 3640 	add.w	r6, r6, #196608	; 0x30000
  402528:	6b33      	ldr	r3, [r6, #48]	; 0x30
  40252a:	f013 0f42 	tst.w	r3, #66	; 0x42
  40252e:	d006      	beq.n	40253e <udd_ep_abort+0x62>
  402530:	4f40      	ldr	r7, [pc, #256]	; (402634 <udd_ep_abort+0x158>)
  402532:	4628      	mov	r0, r5
  402534:	47b8      	blx	r7
  402536:	6b33      	ldr	r3, [r6, #48]	; 0x30
  402538:	f013 0f42 	tst.w	r3, #66	; 0x42
  40253c:	d1f9      	bne.n	402532 <udd_ep_abort+0x56>
  40253e:	4a3c      	ldr	r2, [pc, #240]	; (402630 <udd_ep_abort+0x154>)
  402540:	6a93      	ldr	r3, [r2, #40]	; 0x28
  402542:	4323      	orrs	r3, r4
  402544:	6293      	str	r3, [r2, #40]	; 0x28
  402546:	6a93      	ldr	r3, [r2, #40]	; 0x28
  402548:	421c      	tst	r4, r3
  40254a:	d0fc      	beq.n	402546 <udd_ep_abort+0x6a>
  40254c:	4a38      	ldr	r2, [pc, #224]	; (402630 <udd_ep_abort+0x154>)
  40254e:	6a93      	ldr	r3, [r2, #40]	; 0x28
  402550:	ea23 0404 	bic.w	r4, r3, r4
  402554:	6294      	str	r4, [r2, #40]	; 0x28
  402556:	1e68      	subs	r0, r5, #1
  402558:	eb00 0080 	add.w	r0, r0, r0, lsl #2
  40255c:	462a      	mov	r2, r5
  40255e:	2101      	movs	r1, #1
  402560:	4b35      	ldr	r3, [pc, #212]	; (402638 <udd_ep_abort+0x15c>)
  402562:	eb03 0080 	add.w	r0, r3, r0, lsl #2
  402566:	4b35      	ldr	r3, [pc, #212]	; (40263c <udd_ep_abort+0x160>)
  402568:	4798      	blx	r3
  40256a:	b007      	add	sp, #28
  40256c:	bdf0      	pop	{r4, r5, r6, r7, pc}
  40256e:	00ab      	lsls	r3, r5, #2
  402570:	f103 2340 	add.w	r3, r3, #1073758208	; 0x40004000
  402574:	f503 3340 	add.w	r3, r3, #196608	; 0x30000
  402578:	6b1a      	ldr	r2, [r3, #48]	; 0x30
  40257a:	f012 0f10 	tst.w	r2, #16
  40257e:	d03a      	beq.n	4025f6 <udd_ep_abort+0x11a>
  402580:	b34d      	cbz	r5, 4025d6 <udd_ep_abort+0xfa>
  402582:	2d03      	cmp	r5, #3
  402584:	d027      	beq.n	4025d6 <udd_ep_abort+0xfa>
  402586:	6b1a      	ldr	r2, [r3, #48]	; 0x30
  402588:	9201      	str	r2, [sp, #4]
  40258a:	9a01      	ldr	r2, [sp, #4]
  40258c:	f042 024f 	orr.w	r2, r2, #79	; 0x4f
  402590:	9201      	str	r2, [sp, #4]
  402592:	9a01      	ldr	r2, [sp, #4]
  402594:	f022 0210 	bic.w	r2, r2, #16
  402598:	9201      	str	r2, [sp, #4]
  40259a:	9a01      	ldr	r2, [sp, #4]
  40259c:	631a      	str	r2, [r3, #48]	; 0x30
  40259e:	6b1a      	ldr	r2, [r3, #48]	; 0x30
  4025a0:	f012 0f10 	tst.w	r2, #16
  4025a4:	d1fb      	bne.n	40259e <udd_ep_abort+0xc2>
  4025a6:	6b1a      	ldr	r2, [r3, #48]	; 0x30
  4025a8:	f012 0f10 	tst.w	r2, #16
  4025ac:	d1fb      	bne.n	4025a6 <udd_ep_abort+0xca>
  4025ae:	6b1a      	ldr	r2, [r3, #48]	; 0x30
  4025b0:	9202      	str	r2, [sp, #8]
  4025b2:	9a02      	ldr	r2, [sp, #8]
  4025b4:	f042 024f 	orr.w	r2, r2, #79	; 0x4f
  4025b8:	9202      	str	r2, [sp, #8]
  4025ba:	9a02      	ldr	r2, [sp, #8]
  4025bc:	f042 0210 	orr.w	r2, r2, #16
  4025c0:	9202      	str	r2, [sp, #8]
  4025c2:	9a02      	ldr	r2, [sp, #8]
  4025c4:	631a      	str	r2, [r3, #48]	; 0x30
  4025c6:	6b1a      	ldr	r2, [r3, #48]	; 0x30
  4025c8:	f012 0f10 	tst.w	r2, #16
  4025cc:	d0fb      	beq.n	4025c6 <udd_ep_abort+0xea>
  4025ce:	6b1a      	ldr	r2, [r3, #48]	; 0x30
  4025d0:	f012 0f10 	tst.w	r2, #16
  4025d4:	d0fb      	beq.n	4025ce <udd_ep_abort+0xf2>
  4025d6:	6b1a      	ldr	r2, [r3, #48]	; 0x30
  4025d8:	9203      	str	r2, [sp, #12]
  4025da:	9a03      	ldr	r2, [sp, #12]
  4025dc:	f042 024f 	orr.w	r2, r2, #79	; 0x4f
  4025e0:	9203      	str	r2, [sp, #12]
  4025e2:	9a03      	ldr	r2, [sp, #12]
  4025e4:	f022 0210 	bic.w	r2, r2, #16
  4025e8:	9203      	str	r2, [sp, #12]
  4025ea:	9a03      	ldr	r2, [sp, #12]
  4025ec:	631a      	str	r2, [r3, #48]	; 0x30
  4025ee:	6b1a      	ldr	r2, [r3, #48]	; 0x30
  4025f0:	f012 0f10 	tst.w	r2, #16
  4025f4:	d1fb      	bne.n	4025ee <udd_ep_abort+0x112>
  4025f6:	6b1a      	ldr	r2, [r3, #48]	; 0x30
  4025f8:	9204      	str	r2, [sp, #16]
  4025fa:	9a04      	ldr	r2, [sp, #16]
  4025fc:	f042 024f 	orr.w	r2, r2, #79	; 0x4f
  402600:	9204      	str	r2, [sp, #16]
  402602:	9a04      	ldr	r2, [sp, #16]
  402604:	f022 0201 	bic.w	r2, r2, #1
  402608:	9204      	str	r2, [sp, #16]
  40260a:	9a04      	ldr	r2, [sp, #16]
  40260c:	631a      	str	r2, [r3, #48]	; 0x30
  40260e:	6b1a      	ldr	r2, [r3, #48]	; 0x30
  402610:	f012 0f01 	tst.w	r2, #1
  402614:	d1fb      	bne.n	40260e <udd_ep_abort+0x132>
  402616:	1e6b      	subs	r3, r5, #1
  402618:	eb03 0283 	add.w	r2, r3, r3, lsl #2
  40261c:	4b06      	ldr	r3, [pc, #24]	; (402638 <udd_ep_abort+0x15c>)
  40261e:	eb03 0382 	add.w	r3, r3, r2, lsl #2
  402622:	7c5a      	ldrb	r2, [r3, #17]
  402624:	f36f 0283 	bfc	r2, #2, #2
  402628:	745a      	strb	r2, [r3, #17]
  40262a:	e788      	b.n	40253e <udd_ep_abort+0x62>
  40262c:	20000200 	.word	0x20000200
  402630:	40034000 	.word	0x40034000
  402634:	004012b5 	.word	0x004012b5
  402638:	20000da8 	.word	0x20000da8
  40263c:	00401275 	.word	0x00401275

00402640 <wdt_disable>:
  402640:	f44f 4300 	mov.w	r3, #32768	; 0x8000
  402644:	6043      	str	r3, [r0, #4]
  402646:	4770      	bx	lr

00402648 <init>:
** \brief     Initializes the USB interface.
** \param     settings Pointer to the USB interface settings.
**
****************************************************************************************/
uint8_t init(void *ptr) //initialize communication
{
  402648:	b508      	push	{r3, lr}
  /* Set result to false. */
  bool result = 0;
  /* USB stack, ASF */
  udc_start();
  40264a:	4b02      	ldr	r3, [pc, #8]	; (402654 <init+0xc>)
  40264c:	4798      	blx	r3
  result = 1;
  /* return result */
  return result;
} /*** end of init ***/
  40264e:	2001      	movs	r0, #1
  402650:	bd08      	pop	{r3, pc}
  402652:	bf00      	nop
  402654:	004009b5 	.word	0x004009b5

00402658 <available>:
** \brief     Return length of data in receive buffer.
** \return    Length of data in receive buffer.
**
****************************************************************************************/
uint8_t available()
{
  402658:	b508      	push	{r3, lr}
  return udi_cdc_get_nb_received_data();
  40265a:	4b02      	ldr	r3, [pc, #8]	; (402664 <available+0xc>)
  40265c:	4798      	blx	r3
} /*** end of available ***/
  40265e:	b2c0      	uxtb	r0, r0
  402660:	bd08      	pop	{r3, pc}
  402662:	bf00      	nop
  402664:	00400429 	.word	0x00400429

00402668 <read>:
** \brief     Return char from receive buffer.
** \return    Return next uint8_t from buffer.
**
****************************************************************************************/
uint8_t read()
{
  402668:	b508      	push	{r3, lr}
  return udi_cdc_getc();
  40266a:	4b02      	ldr	r3, [pc, #8]	; (402674 <read+0xc>)
  40266c:	4798      	blx	r3
} /*** end of read ***/
  40266e:	b2c0      	uxtb	r0, r0
  402670:	bd08      	pop	{r3, pc}
  402672:	bf00      	nop
  402674:	004006b1 	.word	0x004006b1

00402678 <write>:
** \brief     Write single char to interface.
** \return    Return result.
**
****************************************************************************************/
uint8_t write(const uint8_t *payload)
{
  402678:	b500      	push	{lr}
  40267a:	b083      	sub	sp, #12
  40267c:	ab02      	add	r3, sp, #8
  40267e:	f843 0d04 	str.w	r0, [r3, #-4]!
  return udi_cdc_write_buf(&payload, 1);
  402682:	2101      	movs	r1, #1
  402684:	4618      	mov	r0, r3
  402686:	4b03      	ldr	r3, [pc, #12]	; (402694 <write+0x1c>)
  402688:	4798      	blx	r3
} /*** end of write ***/
  40268a:	b2c0      	uxtb	r0, r0
  40268c:	b003      	add	sp, #12
  40268e:	f85d fb04 	ldr.w	pc, [sp], #4
  402692:	bf00      	nop
  402694:	00400805 	.word	0x00400805

00402698 <printbuf>:
** \brief     Print buffer to interface
** \return    Return result.
**
****************************************************************************************/
uint8_t printbuf(uint8_t *bufPtr, uint8_t len)  //print buffer
{
  402698:	b508      	push	{r3, lr}
  return udi_cdc_write_buf(bufPtr, len);	//return result
  40269a:	4b02      	ldr	r3, [pc, #8]	; (4026a4 <printbuf+0xc>)
  40269c:	4798      	blx	r3
} /*** end of printbuf ***/
  40269e:	b2c0      	uxtb	r0, r0
  4026a0:	bd08      	pop	{r3, pc}
  4026a2:	bf00      	nop
  4026a4:	00400805 	.word	0x00400805

004026a8 <getComInterface>:
} /*** end of getComInterface ***/
  4026a8:	4800      	ldr	r0, [pc, #0]	; (4026ac <getComInterface+0x4>)
  4026aa:	4770      	bx	lr
  4026ac:	20000110 	.word	0x20000110

004026b0 <pio_init>:
** \return
**
****************************************************************************************/
#if ADC_CORE_DEBUG == 1
	void pio_init (void)
	{
  4026b0:	b570      	push	{r4, r5, r6, lr}
  4026b2:	b082      	sub	sp, #8
		pmc_enable_periph_clk(ID_PIOA);
  4026b4:	200b      	movs	r0, #11
  4026b6:	4b0a      	ldr	r3, [pc, #40]	; (4026e0 <pio_init+0x30>)
  4026b8:	4798      	blx	r3
		pio_set_output(PIOA, ADC_DEBUG_PIN, LOW, DISABLE, DISABLE); //indicator pin for ADC
  4026ba:	4e0a      	ldr	r6, [pc, #40]	; (4026e4 <pio_init+0x34>)
  4026bc:	2400      	movs	r4, #0
  4026be:	9400      	str	r4, [sp, #0]
  4026c0:	4623      	mov	r3, r4
  4026c2:	4622      	mov	r2, r4
  4026c4:	f44f 7100 	mov.w	r1, #512	; 0x200
  4026c8:	4630      	mov	r0, r6
  4026ca:	4d07      	ldr	r5, [pc, #28]	; (4026e8 <pio_init+0x38>)
  4026cc:	47a8      	blx	r5
		pio_set_output(PIOA, TIMER_DEBUG_PIN, LOW, DISABLE, DISABLE);//indicator pin for Timer0
  4026ce:	9400      	str	r4, [sp, #0]
  4026d0:	4623      	mov	r3, r4
  4026d2:	4622      	mov	r2, r4
  4026d4:	f44f 6180 	mov.w	r1, #1024	; 0x400
  4026d8:	4630      	mov	r0, r6
  4026da:	47a8      	blx	r5
	} /*** end of pio_init ***/
  4026dc:	b002      	add	sp, #8
  4026de:	bd70      	pop	{r4, r5, r6, pc}
  4026e0:	004031ed 	.word	0x004031ed
  4026e4:	400e0e00 	.word	0x400e0e00
  4026e8:	004030af 	.word	0x004030af

004026ec <core_init>:
** \param
** \return
**
****************************************************************************************/
void core_init (void)
{
  4026ec:	b5f8      	push	{r3, r4, r5, r6, r7, lr}
	/* Init ADC */
	pmc_enable_periph_clk(ID_ADC);
  4026ee:	201d      	movs	r0, #29
  4026f0:	4d37      	ldr	r5, [pc, #220]	; (4027d0 <core_init+0xe4>)
  4026f2:	47a8      	blx	r5
	adc_init(ADC, sysclk_get_cpu_hz(), ADC_CLK, 0);
  4026f4:	4c37      	ldr	r4, [pc, #220]	; (4027d4 <core_init+0xe8>)
  4026f6:	2300      	movs	r3, #0
  4026f8:	4a37      	ldr	r2, [pc, #220]	; (4027d8 <core_init+0xec>)
  4026fa:	4938      	ldr	r1, [pc, #224]	; (4027dc <core_init+0xf0>)
  4026fc:	4620      	mov	r0, r4
  4026fe:	4e38      	ldr	r6, [pc, #224]	; (4027e0 <core_init+0xf4>)
  402700:	47b0      	blx	r6
	adc_configure_timing(ADC, 15, ADC_SETTLING_TIME_0, 0);
  402702:	2300      	movs	r3, #0
  402704:	461a      	mov	r2, r3
  402706:	210f      	movs	r1, #15
  402708:	4620      	mov	r0, r4
  40270a:	4e36      	ldr	r6, [pc, #216]	; (4027e4 <core_init+0xf8>)
  40270c:	47b0      	blx	r6
	adc_configure_trigger(ADC, ADC_TRIG_SW, 0); //! WARNING! Bug in ASF! ADC_MR_FREERUN_ON doesn't actually enables freerun mode!
  40270e:	2200      	movs	r2, #0
  402710:	4611      	mov	r1, r2
  402712:	4620      	mov	r0, r4
  402714:	4b34      	ldr	r3, [pc, #208]	; (4027e8 <core_init+0xfc>)
  402716:	4798      	blx	r3
	//adc_check(ADC, sysclk_get_cpu_hz());
	ADC->ADC_COR |= (ADC_COR_DIFF0 | ADC_COR_DIFF1 | ADC_COR_DIFF2 | ADC_COR_DIFF3 |
  402718:	6ce3      	ldr	r3, [r4, #76]	; 0x4c
  40271a:	f443 037f 	orr.w	r3, r3, #16711680	; 0xff0000
  40271e:	64e3      	str	r3, [r4, #76]	; 0x4c
	//TODO: make this configurable from settings->adcGain
	//TODO: call core_init before core_configure, so you can set adcGain
	//If adcGain has not been set, use default value.
	int gain = 0x11;
	//int gain = settings->adcGain;
	ADC -> ADC_CGR = ( ADC_CGR_GAIN0(gain) | ADC_CGR_GAIN1(gain) | ADC_CGR_GAIN2(gain) | ADC_CGR_GAIN3(gain));
  402720:	2355      	movs	r3, #85	; 0x55
  402722:	64a3      	str	r3, [r4, #72]	; 0x48
	adc_set_bias_current(ADC, 1);
  402724:	2101      	movs	r1, #1
  402726:	4620      	mov	r0, r4
  402728:	4b30      	ldr	r3, [pc, #192]	; (4027ec <core_init+0x100>)
  40272a:	4798      	blx	r3
  
	#if ADC_CORE_DEBUG == 1
		pio_init();
  40272c:	4b30      	ldr	r3, [pc, #192]	; (4027f0 <core_init+0x104>)
  40272e:	4798      	blx	r3
	#endif //ADC_CORE_DEBUG == 1

	adc_pdc_pntr = adc_get_pdc_base(ADC); // init DMA
  402730:	4620      	mov	r0, r4
  402732:	4b30      	ldr	r3, [pc, #192]	; (4027f4 <core_init+0x108>)
  402734:	4798      	blx	r3
  402736:	4b30      	ldr	r3, [pc, #192]	; (4027f8 <core_init+0x10c>)
  402738:	6018      	str	r0, [r3, #0]

	//Both pdc1 & pdc2:
	adc_pdc1.ul_addr = adc_raw_data1;   //	!Warning		assignment makes integer from pointer without a cast [-Wint-conversion]
  40273a:	4a30      	ldr	r2, [pc, #192]	; (4027fc <core_init+0x110>)
  40273c:	4b30      	ldr	r3, [pc, #192]	; (402800 <core_init+0x114>)
  40273e:	601a      	str	r2, [r3, #0]
	adc_pdc2.ul_addr = adc_raw_data2;   //	!Warning		assignment makes integer from pointer without a cast [-Wint-conversion]
  402740:	4a30      	ldr	r2, [pc, #192]	; (402804 <core_init+0x118>)
  402742:	4b31      	ldr	r3, [pc, #196]	; (402808 <core_init+0x11c>)
  402744:	601a      	str	r2, [r3, #0]

    \param [in]      IRQn  External interrupt number. Value cannot be negative.
 */
__STATIC_INLINE void NVIC_ClearPendingIRQ(IRQn_Type IRQn)
{
  NVIC->ICPR[((uint32_t)(IRQn) >> 5)] = (1 << ((uint32_t)(IRQn) & 0x1F)); /* Clear pending interrupt */
  402746:	4c31      	ldr	r4, [pc, #196]	; (40280c <core_init+0x120>)
  402748:	f04f 5300 	mov.w	r3, #536870912	; 0x20000000
  40274c:	f8c4 3180 	str.w	r3, [r4, #384]	; 0x180
__STATIC_INLINE void NVIC_SetPriority(IRQn_Type IRQn, uint32_t priority)
{
  if(IRQn < 0) {
    SCB->SHP[((uint32_t)(IRQn) & 0xF)-4] = ((priority << (8 - __NVIC_PRIO_BITS)) & 0xff); } /* set Priority for Cortex-M  System Interrupts */
  else {
    NVIC->IP[(uint32_t)(IRQn)] = ((priority << (8 - __NVIC_PRIO_BITS)) & 0xff);    }        /* set Priority for device specific Interrupts  */
  402750:	2740      	movs	r7, #64	; 0x40
  402752:	f884 731d 	strb.w	r7, [r4, #797]	; 0x31d
  NVIC->ISER[((uint32_t)(IRQn) >> 5)] = (1 << ((uint32_t)(IRQn) & 0x1F)); /* enable interrupt */
  402756:	6023      	str	r3, [r4, #0]
	NVIC_ClearPendingIRQ(ADC_IRQn);
	NVIC_SetPriority(ADC_IRQn, ADC_IRQ_PRIORITY);
	NVIC_EnableIRQ(ADC_IRQn);

	//init timer 0
	pmc_enable_periph_clk(ID_TC0); //Enable a peripheral's clock
  402758:	2017      	movs	r0, #23
  40275a:	47a8      	blx	r5
	tc_init(TC0, TIMER_CH, TC_CMR_TCCLKS_TIMER_CLOCK4 | TC_CMR_WAVE | TC_CMR_WAVSEL_UP_RC ); //Configure TC for timer, waveform generation, or capture.
  40275c:	4e2c      	ldr	r6, [pc, #176]	; (402810 <core_init+0x124>)
  40275e:	f24c 0203 	movw	r2, #49155	; 0xc003
  402762:	2100      	movs	r1, #0
  402764:	4630      	mov	r0, r6
  402766:	4b2b      	ldr	r3, [pc, #172]	; (402814 <core_init+0x128>)
  402768:	4798      	blx	r3
	tc_write_rc(TC0, TIMER_CH, 50000); // Write to TC Register C (RC) on the selected channel.
  40276a:	f24c 3250 	movw	r2, #50000	; 0xc350
  40276e:	2100      	movs	r1, #0
  402770:	4630      	mov	r0, r6
  402772:	4b29      	ldr	r3, [pc, #164]	; (402818 <core_init+0x12c>)
  402774:	4798      	blx	r3
	tc_enable_interrupt(TC0, TIMER_CH, TC_IER_CPCS); //Enable the TC interrupts on the specified channel.
  402776:	2210      	movs	r2, #16
  402778:	2100      	movs	r1, #0
  40277a:	4630      	mov	r0, r6
  40277c:	4b27      	ldr	r3, [pc, #156]	; (40281c <core_init+0x130>)
  40277e:	4798      	blx	r3
    NVIC->IP[(uint32_t)(IRQn)] = ((priority << (8 - __NVIC_PRIO_BITS)) & 0xff);    }        /* set Priority for device specific Interrupts  */
  402780:	f884 7317 	strb.w	r7, [r4, #791]	; 0x317
  NVIC->ISER[((uint32_t)(IRQn) >> 5)] = (1 << ((uint32_t)(IRQn) & 0x1F)); /* enable interrupt */
  402784:	f44f 0300 	mov.w	r3, #8388608	; 0x800000
  402788:	6023      	str	r3, [r4, #0]
	NVIC_SetPriority(TC0_IRQn, TIMER_IRQ_PRIORITY); //Set Priority Grouping
	NVIC_EnableIRQ(TC0_IRQn); //Enable External Interrupt
  
  //DAC INIT
	//sysclk_enable_peripheral_clock(ID_DACC); // enable clock for DACC
	pmc_enable_periph_clk(ID_DACC); // enable clock for DACC
  40278a:	201e      	movs	r0, #30
  40278c:	47a8      	blx	r5
	
	//begin DACC configuration by resetting the DACC hardware
	/* Reset DACC registers */
	dacc_reset(DACC);
  40278e:	4c24      	ldr	r4, [pc, #144]	; (402820 <core_init+0x134>)
  402790:	4620      	mov	r0, r4
  402792:	4b24      	ldr	r3, [pc, #144]	; (402824 <core_init+0x138>)
  402794:	4798      	blx	r3
	
	//write one 16-bit value at a time, not two 16-bit values in one 32-bit word
	/* Half word transfer mode */
	dacc_set_transfer_mode(DACC, 0); 
  402796:	2100      	movs	r1, #0
  402798:	4620      	mov	r0, r4
  40279a:	4b23      	ldr	r3, [pc, #140]	; (402828 <core_init+0x13c>)
  40279c:	4798      	blx	r3
	
	/* Power save:
	 * sleep mode  - 0 (disabled)
	 * fast wakeup - 0 (disabled) */
	dacc_set_power_save(DACC, 0, 0);
  40279e:	2200      	movs	r2, #0
  4027a0:	4611      	mov	r1, r2
  4027a2:	4620      	mov	r0, r4
  4027a4:	4b21      	ldr	r3, [pc, #132]	; (40282c <core_init+0x140>)
  4027a6:	4798      	blx	r3
	
	//select channel 0 and 1, #define in core.h
	/* Disable TAG and select output channel DACC_CHANNEL */
	dacc_set_channel_selection(DACC, DACC_CHANNEL0);
  4027a8:	2100      	movs	r1, #0
  4027aa:	4620      	mov	r0, r4
  4027ac:	4d20      	ldr	r5, [pc, #128]	; (402830 <core_init+0x144>)
  4027ae:	47a8      	blx	r5
	dacc_set_channel_selection(DACC, DACC_CHANNEL1);
  4027b0:	2101      	movs	r1, #1
  4027b2:	4620      	mov	r0, r4
  4027b4:	47a8      	blx	r5
		*/
	
  //dacc_set_timing(DACC, 0x08, 0, 0x10);
	
	//dacc_enable(DACC);
	dacc_enable_channel(DACC, DACC_CHANNEL0);
  4027b6:	2100      	movs	r1, #0
  4027b8:	4620      	mov	r0, r4
  4027ba:	4d1e      	ldr	r5, [pc, #120]	; (402834 <core_init+0x148>)
  4027bc:	47a8      	blx	r5
	dacc_enable_channel(DACC, DACC_CHANNEL1);	
  4027be:	2101      	movs	r1, #1
  4027c0:	4620      	mov	r0, r4
  4027c2:	47a8      	blx	r5
	//dacc_analog_control defined in core.h
	dacc_set_analog_control(DACC, DACC_ANALOG_CONTROL);
  4027c4:	f44f 7185 	mov.w	r1, #266	; 0x10a
  4027c8:	4620      	mov	r0, r4
  4027ca:	4b1b      	ldr	r3, [pc, #108]	; (402838 <core_init+0x14c>)
  4027cc:	4798      	blx	r3
  4027ce:	bdf8      	pop	{r3, r4, r5, r6, r7, pc}
  4027d0:	004031ed 	.word	0x004031ed
  4027d4:	40038000 	.word	0x40038000
  4027d8:	00f42400 	.word	0x00f42400
  4027dc:	02dc6c00 	.word	0x02dc6c00
  4027e0:	00400e59 	.word	0x00400e59
  4027e4:	00400e9b 	.word	0x00400e9b
  4027e8:	00400e8d 	.word	0x00400e8d
  4027ec:	00400ed7 	.word	0x00400ed7
  4027f0:	004026b1 	.word	0x004026b1
  4027f4:	00400ee9 	.word	0x00400ee9
  4027f8:	20000ea4 	.word	0x20000ea4
  4027fc:	20000e98 	.word	0x20000e98
  402800:	20000e8c 	.word	0x20000e8c
  402804:	20000e80 	.word	0x20000e80
  402808:	20000e64 	.word	0x20000e64
  40280c:	e000e100 	.word	0xe000e100
  402810:	40010000 	.word	0x40010000
  402814:	004032c9 	.word	0x004032c9
  402818:	004032e9 	.word	0x004032e9
  40281c:	004032f1 	.word	0x004032f1
  402820:	4003c000 	.word	0x4003c000
  402824:	00402ff5 	.word	0x00402ff5
  402828:	00402ffb 	.word	0x00402ffb
  40282c:	0040302b 	.word	0x0040302b
  402830:	00403013 	.word	0x00403013
  402834:	00403057 	.word	0x00403057
  402838:	0040306b 	.word	0x0040306b

0040283c <timer_set_compare_time>:
** \param
** \return
**
****************************************************************************************/
void timer_set_compare_time (uint32_t tim)
{
  40283c:	b508      	push	{r3, lr}
	if(tim > 50000) tim = 50000;
	tc_write_rc(TC0, TIMER_CH, tim);
  40283e:	f24c 3250 	movw	r2, #50000	; 0xc350
  402842:	4282      	cmp	r2, r0
  402844:	bf28      	it	cs
  402846:	4602      	movcs	r2, r0
  402848:	2100      	movs	r1, #0
  40284a:	4802      	ldr	r0, [pc, #8]	; (402854 <timer_set_compare_time+0x18>)
  40284c:	4b02      	ldr	r3, [pc, #8]	; (402858 <timer_set_compare_time+0x1c>)
  40284e:	4798      	blx	r3
  402850:	bd08      	pop	{r3, pc}
  402852:	bf00      	nop
  402854:	40010000 	.word	0x40010000
  402858:	004032e9 	.word	0x004032e9

0040285c <core_clear_avg_acuum>:
{
	uint32_t n;
	//clear averaging accumulator
	for(n = 0; n < ADC_RAW_DATA_SIZE; n++)
	{
		adc_raw_accumulator[n] = 0;
  40285c:	4b03      	ldr	r3, [pc, #12]	; (40286c <core_clear_avg_acuum+0x10>)
  40285e:	2200      	movs	r2, #0
  402860:	601a      	str	r2, [r3, #0]
  402862:	605a      	str	r2, [r3, #4]
  402864:	609a      	str	r2, [r3, #8]
  402866:	60da      	str	r2, [r3, #12]
  402868:	4770      	bx	lr
  40286a:	bf00      	nop
  40286c:	20000e70 	.word	0x20000e70

00402870 <core_configure>:
  if(master_settings != NULL)
  402870:	2800      	cmp	r0, #0
  402872:	d045      	beq.n	402900 <core_configure+0x90>
{
  402874:	e92d 41f0 	stmdb	sp!, {r4, r5, r6, r7, r8, lr}
  402878:	4606      	mov	r6, r0
    settings = *master_settings;
  40287a:	4c22      	ldr	r4, [pc, #136]	; (402904 <core_configure+0x94>)
  40287c:	4625      	mov	r5, r4
  40287e:	ce0f      	ldmia	r6!, {r0, r1, r2, r3}
  402880:	c50f      	stmia	r5!, {r0, r1, r2, r3}
  402882:	e896 0003 	ldmia.w	r6, {r0, r1}
  402886:	e885 0003 	stmia.w	r5, {r0, r1}
	  core_clear_avg_acuum();
  40288a:	4b1f      	ldr	r3, [pc, #124]	; (402908 <core_configure+0x98>)
  40288c:	4798      	blx	r3
	  adc_disable_all_channel(ADC);
  40288e:	481f      	ldr	r0, [pc, #124]	; (40290c <core_configure+0x9c>)
  402890:	4b1f      	ldr	r3, [pc, #124]	; (402910 <core_configure+0xa0>)
  402892:	4798      	blx	r3
  402894:	340c      	adds	r4, #12
			  nb_enables_ch++;
  402896:	4e1f      	ldr	r6, [pc, #124]	; (402914 <core_configure+0xa4>)
			  adc_enable_channel(ADC, settings.sequence[n]);
  402898:	f8df 8070 	ldr.w	r8, [pc, #112]	; 40290c <core_configure+0x9c>
  40289c:	4f1e      	ldr	r7, [pc, #120]	; (402918 <core_configure+0xa8>)
  40289e:	e001      	b.n	4028a4 <core_configure+0x34>
	  for(n = 0; n < 4; n++)
  4028a0:	42ac      	cmp	r4, r5
  4028a2:	d009      	beq.n	4028b8 <core_configure+0x48>
		  if(settings.sequence[n] > 0)
  4028a4:	f814 1b01 	ldrb.w	r1, [r4], #1
  4028a8:	2900      	cmp	r1, #0
  4028aa:	d0f9      	beq.n	4028a0 <core_configure+0x30>
			  nb_enables_ch++;
  4028ac:	6833      	ldr	r3, [r6, #0]
  4028ae:	3301      	adds	r3, #1
  4028b0:	6033      	str	r3, [r6, #0]
			  adc_enable_channel(ADC, settings.sequence[n]);
  4028b2:	4640      	mov	r0, r8
  4028b4:	47b8      	blx	r7
  4028b6:	e7f3      	b.n	4028a0 <core_configure+0x30>
	  adc_pdc1.ul_size = nb_enables_ch;
  4028b8:	4b16      	ldr	r3, [pc, #88]	; (402914 <core_configure+0xa4>)
  4028ba:	681b      	ldr	r3, [r3, #0]
  4028bc:	4917      	ldr	r1, [pc, #92]	; (40291c <core_configure+0xac>)
  4028be:	604b      	str	r3, [r1, #4]
	  adc_pdc2.ul_size = nb_enables_ch;
  4028c0:	4a17      	ldr	r2, [pc, #92]	; (402920 <core_configure+0xb0>)
  4028c2:	6053      	str	r3, [r2, #4]
	  pdc_rx_init(adc_pdc_pntr, &adc_pdc1, &adc_pdc2);
  4028c4:	4b17      	ldr	r3, [pc, #92]	; (402924 <core_configure+0xb4>)
  4028c6:	6818      	ldr	r0, [r3, #0]
  4028c8:	4b17      	ldr	r3, [pc, #92]	; (402928 <core_configure+0xb8>)
  4028ca:	4798      	blx	r3
	  data_bank = 0;
  4028cc:	2200      	movs	r2, #0
  4028ce:	4b17      	ldr	r3, [pc, #92]	; (40292c <core_configure+0xbc>)
  4028d0:	601a      	str	r2, [r3, #0]
	  adc_enable_interrupt(ADC, ADC_IER_ENDRX);
  4028d2:	f04f 6100 	mov.w	r1, #134217728	; 0x8000000
  4028d6:	480d      	ldr	r0, [pc, #52]	; (40290c <core_configure+0x9c>)
  4028d8:	4b15      	ldr	r3, [pc, #84]	; (402930 <core_configure+0xc0>)
  4028da:	4798      	blx	r3
	  avg_cntr = settings.averaging;
  4028dc:	4b09      	ldr	r3, [pc, #36]	; (402904 <core_configure+0x94>)
  4028de:	889a      	ldrh	r2, [r3, #4]
  4028e0:	4914      	ldr	r1, [pc, #80]	; (402934 <core_configure+0xc4>)
  4028e2:	600a      	str	r2, [r1, #0]
    avg_cnt_reload = settings.averaging;
  4028e4:	4914      	ldr	r1, [pc, #80]	; (402938 <core_configure+0xc8>)
  4028e6:	600a      	str	r2, [r1, #0]
	  timer_set_compare_time(US_TO_TC(settings.acqusitionTime));
  4028e8:	8818      	ldrh	r0, [r3, #0]
  4028ea:	0840      	lsrs	r0, r0, #1
  4028ec:	4b13      	ldr	r3, [pc, #76]	; (40293c <core_configure+0xcc>)
  4028ee:	4798      	blx	r3
			  TIMER_DEBUG_PIN_CLR;
  4028f0:	f44f 6180 	mov.w	r1, #1024	; 0x400
  4028f4:	4812      	ldr	r0, [pc, #72]	; (402940 <core_configure+0xd0>)
  4028f6:	4b13      	ldr	r3, [pc, #76]	; (402944 <core_configure+0xd4>)
  4028f8:	4798      	blx	r3
    return TRUE;
  4028fa:	2001      	movs	r0, #1
  4028fc:	e8bd 81f0 	ldmia.w	sp!, {r4, r5, r6, r7, r8, pc}
  return FALSE;
  402900:	2000      	movs	r0, #0
  402902:	4770      	bx	lr
  402904:	20000df0 	.word	0x20000df0
  402908:	0040285d 	.word	0x0040285d
  40290c:	40038000 	.word	0x40038000
  402910:	00400ec7 	.word	0x00400ec7
  402914:	20000e94 	.word	0x20000e94
  402918:	00400ebd 	.word	0x00400ebd
  40291c:	20000e8c 	.word	0x20000e8c
  402920:	20000e64 	.word	0x20000e64
  402924:	20000ea4 	.word	0x20000ea4
  402928:	00403073 	.word	0x00403073
  40292c:	20000de8 	.word	0x20000de8
  402930:	00400ecf 	.word	0x00400ecf
  402934:	20000e88 	.word	0x20000e88
  402938:	20000ea0 	.word	0x20000ea0
  40293c:	0040283d 	.word	0x0040283d
  402940:	400e0e00 	.word	0x400e0e00
  402944:	004030ab 	.word	0x004030ab

00402948 <ADC_Handler>:
** \param
** \return
**
****************************************************************************************/
void ADC_Handler (void)
{
  402948:	b510      	push	{r4, lr}
	uint32_t n;
	if(adc_get_status(ADC) & ADC_ISR_ENDRX) // this gets triggered when acquisition of all samples for one averaging is complete
  40294a:	4833      	ldr	r0, [pc, #204]	; (402a18 <ADC_Handler+0xd0>)
  40294c:	4b33      	ldr	r3, [pc, #204]	; (402a1c <ADC_Handler+0xd4>)
  40294e:	4798      	blx	r3
  402950:	f010 6f00 	tst.w	r0, #134217728	; 0x8000000
  402954:	d100      	bne.n	402958 <ADC_Handler+0x10>
  402956:	bd10      	pop	{r4, pc}

	{
		#if ADC_CORE_DEBUG == 1
		ADC_DEBUG_PIN_SET;
  402958:	f44f 7100 	mov.w	r1, #512	; 0x200
  40295c:	4830      	ldr	r0, [pc, #192]	; (402a20 <ADC_Handler+0xd8>)
  40295e:	4b31      	ldr	r3, [pc, #196]	; (402a24 <ADC_Handler+0xdc>)
  402960:	4798      	blx	r3
		#endif //ADC_CORE_DEBUG == 1

		//ADC->ADC_MR &= (~ADC_MR_FREERUN); //stop adc
		if(!data_bank) // new data resides in adc_raw_data1
  402962:	4b31      	ldr	r3, [pc, #196]	; (402a28 <ADC_Handler+0xe0>)
  402964:	681b      	ldr	r3, [r3, #0]
  402966:	2b00      	cmp	r3, #0
  402968:	d138      	bne.n	4029dc <ADC_Handler+0x94>
		{
			pdc_rx_init(adc_pdc_pntr, NULL, &adc_pdc2);
  40296a:	4c30      	ldr	r4, [pc, #192]	; (402a2c <ADC_Handler+0xe4>)
  40296c:	4a30      	ldr	r2, [pc, #192]	; (402a30 <ADC_Handler+0xe8>)
  40296e:	2100      	movs	r1, #0
  402970:	6820      	ldr	r0, [r4, #0]
  402972:	4b30      	ldr	r3, [pc, #192]	; (402a34 <ADC_Handler+0xec>)
  402974:	4798      	blx	r3
			pdc_enable_transfer(adc_pdc_pntr, PERIPH_PTCR_RXTEN);
  402976:	2101      	movs	r1, #1
  402978:	6820      	ldr	r0, [r4, #0]
  40297a:	4b2f      	ldr	r3, [pc, #188]	; (402a38 <ADC_Handler+0xf0>)
  40297c:	4798      	blx	r3
			adc_start(ADC);
  40297e:	4826      	ldr	r0, [pc, #152]	; (402a18 <ADC_Handler+0xd0>)
  402980:	4b2e      	ldr	r3, [pc, #184]	; (402a3c <ADC_Handler+0xf4>)
  402982:	4798      	blx	r3

			data_bank = 1;
  402984:	2201      	movs	r2, #1
  402986:	4b28      	ldr	r3, [pc, #160]	; (402a28 <ADC_Handler+0xe0>)
  402988:	601a      	str	r2, [r3, #0]
  40298a:	4b2d      	ldr	r3, [pc, #180]	; (402a40 <ADC_Handler+0xf8>)
  40298c:	492d      	ldr	r1, [pc, #180]	; (402a44 <ADC_Handler+0xfc>)
  40298e:	f103 0410 	add.w	r4, r3, #16
			for(n = 0; n < 4; n++)
			{
				adc_raw_accumulator[n] += adc_raw_data1[n];
  402992:	f831 0b02 	ldrh.w	r0, [r1], #2
  402996:	681a      	ldr	r2, [r3, #0]
  402998:	4402      	add	r2, r0
  40299a:	f843 2b04 	str.w	r2, [r3], #4
			for(n = 0; n < 4; n++)
  40299e:	42a3      	cmp	r3, r4
  4029a0:	d1f7      	bne.n	402992 <ADC_Handler+0x4a>
				adc_raw_accumulator[n] += adc_raw_data2[n];
			}

		}
		#if ADC_CORE_DEBUG == 1
		ADC_DEBUG_PIN_CLR;
  4029a2:	f44f 7100 	mov.w	r1, #512	; 0x200
  4029a6:	481e      	ldr	r0, [pc, #120]	; (402a20 <ADC_Handler+0xd8>)
  4029a8:	4b27      	ldr	r3, [pc, #156]	; (402a48 <ADC_Handler+0x100>)
  4029aa:	4798      	blx	r3
		#endif //ADC_CORE_DEBUG == 1
		if(!(--avg_cntr))
  4029ac:	4a27      	ldr	r2, [pc, #156]	; (402a4c <ADC_Handler+0x104>)
  4029ae:	6813      	ldr	r3, [r2, #0]
  4029b0:	3b01      	subs	r3, #1
  4029b2:	6013      	str	r3, [r2, #0]
  4029b4:	2b00      	cmp	r3, #0
  4029b6:	d1ce      	bne.n	402956 <ADC_Handler+0xe>
		{
			pdc_disable_transfer(adc_pdc_pntr, PERIPH_PTCR_RXTEN);
  4029b8:	4c1c      	ldr	r4, [pc, #112]	; (402a2c <ADC_Handler+0xe4>)
  4029ba:	2101      	movs	r1, #1
  4029bc:	6820      	ldr	r0, [r4, #0]
  4029be:	4b24      	ldr	r3, [pc, #144]	; (402a50 <ADC_Handler+0x108>)
  4029c0:	4798      	blx	r3
			//do this to clear DMA flag
			pdc_rx_init(adc_pdc_pntr, &adc_pdc1, NULL);
  4029c2:	2200      	movs	r2, #0
  4029c4:	4923      	ldr	r1, [pc, #140]	; (402a54 <ADC_Handler+0x10c>)
  4029c6:	6820      	ldr	r0, [r4, #0]
  4029c8:	4b1a      	ldr	r3, [pc, #104]	; (402a34 <ADC_Handler+0xec>)
  4029ca:	4798      	blx	r3
			//report new data
			new_data = 1;
  4029cc:	2201      	movs	r2, #1
  4029ce:	4b22      	ldr	r3, [pc, #136]	; (402a58 <ADC_Handler+0x110>)
  4029d0:	601a      	str	r2, [r3, #0]
			avg_cntr = settings.acquisitionNbr;
  4029d2:	4b22      	ldr	r3, [pc, #136]	; (402a5c <ADC_Handler+0x114>)
  4029d4:	885a      	ldrh	r2, [r3, #2]
  4029d6:	4b1d      	ldr	r3, [pc, #116]	; (402a4c <ADC_Handler+0x104>)
  4029d8:	601a      	str	r2, [r3, #0]
		}


	}
} /*** end of ADC_Handler ***/
  4029da:	e7bc      	b.n	402956 <ADC_Handler+0xe>
			pdc_rx_init(adc_pdc_pntr, NULL, &adc_pdc1);
  4029dc:	4c13      	ldr	r4, [pc, #76]	; (402a2c <ADC_Handler+0xe4>)
  4029de:	4a1d      	ldr	r2, [pc, #116]	; (402a54 <ADC_Handler+0x10c>)
  4029e0:	2100      	movs	r1, #0
  4029e2:	6820      	ldr	r0, [r4, #0]
  4029e4:	4b13      	ldr	r3, [pc, #76]	; (402a34 <ADC_Handler+0xec>)
  4029e6:	4798      	blx	r3
			pdc_enable_transfer(adc_pdc_pntr, PERIPH_PTCR_RXTEN);
  4029e8:	2101      	movs	r1, #1
  4029ea:	6820      	ldr	r0, [r4, #0]
  4029ec:	4b12      	ldr	r3, [pc, #72]	; (402a38 <ADC_Handler+0xf0>)
  4029ee:	4798      	blx	r3
			adc_start(ADC);
  4029f0:	4809      	ldr	r0, [pc, #36]	; (402a18 <ADC_Handler+0xd0>)
  4029f2:	4b12      	ldr	r3, [pc, #72]	; (402a3c <ADC_Handler+0xf4>)
  4029f4:	4798      	blx	r3
			data_bank = 0;
  4029f6:	2200      	movs	r2, #0
  4029f8:	4b0b      	ldr	r3, [pc, #44]	; (402a28 <ADC_Handler+0xe0>)
  4029fa:	601a      	str	r2, [r3, #0]
  4029fc:	4b10      	ldr	r3, [pc, #64]	; (402a40 <ADC_Handler+0xf8>)
  4029fe:	4918      	ldr	r1, [pc, #96]	; (402a60 <ADC_Handler+0x118>)
  402a00:	f103 0410 	add.w	r4, r3, #16
				adc_raw_accumulator[n] += adc_raw_data2[n];
  402a04:	f831 0b02 	ldrh.w	r0, [r1], #2
  402a08:	681a      	ldr	r2, [r3, #0]
  402a0a:	4402      	add	r2, r0
  402a0c:	f843 2b04 	str.w	r2, [r3], #4
			for(n = 0; n < ADC_RAW_DATA_SIZE; n++)
  402a10:	42a3      	cmp	r3, r4
  402a12:	d1f7      	bne.n	402a04 <ADC_Handler+0xbc>
  402a14:	e7c5      	b.n	4029a2 <ADC_Handler+0x5a>
  402a16:	bf00      	nop
  402a18:	40038000 	.word	0x40038000
  402a1c:	00400ed3 	.word	0x00400ed3
  402a20:	400e0e00 	.word	0x400e0e00
  402a24:	004030a7 	.word	0x004030a7
  402a28:	20000de8 	.word	0x20000de8
  402a2c:	20000ea4 	.word	0x20000ea4
  402a30:	20000e64 	.word	0x20000e64
  402a34:	00403073 	.word	0x00403073
  402a38:	0040308b 	.word	0x0040308b
  402a3c:	00400eb7 	.word	0x00400eb7
  402a40:	20000e70 	.word	0x20000e70
  402a44:	20000e98 	.word	0x20000e98
  402a48:	004030ab 	.word	0x004030ab
  402a4c:	20000e88 	.word	0x20000e88
  402a50:	00403097 	.word	0x00403097
  402a54:	20000e8c 	.word	0x20000e8c
  402a58:	20000dec 	.word	0x20000dec
  402a5c:	20000df0 	.word	0x20000df0
  402a60:	20000e80 	.word	0x20000e80

00402a64 <TC0_Handler>:
** \param
** \return
**
****************************************************************************************/
void TC0_Handler (void) //?Timer/Counter 0 handler, se uporablja za ADC??
{
  402a64:	b510      	push	{r4, lr}
	if((tc_get_status(TC0, 0) & TC_SR_CPCS))
  402a66:	2100      	movs	r1, #0
  402a68:	4814      	ldr	r0, [pc, #80]	; (402abc <TC0_Handler+0x58>)
  402a6a:	4b15      	ldr	r3, [pc, #84]	; (402ac0 <TC0_Handler+0x5c>)
  402a6c:	4798      	blx	r3
  402a6e:	f010 0f10 	tst.w	r0, #16
  402a72:	d100      	bne.n	402a76 <TC0_Handler+0x12>
  402a74:	bd10      	pop	{r4, pc}
	{
		#if ADC_CORE_DEBUG == 1
			TIMER_DEBUG_PIN_TGL;
  402a76:	f44f 6180 	mov.w	r1, #1024	; 0x400
  402a7a:	4812      	ldr	r0, [pc, #72]	; (402ac4 <TC0_Handler+0x60>)
  402a7c:	4b12      	ldr	r3, [pc, #72]	; (402ac8 <TC0_Handler+0x64>)
  402a7e:	4798      	blx	r3
		#endif //ADC_CORE_DEBUG == 1
		if(--rep_cntr)
  402a80:	4a12      	ldr	r2, [pc, #72]	; (402acc <TC0_Handler+0x68>)
  402a82:	6813      	ldr	r3, [r2, #0]
  402a84:	3b01      	subs	r3, #1
  402a86:	6013      	str	r3, [r2, #0]
  402a88:	b933      	cbnz	r3, 402a98 <TC0_Handler+0x34>
			pdc_enable_transfer(adc_pdc_pntr, PERIPH_PTCR_RXTEN);
			adc_start(ADC);
		}
		else
		{
			acqusition_in_progress = 0;
  402a8a:	2100      	movs	r1, #0
  402a8c:	4b10      	ldr	r3, [pc, #64]	; (402ad0 <TC0_Handler+0x6c>)
  402a8e:	6019      	str	r1, [r3, #0]
			tc_stop(TC0, TIMER_CH);
  402a90:	480a      	ldr	r0, [pc, #40]	; (402abc <TC0_Handler+0x58>)
  402a92:	4b10      	ldr	r3, [pc, #64]	; (402ad4 <TC0_Handler+0x70>)
  402a94:	4798      	blx	r3
		}
	}
} /*** end of TC0_Handler ***/
  402a96:	e7ed      	b.n	402a74 <TC0_Handler+0x10>
			pdc_rx_init(adc_pdc_pntr, &adc_pdc1, &adc_pdc2);
  402a98:	4c0f      	ldr	r4, [pc, #60]	; (402ad8 <TC0_Handler+0x74>)
  402a9a:	4a10      	ldr	r2, [pc, #64]	; (402adc <TC0_Handler+0x78>)
  402a9c:	4910      	ldr	r1, [pc, #64]	; (402ae0 <TC0_Handler+0x7c>)
  402a9e:	6820      	ldr	r0, [r4, #0]
  402aa0:	4b10      	ldr	r3, [pc, #64]	; (402ae4 <TC0_Handler+0x80>)
  402aa2:	4798      	blx	r3
			data_bank = 0;
  402aa4:	2200      	movs	r2, #0
  402aa6:	4b10      	ldr	r3, [pc, #64]	; (402ae8 <TC0_Handler+0x84>)
  402aa8:	601a      	str	r2, [r3, #0]
			pdc_enable_transfer(adc_pdc_pntr, PERIPH_PTCR_RXTEN);
  402aaa:	2101      	movs	r1, #1
  402aac:	6820      	ldr	r0, [r4, #0]
  402aae:	4b0f      	ldr	r3, [pc, #60]	; (402aec <TC0_Handler+0x88>)
  402ab0:	4798      	blx	r3
			adc_start(ADC);
  402ab2:	480f      	ldr	r0, [pc, #60]	; (402af0 <TC0_Handler+0x8c>)
  402ab4:	4b0f      	ldr	r3, [pc, #60]	; (402af4 <TC0_Handler+0x90>)
  402ab6:	4798      	blx	r3
  402ab8:	bd10      	pop	{r4, pc}
  402aba:	bf00      	nop
  402abc:	40010000 	.word	0x40010000
  402ac0:	004032f9 	.word	0x004032f9
  402ac4:	400e0e00 	.word	0x400e0e00
  402ac8:	004030dd 	.word	0x004030dd
  402acc:	20000ea8 	.word	0x20000ea8
  402ad0:	20000de4 	.word	0x20000de4
  402ad4:	004032e1 	.word	0x004032e1
  402ad8:	20000ea4 	.word	0x20000ea4
  402adc:	20000e64 	.word	0x20000e64
  402ae0:	20000e8c 	.word	0x20000e8c
  402ae4:	00403073 	.word	0x00403073
  402ae8:	20000de8 	.word	0x20000de8
  402aec:	0040308b 	.word	0x0040308b
  402af0:	40038000 	.word	0x40038000
  402af4:	00400eb7 	.word	0x00400eb7

00402af8 <StartACQ>:
**            module.
** \return    True if successful, false otherwise.
**
****************************************************************************************/
bool StartACQ (int32_t *parPtr, daq_settings_t *settings, COM_t *comInterface)
{
  402af8:	b570      	push	{r4, r5, r6, lr}
  402afa:	4616      	mov	r6, r2
  /* Set result to false. */
  bool result = FALSE;
  
  /* Set parameter */
  settings->binMode = (uint8_t)ASCII_MODE;
  402afc:	2300      	movs	r3, #0
  402afe:	740b      	strb	r3, [r1, #16]
  /* Configure core with new settings. */
  core_configure(settings);
  402b00:	4608      	mov	r0, r1
  402b02:	4b0b      	ldr	r3, [pc, #44]	; (402b30 <StartACQ+0x38>)
  402b04:	4798      	blx	r3
  /* Start core */
  //core_start();
  /* Print msg to inform user */
  comInterface->len = sprintf((char*)comInterface->buf, "Acquisition started in ASCII\n\r");
  402b06:	4c0b      	ldr	r4, [pc, #44]	; (402b34 <StartACQ+0x3c>)
  402b08:	cc0f      	ldmia	r4!, {r0, r1, r2, r3}
  402b0a:	6170      	str	r0, [r6, #20]
  402b0c:	61b1      	str	r1, [r6, #24]
  402b0e:	61f2      	str	r2, [r6, #28]
  402b10:	6233      	str	r3, [r6, #32]
  402b12:	cc07      	ldmia	r4!, {r0, r1, r2}
  402b14:	6270      	str	r0, [r6, #36]	; 0x24
  402b16:	62b1      	str	r1, [r6, #40]	; 0x28
  402b18:	62f2      	str	r2, [r6, #44]	; 0x2c
  402b1a:	8822      	ldrh	r2, [r4, #0]
  402b1c:	78a3      	ldrb	r3, [r4, #2]
  402b1e:	8632      	strh	r2, [r6, #48]	; 0x30
  402b20:	f886 3032 	strb.w	r3, [r6, #50]	; 0x32
  402b24:	231e      	movs	r3, #30
  402b26:	f886 3078 	strb.w	r3, [r6, #120]	; 0x78
  /* Set result */
  result = TRUE;
  
  /* Return result */
  return result;
} /*** end of StartACQ ***/
  402b2a:	2001      	movs	r0, #1
  402b2c:	bd70      	pop	{r4, r5, r6, pc}
  402b2e:	bf00      	nop
  402b30:	00402871 	.word	0x00402871
  402b34:	004080c4 	.word	0x004080c4

00402b38 <StartFastACQ>:
**            module.
** \return    True if successful, false otherwise.
**
****************************************************************************************/
bool StartFastACQ (int32_t *parPtr, daq_settings_t *settings, COM_t *comInterface)
{
  402b38:	b5f8      	push	{r3, r4, r5, r6, r7, lr}
  402b3a:	4616      	mov	r6, r2
  /* Set result to false. */
  bool result = FALSE;
  
  /* Set parameter */
  settings->binMode = (uint8_t)FAST_MODE;
  402b3c:	2701      	movs	r7, #1
  402b3e:	740f      	strb	r7, [r1, #16]
  /* Configure core with new settings. */
  core_configure(settings); //configure core with new settings
  402b40:	4608      	mov	r0, r1
  402b42:	4b09      	ldr	r3, [pc, #36]	; (402b68 <StartFastACQ+0x30>)
  402b44:	4798      	blx	r3
  /* Start core */
  //core_start();
  /* Print msg to inform user */
  comInterface->len = sprintf((char*)comInterface->buf, "Acquisition started in binary\n\r");
  402b46:	4c09      	ldr	r4, [pc, #36]	; (402b6c <StartFastACQ+0x34>)
  402b48:	cc0f      	ldmia	r4!, {r0, r1, r2, r3}
  402b4a:	6170      	str	r0, [r6, #20]
  402b4c:	61b1      	str	r1, [r6, #24]
  402b4e:	61f2      	str	r2, [r6, #28]
  402b50:	6233      	str	r3, [r6, #32]
  402b52:	cc0f      	ldmia	r4!, {r0, r1, r2, r3}
  402b54:	6270      	str	r0, [r6, #36]	; 0x24
  402b56:	62b1      	str	r1, [r6, #40]	; 0x28
  402b58:	62f2      	str	r2, [r6, #44]	; 0x2c
  402b5a:	6333      	str	r3, [r6, #48]	; 0x30
  402b5c:	231f      	movs	r3, #31
  402b5e:	f886 3078 	strb.w	r3, [r6, #120]	; 0x78
  /* Set result */
  result = TRUE;
  
  /* Return result */
  return result;
} /*** end of StartFastACQ ***/
  402b62:	4638      	mov	r0, r7
  402b64:	bdf8      	pop	{r3, r4, r5, r6, r7, pc}
  402b66:	bf00      	nop
  402b68:	00402871 	.word	0x00402871
  402b6c:	004080e4 	.word	0x004080e4

00402b70 <StopACQ>:
**            module.
** \return    True if successful, false otherwise.
**
****************************************************************************************/
bool StopACQ (int32_t *parPtr, daq_settings_t *settings, COM_t *comInterface)
{
  402b70:	b570      	push	{r4, r5, r6, lr}
  402b72:	4616      	mov	r6, r2
  /* Set result to false. */
  bool result = FALSE;
  
  /* Configure core with new settings. */
  core_configure(settings);
  402b74:	4608      	mov	r0, r1
  402b76:	4b08      	ldr	r3, [pc, #32]	; (402b98 <StopACQ+0x28>)
  402b78:	4798      	blx	r3
  /* Stop core */
  //TODO: call function to stop core
  /* Print msg to inform user */
  comInterface->len = sprintf((char*)comInterface->buf, "Acquisition stopped\n\r");
  402b7a:	4c08      	ldr	r4, [pc, #32]	; (402b9c <StopACQ+0x2c>)
  402b7c:	cc0f      	ldmia	r4!, {r0, r1, r2, r3}
  402b7e:	6170      	str	r0, [r6, #20]
  402b80:	61b1      	str	r1, [r6, #24]
  402b82:	61f2      	str	r2, [r6, #28]
  402b84:	6233      	str	r3, [r6, #32]
  402b86:	6820      	ldr	r0, [r4, #0]
  402b88:	6270      	str	r0, [r6, #36]	; 0x24
  402b8a:	88a3      	ldrh	r3, [r4, #4]
  402b8c:	8533      	strh	r3, [r6, #40]	; 0x28
  402b8e:	2315      	movs	r3, #21
  402b90:	f886 3078 	strb.w	r3, [r6, #120]	; 0x78
  /* Set result */
  result = TRUE;
  
  /* Return result */
  return result;
} /*** end of StopACQ ***/
  402b94:	2001      	movs	r0, #1
  402b96:	bd70      	pop	{r4, r5, r6, pc}
  402b98:	00402871 	.word	0x00402871
  402b9c:	00408104 	.word	0x00408104

00402ba0 <SetSamplePeriod>:
**            module.
** \return    True if successful, false otherwise.
**
****************************************************************************************/
bool SetSamplePeriod (int32_t *parPtr, daq_settings_t *settings, COM_t *comInterface)
{
  402ba0:	b538      	push	{r3, r4, r5, lr}
  /* Set result to false. */
  bool result = FALSE;
  
  /* Is parameter is range? */
  if(*parPtr >= SAMPLE_PERIOD_LOWRANGE && *parPtr <= SAMPLE_PERIOD_HIGHRANGE)
  402ba2:	6803      	ldr	r3, [r0, #0]
  402ba4:	f1a3 040a 	sub.w	r4, r3, #10
  402ba8:	f24c 3046 	movw	r0, #49990	; 0xc346
  402bac:	4284      	cmp	r4, r0
  402bae:	d901      	bls.n	402bb4 <SetSamplePeriod+0x14>
  bool result = FALSE;
  402bb0:	2000      	movs	r0, #0
    result = TRUE;
  }
  
  /* Return result */
  return result;
} /*** end of SetSamplePeriod ***/
  402bb2:	bd38      	pop	{r3, r4, r5, pc}
  402bb4:	4615      	mov	r5, r2
  402bb6:	460c      	mov	r4, r1
    settings->acqusitionTime = (uint16_t)*parPtr;
  402bb8:	800b      	strh	r3, [r1, #0]
    core_configure(settings);
  402bba:	4608      	mov	r0, r1
  402bbc:	4b05      	ldr	r3, [pc, #20]	; (402bd4 <SetSamplePeriod+0x34>)
  402bbe:	4798      	blx	r3
    comInterface->len = sprintf((char*)comInterface->buf, "Sample period set to %u uS\n\r",
  402bc0:	8822      	ldrh	r2, [r4, #0]
  402bc2:	4905      	ldr	r1, [pc, #20]	; (402bd8 <SetSamplePeriod+0x38>)
  402bc4:	f105 0014 	add.w	r0, r5, #20
  402bc8:	4b04      	ldr	r3, [pc, #16]	; (402bdc <SetSamplePeriod+0x3c>)
  402bca:	4798      	blx	r3
  402bcc:	f885 0078 	strb.w	r0, [r5, #120]	; 0x78
    result = TRUE;
  402bd0:	2001      	movs	r0, #1
  402bd2:	bd38      	pop	{r3, r4, r5, pc}
  402bd4:	00402871 	.word	0x00402871
  402bd8:	00408080 	.word	0x00408080
  402bdc:	004037dd 	.word	0x004037dd

00402be0 <SetAverageCount>:
**            module.
** \return    True if successful, false otherwise.
**
****************************************************************************************/
bool SetAverageCount (int32_t *parPtr, daq_settings_t *settings, COM_t *comInterface)
{
  402be0:	b538      	push	{r3, r4, r5, lr}
  /* Set result to false. */
  bool result = FALSE;
  
  /* Is parameter is range? */
  if(*parPtr >= AVERAGE_COUNT_LOWRANGE &&  *parPtr <= AVERAGE_COUNT_HIGHRANGE)
  402be2:	6803      	ldr	r3, [r0, #0]
  402be4:	1e58      	subs	r0, r3, #1
  402be6:	f5b0 7f7a 	cmp.w	r0, #1000	; 0x3e8
  402bea:	d301      	bcc.n	402bf0 <SetAverageCount+0x10>
  bool result = FALSE;
  402bec:	2000      	movs	r0, #0
    result = TRUE;
  }
  
  /* Return result */
  return result;
} /*** end of SetAverageCount ***/
  402bee:	bd38      	pop	{r3, r4, r5, pc}
  402bf0:	4615      	mov	r5, r2
  402bf2:	460c      	mov	r4, r1
    settings->averaging = (uint16_t)*parPtr;
  402bf4:	808b      	strh	r3, [r1, #4]
    core_configure(settings);
  402bf6:	4608      	mov	r0, r1
  402bf8:	4b05      	ldr	r3, [pc, #20]	; (402c10 <SetAverageCount+0x30>)
  402bfa:	4798      	blx	r3
    comInterface->len = sprintf((char*)comInterface->buf,
  402bfc:	88a2      	ldrh	r2, [r4, #4]
  402bfe:	4905      	ldr	r1, [pc, #20]	; (402c14 <SetAverageCount+0x34>)
  402c00:	f105 0014 	add.w	r0, r5, #20
  402c04:	4b04      	ldr	r3, [pc, #16]	; (402c18 <SetAverageCount+0x38>)
  402c06:	4798      	blx	r3
  402c08:	f885 0078 	strb.w	r0, [r5, #120]	; 0x78
    result = TRUE;
  402c0c:	2001      	movs	r0, #1
  402c0e:	bd38      	pop	{r3, r4, r5, pc}
  402c10:	00402871 	.word	0x00402871
  402c14:	00407ffc 	.word	0x00407ffc
  402c18:	004037dd 	.word	0x004037dd

00402c1c <SetMeasurmentCount>:
**            module.
** \return    True if successful, false otherwise.
**
****************************************************************************************/
bool SetMeasurmentCount (int32_t *parPtr, daq_settings_t *settings, COM_t *comInterface)
{
  402c1c:	b538      	push	{r3, r4, r5, lr}
  /* Set result to false. */
  bool result = FALSE;
  
  /* Is parameter is range? */
  if(*parPtr >= MEASURMENT_COUNT_LOWRANGE &&  *parPtr <= MEASURMENT_COUNT_HIGHRANGE)
  402c1e:	6803      	ldr	r3, [r0, #0]
  402c20:	1e58      	subs	r0, r3, #1
  402c22:	f5b0 7f7a 	cmp.w	r0, #1000	; 0x3e8
  402c26:	d301      	bcc.n	402c2c <SetMeasurmentCount+0x10>
  bool result = FALSE;
  402c28:	2000      	movs	r0, #0
    result = TRUE;
  }
  
  /* Return result */
  return result;
} /*** end of SetMeasurmentCount ***/
  402c2a:	bd38      	pop	{r3, r4, r5, pc}
  402c2c:	4615      	mov	r5, r2
  402c2e:	460c      	mov	r4, r1
    settings->acquisitionNbr = (uint16_t)*parPtr;
  402c30:	804b      	strh	r3, [r1, #2]
    core_configure(settings);
  402c32:	4608      	mov	r0, r1
  402c34:	4b05      	ldr	r3, [pc, #20]	; (402c4c <SetMeasurmentCount+0x30>)
  402c36:	4798      	blx	r3
    comInterface->len = sprintf((char*)comInterface->buf,
  402c38:	8862      	ldrh	r2, [r4, #2]
  402c3a:	4905      	ldr	r1, [pc, #20]	; (402c50 <SetMeasurmentCount+0x34>)
  402c3c:	f105 0014 	add.w	r0, r5, #20
  402c40:	4b04      	ldr	r3, [pc, #16]	; (402c54 <SetMeasurmentCount+0x38>)
  402c42:	4798      	blx	r3
  402c44:	f885 0078 	strb.w	r0, [r5, #120]	; 0x78
    result = TRUE;
  402c48:	2001      	movs	r0, #1
  402c4a:	bd38      	pop	{r3, r4, r5, pc}
  402c4c:	00402871 	.word	0x00402871
  402c50:	00408050 	.word	0x00408050
  402c54:	004037dd 	.word	0x004037dd

00402c58 <SetSequencer>:
{
  /* Set result to false. */
  bool result = FALSE;
  
  /* Is parameter is range? */
  if((*(parPtr + 0) >= SEQUENCER_LOWRANGE && *(parPtr + 0) <= SEQUENCER_HIGHRANGE) &&
  402c58:	6803      	ldr	r3, [r0, #0]
  402c5a:	2b04      	cmp	r3, #4
  402c5c:	d829      	bhi.n	402cb2 <SetSequencer+0x5a>
  402c5e:	6843      	ldr	r3, [r0, #4]
  402c60:	2b04      	cmp	r3, #4
  402c62:	d828      	bhi.n	402cb6 <SetSequencer+0x5e>
     (*(parPtr + 1) >= SEQUENCER_LOWRANGE && *(parPtr + 1) <= SEQUENCER_HIGHRANGE) &&
  402c64:	6883      	ldr	r3, [r0, #8]
  402c66:	2b04      	cmp	r3, #4
  402c68:	d827      	bhi.n	402cba <SetSequencer+0x62>
     (*(parPtr + 2) >= SEQUENCER_LOWRANGE && *(parPtr + 2) <= SEQUENCER_HIGHRANGE) &&
  402c6a:	68c3      	ldr	r3, [r0, #12]
  402c6c:	2b04      	cmp	r3, #4
  402c6e:	d826      	bhi.n	402cbe <SetSequencer+0x66>
{
  402c70:	b530      	push	{r4, r5, lr}
  402c72:	b083      	sub	sp, #12
  402c74:	1f03      	subs	r3, r0, #4
  402c76:	f101 040c 	add.w	r4, r1, #12
  402c7a:	300c      	adds	r0, #12
     (*(parPtr + 3) >= SEQUENCER_LOWRANGE && *(parPtr + 3) <= SEQUENCER_HIGHRANGE))
  {
    /* Set parameters */
    for(uint8_t i = 0; i < 4; i++)  settings->sequence[i] = (uint8_t)*(parPtr + i);
  402c7c:	f853 5f04 	ldr.w	r5, [r3, #4]!
  402c80:	f804 5b01 	strb.w	r5, [r4], #1
  402c84:	4283      	cmp	r3, r0
  402c86:	d1f9      	bne.n	402c7c <SetSequencer+0x24>
  402c88:	4615      	mov	r5, r2
  402c8a:	460c      	mov	r4, r1
    /* Configure core with new settings. */
    core_configure(settings);
  402c8c:	4608      	mov	r0, r1
  402c8e:	4b0d      	ldr	r3, [pc, #52]	; (402cc4 <SetSequencer+0x6c>)
  402c90:	4798      	blx	r3
    /* Print msg to inform user */
    comInterface->len = sprintf((char*)comInterface->buf,
  402c92:	7b63      	ldrb	r3, [r4, #13]
  402c94:	7b22      	ldrb	r2, [r4, #12]
  402c96:	7be1      	ldrb	r1, [r4, #15]
  402c98:	9101      	str	r1, [sp, #4]
  402c9a:	7ba1      	ldrb	r1, [r4, #14]
  402c9c:	9100      	str	r1, [sp, #0]
  402c9e:	490a      	ldr	r1, [pc, #40]	; (402cc8 <SetSequencer+0x70>)
  402ca0:	f105 0014 	add.w	r0, r5, #20
  402ca4:	4c09      	ldr	r4, [pc, #36]	; (402ccc <SetSequencer+0x74>)
  402ca6:	47a0      	blx	r4
  402ca8:	f885 0078 	strb.w	r0, [r5, #120]	; 0x78
                                "Sequence set to: %u, %u, %u, %u\n\r",
                                settings->sequence[0], settings->sequence[1],
                                settings->sequence[2], settings->sequence[3]);
    /* Set result */
    result = TRUE;
  402cac:	2001      	movs	r0, #1
  }  
  
  /* Return result */
  return result;
} /*** end of SetSequencer ***/
  402cae:	b003      	add	sp, #12
  402cb0:	bd30      	pop	{r4, r5, pc}
  bool result = FALSE;
  402cb2:	2000      	movs	r0, #0
  402cb4:	4770      	bx	lr
  402cb6:	2000      	movs	r0, #0
  402cb8:	4770      	bx	lr
  402cba:	2000      	movs	r0, #0
  402cbc:	4770      	bx	lr
  402cbe:	2000      	movs	r0, #0
  402cc0:	4770      	bx	lr
  402cc2:	bf00      	nop
  402cc4:	00402871 	.word	0x00402871
  402cc8:	004080a0 	.word	0x004080a0
  402ccc:	004037dd 	.word	0x004037dd

00402cd0 <SetDACvalue>:
**            module.
** \return    True if successful, false otherwise.
**
****************************************************************************************/
bool SetDACvalue (int32_t *parPtr, daq_settings_t *settings, COM_t *comInterface)
{
  402cd0:	b570      	push	{r4, r5, r6, lr}
  /* Set result to false. */
  bool result = FALSE;
  
  /* Is parameter is range? */
  if((*(parPtr + 0) >= DAC_VALUE_PAR0_LOWRANGE &&  *(parPtr + 0) <= DAC_VALUE_PAR0_HIGHRANGE) &&
  402cd2:	6803      	ldr	r3, [r0, #0]
  402cd4:	1e5c      	subs	r4, r3, #1
  402cd6:	2c03      	cmp	r4, #3
  402cd8:	d81e      	bhi.n	402d18 <SetDACvalue+0x48>
     (*(parPtr + 1) >= DAC_VALUE_PAR1_LOWRANGE &&  *(parPtr + 1) <= DAC_VALUE_PAR1_HIGHRANGE))
  402cda:	6846      	ldr	r6, [r0, #4]
  402cdc:	f506 541c 	add.w	r4, r6, #9984	; 0x2700
  402ce0:	3410      	adds	r4, #16
  if((*(parPtr + 0) >= DAC_VALUE_PAR0_LOWRANGE &&  *(parPtr + 0) <= DAC_VALUE_PAR0_HIGHRANGE) &&
  402ce2:	f644 6520 	movw	r5, #20000	; 0x4e20
  402ce6:	42ac      	cmp	r4, r5
  402ce8:	d901      	bls.n	402cee <SetDACvalue+0x1e>
  bool result = FALSE;
  402cea:	2000      	movs	r0, #0
    result = TRUE;
  }
  
  /* Return result */
  return result;
} /*** end of SetDACvalue ***/
  402cec:	bd70      	pop	{r4, r5, r6, pc}
  402cee:	4615      	mov	r5, r2
    settings->DACval[(uint8_t)*parPtr] = (int16_t)*(parPtr + 1);
  402cf0:	b2db      	uxtb	r3, r3
  402cf2:	eb01 0343 	add.w	r3, r1, r3, lsl #1
  402cf6:	80de      	strh	r6, [r3, #6]
    settings->DACflag=1;
  402cf8:	2401      	movs	r4, #1
  402cfa:	728c      	strb	r4, [r1, #10]
  402cfc:	7802      	ldrb	r2, [r0, #0]
                                (uint8_t)*(parPtr + 0), settings->DACval[(uint8_t)*parPtr]);
  402cfe:	eb01 0142 	add.w	r1, r1, r2, lsl #1
    comInterface->len = sprintf((char*)comInterface->buf, "DAC channel %u set to %d mV\n\r",
  402d02:	f9b1 3006 	ldrsh.w	r3, [r1, #6]
  402d06:	4905      	ldr	r1, [pc, #20]	; (402d1c <SetDACvalue+0x4c>)
  402d08:	f105 0014 	add.w	r0, r5, #20
  402d0c:	4e04      	ldr	r6, [pc, #16]	; (402d20 <SetDACvalue+0x50>)
  402d0e:	47b0      	blx	r6
  402d10:	f885 0078 	strb.w	r0, [r5, #120]	; 0x78
    result = TRUE;
  402d14:	4620      	mov	r0, r4
  402d16:	bd70      	pop	{r4, r5, r6, pc}
  bool result = FALSE;
  402d18:	2000      	movs	r0, #0
  402d1a:	bd70      	pop	{r4, r5, r6, pc}
  402d1c:	00408030 	.word	0x00408030
  402d20:	004037dd 	.word	0x004037dd

00402d24 <getPar>:
{
  402d24:	e92d 4ff0 	stmdb	sp!, {r4, r5, r6, r7, r8, r9, sl, fp, lr}
  402d28:	b089      	sub	sp, #36	; 0x24
  402d2a:	4681      	mov	r9, r0
  402d2c:	4688      	mov	r8, r1
  402d2e:	4616      	mov	r6, r2
  402d30:	461c      	mov	r4, r3
  402d32:	1e45      	subs	r5, r0, #1
  402d34:	b2ed      	uxtb	r5, r5
  402d36:	eb02 0585 	add.w	r5, r2, r5, lsl #2
  uint8_t newChar = 0, currentPar = 0, prevIdx = 0, idx = 0;
  402d3a:	2700      	movs	r7, #0
  402d3c:	46ba      	mov	sl, r7
        buf[currentPar][idx] = 0;
  402d3e:	46bb      	mov	fp, r7
  while(!result && timeout)
  402d40:	f1b8 0f00 	cmp.w	r8, #0
  402d44:	d061      	beq.n	402e0a <getPar+0xe6>
    if(comInterface->available())
  402d46:	6863      	ldr	r3, [r4, #4]
  402d48:	4798      	blx	r3
  402d4a:	2800      	cmp	r0, #0
  402d4c:	d0fb      	beq.n	402d46 <getPar+0x22>
      newChar = comInterface->read();
  402d4e:	68a3      	ldr	r3, [r4, #8]
  402d50:	4798      	blx	r3
      if(newChar == '\r')
  402d52:	280d      	cmp	r0, #13
  402d54:	d016      	beq.n	402d84 <getPar+0x60>
      else if(newChar == ',')
  402d56:	282c      	cmp	r0, #44	; 0x2c
  402d58:	d030      	beq.n	402dbc <getPar+0x98>
      else if(newChar == '\b')
  402d5a:	2808      	cmp	r0, #8
  402d5c:	d032      	beq.n	402dc4 <getPar+0xa0>
      else if((newChar >= '0' && newChar <= '9') || newChar == '-')
  402d5e:	f1a0 0330 	sub.w	r3, r0, #48	; 0x30
  402d62:	b2db      	uxtb	r3, r3
  402d64:	2b09      	cmp	r3, #9
  402d66:	d901      	bls.n	402d6c <getPar+0x48>
  402d68:	282d      	cmp	r0, #45	; 0x2d
  402d6a:	d1e9      	bne.n	402d40 <getPar+0x1c>
        buf[currentPar][idx] = newChar;
  402d6c:	ebc7 03c7 	rsb	r3, r7, r7, lsl #3
  402d70:	aa08      	add	r2, sp, #32
  402d72:	4413      	add	r3, r2
  402d74:	4453      	add	r3, sl
  402d76:	f803 0c1c 	strb.w	r0, [r3, #-28]
        idx++;
  402d7a:	f10a 0a01 	add.w	sl, sl, #1
  402d7e:	fa5f fa8a 	uxtb.w	sl, sl
  402d82:	e7dd      	b.n	402d40 <getPar+0x1c>
        if((parCount == (currentPar + 1) && idx) || !parCount)
  402d84:	1c7b      	adds	r3, r7, #1
  402d86:	4599      	cmp	r9, r3
  402d88:	d004      	beq.n	402d94 <getPar+0x70>
  402d8a:	f1b9 0f00 	cmp.w	r9, #0
  402d8e:	d011      	beq.n	402db4 <getPar+0x90>
        else timeout = 0;
  402d90:	46d8      	mov	r8, fp
  402d92:	e7d5      	b.n	402d40 <getPar+0x1c>
        if((parCount == (currentPar + 1) && idx) || !parCount)
  402d94:	f1ba 0f00 	cmp.w	sl, #0
  402d98:	d0f7      	beq.n	402d8a <getPar+0x66>
          for(uint8_t i = 0; i < parCount; i++) *(parPtr + i) = (int32_t)atoi((char*)buf[i]);
  402d9a:	f1b9 0f00 	cmp.w	r9, #0
  402d9e:	d009      	beq.n	402db4 <getPar+0x90>
  402da0:	ac01      	add	r4, sp, #4
  402da2:	3e04      	subs	r6, #4
  402da4:	4f1a      	ldr	r7, [pc, #104]	; (402e10 <getPar+0xec>)
  402da6:	4620      	mov	r0, r4
  402da8:	47b8      	blx	r7
  402daa:	f846 0f04 	str.w	r0, [r6, #4]!
  402dae:	3407      	adds	r4, #7
  402db0:	42ae      	cmp	r6, r5
  402db2:	d1f8      	bne.n	402da6 <getPar+0x82>
  while(!result && timeout)
  402db4:	2001      	movs	r0, #1
} /*** end of getPar ***/
  402db6:	b009      	add	sp, #36	; 0x24
  402db8:	e8bd 8ff0 	ldmia.w	sp!, {r4, r5, r6, r7, r8, r9, sl, fp, pc}
        currentPar++;
  402dbc:	3701      	adds	r7, #1
  402dbe:	b2ff      	uxtb	r7, r7
        idx = 0;
  402dc0:	46da      	mov	sl, fp
  402dc2:	e7bd      	b.n	402d40 <getPar+0x1c>
        if (buf[currentPar][idx - 1] == ',' && currentPar)
  402dc4:	ebc7 03c7 	rsb	r3, r7, r7, lsl #3
  402dc8:	aa08      	add	r2, sp, #32
  402dca:	4413      	add	r3, r2
  402dcc:	4453      	add	r3, sl
  402dce:	f813 3c1d 	ldrb.w	r3, [r3, #-29]
  402dd2:	2b2c      	cmp	r3, #44	; 0x2c
  402dd4:	d00e      	beq.n	402df4 <getPar+0xd0>
        else if(idx) idx--;
  402dd6:	f1ba 0f00 	cmp.w	sl, #0
  402dda:	d014      	beq.n	402e06 <getPar+0xe2>
  402ddc:	f10a 3aff 	add.w	sl, sl, #4294967295
  402de0:	fa5f fa8a 	uxtb.w	sl, sl
        buf[currentPar][idx] = 0;
  402de4:	ebc7 03c7 	rsb	r3, r7, r7, lsl #3
  402de8:	aa08      	add	r2, sp, #32
  402dea:	4413      	add	r3, r2
  402dec:	4453      	add	r3, sl
  402dee:	f803 bc1c 	strb.w	fp, [r3, #-28]
  402df2:	e7a5      	b.n	402d40 <getPar+0x1c>
        if (buf[currentPar][idx - 1] == ',' && currentPar)
  402df4:	2f00      	cmp	r7, #0
  402df6:	d0ee      	beq.n	402dd6 <getPar+0xb2>
          currentPar--;
  402df8:	3f01      	subs	r7, #1
  402dfa:	b2ff      	uxtb	r7, r7
          idx = prevIdx + 1;
  402dfc:	f10a 0a01 	add.w	sl, sl, #1
  402e00:	fa5f fa8a 	uxtb.w	sl, sl
  402e04:	e7ee      	b.n	402de4 <getPar+0xc0>
        else timeout = 0;
  402e06:	46d8      	mov	r8, fp
  402e08:	e7ec      	b.n	402de4 <getPar+0xc0>
  while(!result && timeout)
  402e0a:	2000      	movs	r0, #0
  402e0c:	e7d3      	b.n	402db6 <getPar+0x92>
  402e0e:	bf00      	nop
  402e10:	004035fd 	.word	0x004035fd

00402e14 <parseCommand>:
{
  402e14:	b510      	push	{r4, lr}
	switch (CMD)
  402e16:	3841      	subs	r0, #65	; 0x41
  402e18:	2832      	cmp	r0, #50	; 0x32
  402e1a:	d878      	bhi.n	402f0e <parseCommand+0xfa>
  402e1c:	e8df f000 	tbb	[pc, r0]
  402e20:	6b777747 	.word	0x6b777747
  402e24:	7777535f 	.word	0x7777535f
  402e28:	77777777 	.word	0x77777777
  402e2c:	77777777 	.word	0x77777777
  402e30:	301a3b77 	.word	0x301a3b77
  402e34:	77777777 	.word	0x77777777
  402e38:	77777777 	.word	0x77777777
  402e3c:	77777777 	.word	0x77777777
  402e40:	77777777 	.word	0x77777777
  402e44:	77777777 	.word	0x77777777
  402e48:	77777777 	.word	0x77777777
  402e4c:	77777777 	.word	0x77777777
  402e50:	7777      	.short	0x7777
  402e52:	25          	.byte	0x25
  402e53:	00          	.byte	0x00
      parsedCMD->cmd = CMD_START_ACQ;
  402e54:	2353      	movs	r3, #83	; 0x53
  402e56:	700b      	strb	r3, [r1, #0]
      parsedCMD->funcPtr = StartACQ;
  402e58:	4b2f      	ldr	r3, [pc, #188]	; (402f18 <parseCommand+0x104>)
  402e5a:	604b      	str	r3, [r1, #4]
      result = getPar(0, PARAMETER_TIMEOUT, NULL, comInterface);
  402e5c:	4613      	mov	r3, r2
  402e5e:	2200      	movs	r2, #0
  402e60:	2164      	movs	r1, #100	; 0x64
  402e62:	4610      	mov	r0, r2
  402e64:	4c2d      	ldr	r4, [pc, #180]	; (402f1c <parseCommand+0x108>)
  402e66:	47a0      	blx	r4
      break;
  402e68:	bd10      	pop	{r4, pc}
      parsedCMD->cmd = CMD_START_FAST_ACQ;
  402e6a:	2373      	movs	r3, #115	; 0x73
  402e6c:	700b      	strb	r3, [r1, #0]
      parsedCMD->funcPtr = StartFastACQ;
  402e6e:	4b2c      	ldr	r3, [pc, #176]	; (402f20 <parseCommand+0x10c>)
  402e70:	604b      	str	r3, [r1, #4]
      result = getPar(0, PARAMETER_TIMEOUT, NULL, comInterface);
  402e72:	4613      	mov	r3, r2
  402e74:	2200      	movs	r2, #0
  402e76:	2164      	movs	r1, #100	; 0x64
  402e78:	4610      	mov	r0, r2
  402e7a:	4c28      	ldr	r4, [pc, #160]	; (402f1c <parseCommand+0x108>)
  402e7c:	47a0      	blx	r4
      break;
  402e7e:	bd10      	pop	{r4, pc}
      parsedCMD->cmd = CMD_STOP_ACQ;
  402e80:	2354      	movs	r3, #84	; 0x54
  402e82:	700b      	strb	r3, [r1, #0]
      parsedCMD->funcPtr = StopACQ;
  402e84:	4b27      	ldr	r3, [pc, #156]	; (402f24 <parseCommand+0x110>)
  402e86:	604b      	str	r3, [r1, #4]
      result = getPar(0, PARAMETER_TIMEOUT, NULL, comInterface);
  402e88:	4613      	mov	r3, r2
  402e8a:	2200      	movs	r2, #0
  402e8c:	2164      	movs	r1, #100	; 0x64
  402e8e:	4610      	mov	r0, r2
  402e90:	4c22      	ldr	r4, [pc, #136]	; (402f1c <parseCommand+0x108>)
  402e92:	47a0      	blx	r4
      break;
  402e94:	bd10      	pop	{r4, pc}
      parsedCMD->cmd = CMD_SET_SAMPLE_PERIOD;
  402e96:	2352      	movs	r3, #82	; 0x52
  402e98:	700b      	strb	r3, [r1, #0]
      parsedCMD->funcPtr = SetSamplePeriod;
  402e9a:	4b23      	ldr	r3, [pc, #140]	; (402f28 <parseCommand+0x114>)
  402e9c:	604b      	str	r3, [r1, #4]
      result = getPar(1, PARAMETER_TIMEOUT, parsedCMD->par, comInterface);
  402e9e:	4613      	mov	r3, r2
  402ea0:	f101 0208 	add.w	r2, r1, #8
  402ea4:	2164      	movs	r1, #100	; 0x64
  402ea6:	2001      	movs	r0, #1
  402ea8:	4c1c      	ldr	r4, [pc, #112]	; (402f1c <parseCommand+0x108>)
  402eaa:	47a0      	blx	r4
      break;
  402eac:	bd10      	pop	{r4, pc}
      parsedCMD->cmd =  CMD_SET_AVERAGE_COUNT;
  402eae:	2341      	movs	r3, #65	; 0x41
  402eb0:	700b      	strb	r3, [r1, #0]
      parsedCMD->funcPtr =  SetAverageCount;
  402eb2:	4b1e      	ldr	r3, [pc, #120]	; (402f2c <parseCommand+0x118>)
  402eb4:	604b      	str	r3, [r1, #4]
      result = getPar(1, PARAMETER_TIMEOUT, parsedCMD->par, comInterface);
  402eb6:	4613      	mov	r3, r2
  402eb8:	f101 0208 	add.w	r2, r1, #8
  402ebc:	2164      	movs	r1, #100	; 0x64
  402ebe:	2001      	movs	r0, #1
  402ec0:	4c16      	ldr	r4, [pc, #88]	; (402f1c <parseCommand+0x108>)
  402ec2:	47a0      	blx	r4
      break;
  402ec4:	bd10      	pop	{r4, pc}
      parsedCMD->cmd =  CMD_SET_MEASURMENT_COUNT;
  402ec6:	2346      	movs	r3, #70	; 0x46
  402ec8:	700b      	strb	r3, [r1, #0]
      parsedCMD->funcPtr =  SetMeasurmentCount;
  402eca:	4b19      	ldr	r3, [pc, #100]	; (402f30 <parseCommand+0x11c>)
  402ecc:	604b      	str	r3, [r1, #4]
      result = getPar(1, PARAMETER_TIMEOUT, parsedCMD->par, comInterface);
  402ece:	4613      	mov	r3, r2
  402ed0:	f101 0208 	add.w	r2, r1, #8
  402ed4:	2164      	movs	r1, #100	; 0x64
  402ed6:	2001      	movs	r0, #1
  402ed8:	4c10      	ldr	r4, [pc, #64]	; (402f1c <parseCommand+0x108>)
  402eda:	47a0      	blx	r4
      break;
  402edc:	bd10      	pop	{r4, pc}
      parsedCMD->cmd =  CMD_SET_SEQUENCER;
  402ede:	2345      	movs	r3, #69	; 0x45
  402ee0:	700b      	strb	r3, [r1, #0]
      parsedCMD->funcPtr = SetSequencer;
  402ee2:	4b14      	ldr	r3, [pc, #80]	; (402f34 <parseCommand+0x120>)
  402ee4:	604b      	str	r3, [r1, #4]
      result = getPar(4, PARAMETER_TIMEOUT, parsedCMD->par, comInterface);
  402ee6:	4613      	mov	r3, r2
  402ee8:	f101 0208 	add.w	r2, r1, #8
  402eec:	2164      	movs	r1, #100	; 0x64
  402eee:	2004      	movs	r0, #4
  402ef0:	4c0a      	ldr	r4, [pc, #40]	; (402f1c <parseCommand+0x108>)
  402ef2:	47a0      	blx	r4
      break;
  402ef4:	bd10      	pop	{r4, pc}
      parsedCMD->cmd =  CMD_SET_DAC_VALUE;
  402ef6:	2344      	movs	r3, #68	; 0x44
  402ef8:	700b      	strb	r3, [r1, #0]
      parsedCMD->funcPtr = SetDACvalue;
  402efa:	4b0f      	ldr	r3, [pc, #60]	; (402f38 <parseCommand+0x124>)
  402efc:	604b      	str	r3, [r1, #4]
      result = getPar(2, PARAMETER_TIMEOUT, parsedCMD->par, comInterface);
  402efe:	4613      	mov	r3, r2
  402f00:	f101 0208 	add.w	r2, r1, #8
  402f04:	2164      	movs	r1, #100	; 0x64
  402f06:	2002      	movs	r0, #2
  402f08:	4c04      	ldr	r4, [pc, #16]	; (402f1c <parseCommand+0x108>)
  402f0a:	47a0      	blx	r4
      break;
  402f0c:	bd10      	pop	{r4, pc}
      parsedCMD->cmd = 0;
  402f0e:	2000      	movs	r0, #0
  402f10:	7008      	strb	r0, [r1, #0]
      parsedCMD->funcPtr = NULL;
  402f12:	6048      	str	r0, [r1, #4]
} /*** end of parseCommand ***/
  402f14:	bd10      	pop	{r4, pc}
  402f16:	bf00      	nop
  402f18:	00402af9 	.word	0x00402af9
  402f1c:	00402d25 	.word	0x00402d25
  402f20:	00402b39 	.word	0x00402b39
  402f24:	00402b71 	.word	0x00402b71
  402f28:	00402ba1 	.word	0x00402ba1
  402f2c:	00402be1 	.word	0x00402be1
  402f30:	00402c1d 	.word	0x00402c1d
  402f34:	00402c59 	.word	0x00402c59
  402f38:	00402cd1 	.word	0x00402cd1

00402f3c <sysclk_enable_usb>:
  402f3c:	b510      	push	{r4, lr}
  402f3e:	213e      	movs	r1, #62	; 0x3e
  402f40:	2000      	movs	r0, #0
  402f42:	4b0a      	ldr	r3, [pc, #40]	; (402f6c <sysclk_enable_usb+0x30>)
  402f44:	4798      	blx	r3
  402f46:	4c0a      	ldr	r4, [pc, #40]	; (402f70 <sysclk_enable_usb+0x34>)
  402f48:	47a0      	blx	r4
  402f4a:	2800      	cmp	r0, #0
  402f4c:	d0fc      	beq.n	402f48 <sysclk_enable_usb+0xc>
  402f4e:	4b09      	ldr	r3, [pc, #36]	; (402f74 <sysclk_enable_usb+0x38>)
  402f50:	4798      	blx	r3
  402f52:	4a09      	ldr	r2, [pc, #36]	; (402f78 <sysclk_enable_usb+0x3c>)
  402f54:	4b09      	ldr	r3, [pc, #36]	; (402f7c <sysclk_enable_usb+0x40>)
  402f56:	62da      	str	r2, [r3, #44]	; 0x2c
  402f58:	4c09      	ldr	r4, [pc, #36]	; (402f80 <sysclk_enable_usb+0x44>)
  402f5a:	47a0      	blx	r4
  402f5c:	2800      	cmp	r0, #0
  402f5e:	d0fc      	beq.n	402f5a <sysclk_enable_usb+0x1e>
  402f60:	2001      	movs	r0, #1
  402f62:	4b08      	ldr	r3, [pc, #32]	; (402f84 <sysclk_enable_usb+0x48>)
  402f64:	4798      	blx	r3
  402f66:	4b08      	ldr	r3, [pc, #32]	; (402f88 <sysclk_enable_usb+0x4c>)
  402f68:	4798      	blx	r3
  402f6a:	bd10      	pop	{r4, pc}
  402f6c:	0040314d 	.word	0x0040314d
  402f70:	004031a1 	.word	0x004031a1
  402f74:	004031d1 	.word	0x004031d1
  402f78:	00113f03 	.word	0x00113f03
  402f7c:	400e0400 	.word	0x400e0400
  402f80:	004031dd 	.word	0x004031dd
  402f84:	00403295 	.word	0x00403295
  402f88:	004032a9 	.word	0x004032a9

00402f8c <sysclk_init>:
  402f8c:	b510      	push	{r4, lr}
  402f8e:	480e      	ldr	r0, [pc, #56]	; (402fc8 <sysclk_init+0x3c>)
  402f90:	4b0e      	ldr	r3, [pc, #56]	; (402fcc <sysclk_init+0x40>)
  402f92:	4798      	blx	r3
  402f94:	213e      	movs	r1, #62	; 0x3e
  402f96:	2000      	movs	r0, #0
  402f98:	4b0d      	ldr	r3, [pc, #52]	; (402fd0 <sysclk_init+0x44>)
  402f9a:	4798      	blx	r3
  402f9c:	4c0d      	ldr	r4, [pc, #52]	; (402fd4 <sysclk_init+0x48>)
  402f9e:	47a0      	blx	r4
  402fa0:	2800      	cmp	r0, #0
  402fa2:	d0fc      	beq.n	402f9e <sysclk_init+0x12>
  402fa4:	4b0c      	ldr	r3, [pc, #48]	; (402fd8 <sysclk_init+0x4c>)
  402fa6:	4798      	blx	r3
  402fa8:	4a0c      	ldr	r2, [pc, #48]	; (402fdc <sysclk_init+0x50>)
  402faa:	4b0d      	ldr	r3, [pc, #52]	; (402fe0 <sysclk_init+0x54>)
  402fac:	629a      	str	r2, [r3, #40]	; 0x28
  402fae:	4c0d      	ldr	r4, [pc, #52]	; (402fe4 <sysclk_init+0x58>)
  402fb0:	47a0      	blx	r4
  402fb2:	2800      	cmp	r0, #0
  402fb4:	d0fc      	beq.n	402fb0 <sysclk_init+0x24>
  402fb6:	2010      	movs	r0, #16
  402fb8:	4b0b      	ldr	r3, [pc, #44]	; (402fe8 <sysclk_init+0x5c>)
  402fba:	4798      	blx	r3
  402fbc:	4b0b      	ldr	r3, [pc, #44]	; (402fec <sysclk_init+0x60>)
  402fbe:	4798      	blx	r3
  402fc0:	480b      	ldr	r0, [pc, #44]	; (402ff0 <sysclk_init+0x64>)
  402fc2:	4b02      	ldr	r3, [pc, #8]	; (402fcc <sysclk_init+0x40>)
  402fc4:	4798      	blx	r3
  402fc6:	bd10      	pop	{r4, pc}
  402fc8:	03d09000 	.word	0x03d09000
  402fcc:	200000a1 	.word	0x200000a1
  402fd0:	0040314d 	.word	0x0040314d
  402fd4:	004031a1 	.word	0x004031a1
  402fd8:	004031b1 	.word	0x004031b1
  402fdc:	20173f03 	.word	0x20173f03
  402fe0:	400e0400 	.word	0x400e0400
  402fe4:	004031c1 	.word	0x004031c1
  402fe8:	004030e9 	.word	0x004030e9
  402fec:	004033ad 	.word	0x004033ad
  402ff0:	02dc6c00 	.word	0x02dc6c00

00402ff4 <dacc_reset>:
 *
 * \param p_dacc Pointer to a DACC instance. 
 */
void dacc_reset(Dacc *p_dacc)
{
	p_dacc->DACC_CR = DACC_CR_SWRST;
  402ff4:	2301      	movs	r3, #1
  402ff6:	6003      	str	r3, [r0, #0]
  402ff8:	4770      	bx	lr

00402ffa <dacc_set_transfer_mode>:
 *
 * \return \ref DACC_RC_OK for OK.
 */
uint32_t dacc_set_transfer_mode(Dacc *p_dacc, uint32_t ul_mode)
{
	if (ul_mode) {
  402ffa:	b929      	cbnz	r1, 403008 <dacc_set_transfer_mode+0xe>
		p_dacc->DACC_MR |= DACC_MR_ONE;
		p_dacc->DACC_MR &= (~DACC_MR_WORD_WORD);
#elif (SAMV70 || SAMV71 || SAME70 || SAMS70)
		p_dacc->DACC_MR = ul_mode;
#else
		p_dacc->DACC_MR &= (~DACC_MR_WORD_WORD);
  402ffc:	6843      	ldr	r3, [r0, #4]
  402ffe:	f023 0310 	bic.w	r3, r3, #16
  403002:	6043      	str	r3, [r0, #4]
#endif
	}
	return DACC_RC_OK;
}
  403004:	2000      	movs	r0, #0
  403006:	4770      	bx	lr
		p_dacc->DACC_MR |= DACC_MR_WORD_WORD;
  403008:	6843      	ldr	r3, [r0, #4]
  40300a:	f043 0310 	orr.w	r3, r3, #16
  40300e:	6043      	str	r3, [r0, #4]
  403010:	e7f8      	b.n	403004 <dacc_set_transfer_mode+0xa>

00403012 <dacc_set_channel_selection>:
 *
 * \return \ref DACC_RC_OK if successful.
 */
uint32_t dacc_set_channel_selection(Dacc *p_dacc, uint32_t ul_channel)
{
	uint32_t mr = p_dacc->DACC_MR & (~DACC_MR_USER_SEL_Msk);
  403012:	6843      	ldr	r3, [r0, #4]
	if (ul_channel > MAX_CH_NB) {
  403014:	2901      	cmp	r1, #1
  403016:	d901      	bls.n	40301c <dacc_set_channel_selection+0xa>
		return DACC_RC_INVALID_PARAM;
  403018:	2001      	movs	r0, #1
	mr &= ~(DACC_MR_TAG);
	mr |= ul_channel << DACC_MR_USER_SEL_Pos;
	p_dacc->DACC_MR = mr;

	return DACC_RC_OK;
}
  40301a:	4770      	bx	lr
	mr &= ~(DACC_MR_TAG);
  40301c:	f423 1398 	bic.w	r3, r3, #1245184	; 0x130000
	mr |= ul_channel << DACC_MR_USER_SEL_Pos;
  403020:	ea43 4101 	orr.w	r1, r3, r1, lsl #16
	p_dacc->DACC_MR = mr;
  403024:	6041      	str	r1, [r0, #4]
	return DACC_RC_OK;
  403026:	2000      	movs	r0, #0
  403028:	4770      	bx	lr

0040302a <dacc_set_power_save>:
 * \return \ref DACC_RC_OK if successful.
 */
uint32_t dacc_set_power_save(Dacc *p_dacc,
		uint32_t ul_sleep_mode, uint32_t ul_fast_wakeup_mode)
{
	if (ul_sleep_mode) {
  40302a:	b151      	cbz	r1, 403042 <dacc_set_power_save+0x18>
		p_dacc->DACC_MR |= DACC_MR_SLEEP;
  40302c:	6843      	ldr	r3, [r0, #4]
  40302e:	f043 0320 	orr.w	r3, r3, #32
  403032:	6043      	str	r3, [r0, #4]
	} else {
		p_dacc->DACC_MR &= (~DACC_MR_SLEEP);
	}
	if (ul_fast_wakeup_mode) {
  403034:	b952      	cbnz	r2, 40304c <dacc_set_power_save+0x22>
		p_dacc->DACC_MR |= DACC_MR_FASTWKUP;
	} else {
		p_dacc->DACC_MR &= (~DACC_MR_FASTWKUP);
  403036:	6843      	ldr	r3, [r0, #4]
  403038:	f023 0340 	bic.w	r3, r3, #64	; 0x40
  40303c:	6043      	str	r3, [r0, #4]
	}
	return DACC_RC_OK;
}
  40303e:	2000      	movs	r0, #0
  403040:	4770      	bx	lr
		p_dacc->DACC_MR &= (~DACC_MR_SLEEP);
  403042:	6843      	ldr	r3, [r0, #4]
  403044:	f023 0320 	bic.w	r3, r3, #32
  403048:	6043      	str	r3, [r0, #4]
  40304a:	e7f3      	b.n	403034 <dacc_set_power_save+0xa>
		p_dacc->DACC_MR |= DACC_MR_FASTWKUP;
  40304c:	6843      	ldr	r3, [r0, #4]
  40304e:	f043 0340 	orr.w	r3, r3, #64	; 0x40
  403052:	6043      	str	r3, [r0, #4]
  403054:	e7f3      	b.n	40303e <dacc_set_power_save+0x14>

00403056 <dacc_enable_channel>:
 *
 * \return \ref DACC_RC_OK for OK.
 */
uint32_t dacc_enable_channel(Dacc *p_dacc, uint32_t ul_channel)
{
	if (ul_channel > MAX_CH_NB)
  403056:	2901      	cmp	r1, #1
  403058:	d901      	bls.n	40305e <dacc_enable_channel+0x8>
		return DACC_RC_INVALID_PARAM;
  40305a:	2001      	movs	r0, #1

	p_dacc->DACC_CHER = DACC_CHER_CH0 << ul_channel;
	return DACC_RC_OK;
}
  40305c:	4770      	bx	lr
	p_dacc->DACC_CHER = DACC_CHER_CH0 << ul_channel;
  40305e:	2301      	movs	r3, #1
  403060:	fa03 f101 	lsl.w	r1, r3, r1
  403064:	6101      	str	r1, [r0, #16]
	return DACC_RC_OK;
  403066:	2000      	movs	r0, #0
  403068:	4770      	bx	lr

0040306a <dacc_set_analog_control>:
 *
 * \return \ref DACC_RC_OK for OK.
 */
uint32_t dacc_set_analog_control(Dacc *p_dacc, uint32_t ul_analog_control)
{
	p_dacc->DACC_ACR = ul_analog_control;
  40306a:	f8c0 1094 	str.w	r1, [r0, #148]	; 0x94
	return DACC_RC_OK;
}
  40306e:	2000      	movs	r0, #0
  403070:	4770      	bx	lr

00403072 <pdc_rx_init>:
  403072:	460b      	mov	r3, r1
  403074:	b119      	cbz	r1, 40307e <pdc_rx_init+0xc>
  403076:	6809      	ldr	r1, [r1, #0]
  403078:	6001      	str	r1, [r0, #0]
  40307a:	685b      	ldr	r3, [r3, #4]
  40307c:	6043      	str	r3, [r0, #4]
  40307e:	b11a      	cbz	r2, 403088 <pdc_rx_init+0x16>
  403080:	6813      	ldr	r3, [r2, #0]
  403082:	6103      	str	r3, [r0, #16]
  403084:	6853      	ldr	r3, [r2, #4]
  403086:	6143      	str	r3, [r0, #20]
  403088:	4770      	bx	lr

0040308a <pdc_enable_transfer>:
  40308a:	f021 01fe 	bic.w	r1, r1, #254	; 0xfe
  40308e:	05c9      	lsls	r1, r1, #23
  403090:	0dc9      	lsrs	r1, r1, #23
  403092:	6201      	str	r1, [r0, #32]
  403094:	4770      	bx	lr

00403096 <pdc_disable_transfer>:
  403096:	f421 71fe 	bic.w	r1, r1, #508	; 0x1fc
  40309a:	f021 0101 	bic.w	r1, r1, #1
  40309e:	0589      	lsls	r1, r1, #22
  4030a0:	0d89      	lsrs	r1, r1, #22
  4030a2:	6201      	str	r1, [r0, #32]
  4030a4:	4770      	bx	lr

004030a6 <pio_set>:
  4030a6:	6301      	str	r1, [r0, #48]	; 0x30
  4030a8:	4770      	bx	lr

004030aa <pio_clear>:
  4030aa:	6341      	str	r1, [r0, #52]	; 0x34
  4030ac:	4770      	bx	lr

004030ae <pio_set_output>:
  4030ae:	b410      	push	{r4}
  4030b0:	9c01      	ldr	r4, [sp, #4]
  4030b2:	6441      	str	r1, [r0, #68]	; 0x44
  4030b4:	b944      	cbnz	r4, 4030c8 <pio_set_output+0x1a>
  4030b6:	6601      	str	r1, [r0, #96]	; 0x60
  4030b8:	b143      	cbz	r3, 4030cc <pio_set_output+0x1e>
  4030ba:	6501      	str	r1, [r0, #80]	; 0x50
  4030bc:	b942      	cbnz	r2, 4030d0 <pio_set_output+0x22>
  4030be:	6341      	str	r1, [r0, #52]	; 0x34
  4030c0:	6101      	str	r1, [r0, #16]
  4030c2:	6001      	str	r1, [r0, #0]
  4030c4:	bc10      	pop	{r4}
  4030c6:	4770      	bx	lr
  4030c8:	6641      	str	r1, [r0, #100]	; 0x64
  4030ca:	e7f5      	b.n	4030b8 <pio_set_output+0xa>
  4030cc:	6541      	str	r1, [r0, #84]	; 0x54
  4030ce:	e7f5      	b.n	4030bc <pio_set_output+0xe>
  4030d0:	6301      	str	r1, [r0, #48]	; 0x30
  4030d2:	e7f5      	b.n	4030c0 <pio_set_output+0x12>

004030d4 <pio_get_interrupt_status>:
  4030d4:	6cc0      	ldr	r0, [r0, #76]	; 0x4c
  4030d6:	4770      	bx	lr

004030d8 <pio_get_interrupt_mask>:
  4030d8:	6c80      	ldr	r0, [r0, #72]	; 0x48
  4030da:	4770      	bx	lr

004030dc <pio_toggle_pin_group>:
  4030dc:	6b83      	ldr	r3, [r0, #56]	; 0x38
  4030de:	420b      	tst	r3, r1
  4030e0:	bf14      	ite	ne
  4030e2:	6341      	strne	r1, [r0, #52]	; 0x34
  4030e4:	6301      	streq	r1, [r0, #48]	; 0x30
  4030e6:	4770      	bx	lr

004030e8 <pmc_switch_mck_to_pllack>:
  4030e8:	4a17      	ldr	r2, [pc, #92]	; (403148 <pmc_switch_mck_to_pllack+0x60>)
  4030ea:	6b13      	ldr	r3, [r2, #48]	; 0x30
  4030ec:	f023 0370 	bic.w	r3, r3, #112	; 0x70
  4030f0:	4318      	orrs	r0, r3
  4030f2:	6310      	str	r0, [r2, #48]	; 0x30
  4030f4:	6e93      	ldr	r3, [r2, #104]	; 0x68
  4030f6:	f013 0f08 	tst.w	r3, #8
  4030fa:	d10a      	bne.n	403112 <pmc_switch_mck_to_pllack+0x2a>
  4030fc:	f44f 6300 	mov.w	r3, #2048	; 0x800
  403100:	4911      	ldr	r1, [pc, #68]	; (403148 <pmc_switch_mck_to_pllack+0x60>)
  403102:	6e8a      	ldr	r2, [r1, #104]	; 0x68
  403104:	f012 0f08 	tst.w	r2, #8
  403108:	d103      	bne.n	403112 <pmc_switch_mck_to_pllack+0x2a>
  40310a:	3b01      	subs	r3, #1
  40310c:	d1f9      	bne.n	403102 <pmc_switch_mck_to_pllack+0x1a>
  40310e:	2001      	movs	r0, #1
  403110:	4770      	bx	lr
  403112:	4a0d      	ldr	r2, [pc, #52]	; (403148 <pmc_switch_mck_to_pllack+0x60>)
  403114:	6b13      	ldr	r3, [r2, #48]	; 0x30
  403116:	f023 0303 	bic.w	r3, r3, #3
  40311a:	f043 0302 	orr.w	r3, r3, #2
  40311e:	6313      	str	r3, [r2, #48]	; 0x30
  403120:	6e93      	ldr	r3, [r2, #104]	; 0x68
  403122:	f013 0f08 	tst.w	r3, #8
  403126:	d10a      	bne.n	40313e <pmc_switch_mck_to_pllack+0x56>
  403128:	f44f 6300 	mov.w	r3, #2048	; 0x800
  40312c:	4906      	ldr	r1, [pc, #24]	; (403148 <pmc_switch_mck_to_pllack+0x60>)
  40312e:	6e8a      	ldr	r2, [r1, #104]	; 0x68
  403130:	f012 0f08 	tst.w	r2, #8
  403134:	d105      	bne.n	403142 <pmc_switch_mck_to_pllack+0x5a>
  403136:	3b01      	subs	r3, #1
  403138:	d1f9      	bne.n	40312e <pmc_switch_mck_to_pllack+0x46>
  40313a:	2001      	movs	r0, #1
  40313c:	4770      	bx	lr
  40313e:	2000      	movs	r0, #0
  403140:	4770      	bx	lr
  403142:	2000      	movs	r0, #0
  403144:	4770      	bx	lr
  403146:	bf00      	nop
  403148:	400e0400 	.word	0x400e0400

0040314c <pmc_switch_mainck_to_xtal>:
  40314c:	b9c8      	cbnz	r0, 403182 <pmc_switch_mainck_to_xtal+0x36>
  40314e:	4a11      	ldr	r2, [pc, #68]	; (403194 <pmc_switch_mainck_to_xtal+0x48>)
  403150:	6a13      	ldr	r3, [r2, #32]
  403152:	0209      	lsls	r1, r1, #8
  403154:	b289      	uxth	r1, r1
  403156:	f423 135c 	bic.w	r3, r3, #3604480	; 0x370000
  40315a:	f023 0303 	bic.w	r3, r3, #3
  40315e:	f443 135c 	orr.w	r3, r3, #3604480	; 0x370000
  403162:	f043 0301 	orr.w	r3, r3, #1
  403166:	430b      	orrs	r3, r1
  403168:	6213      	str	r3, [r2, #32]
  40316a:	6e93      	ldr	r3, [r2, #104]	; 0x68
  40316c:	f013 0f01 	tst.w	r3, #1
  403170:	d0fb      	beq.n	40316a <pmc_switch_mainck_to_xtal+0x1e>
  403172:	4a08      	ldr	r2, [pc, #32]	; (403194 <pmc_switch_mainck_to_xtal+0x48>)
  403174:	6a13      	ldr	r3, [r2, #32]
  403176:	f043 739b 	orr.w	r3, r3, #20316160	; 0x1360000
  40317a:	f443 3380 	orr.w	r3, r3, #65536	; 0x10000
  40317e:	6213      	str	r3, [r2, #32]
  403180:	4770      	bx	lr
  403182:	4904      	ldr	r1, [pc, #16]	; (403194 <pmc_switch_mainck_to_xtal+0x48>)
  403184:	6a0b      	ldr	r3, [r1, #32]
  403186:	4a04      	ldr	r2, [pc, #16]	; (403198 <pmc_switch_mainck_to_xtal+0x4c>)
  403188:	401a      	ands	r2, r3
  40318a:	4b04      	ldr	r3, [pc, #16]	; (40319c <pmc_switch_mainck_to_xtal+0x50>)
  40318c:	4313      	orrs	r3, r2
  40318e:	620b      	str	r3, [r1, #32]
  403190:	4770      	bx	lr
  403192:	bf00      	nop
  403194:	400e0400 	.word	0x400e0400
  403198:	fec8fffc 	.word	0xfec8fffc
  40319c:	01370002 	.word	0x01370002

004031a0 <pmc_osc_is_ready_mainck>:
  4031a0:	4b02      	ldr	r3, [pc, #8]	; (4031ac <pmc_osc_is_ready_mainck+0xc>)
  4031a2:	6e98      	ldr	r0, [r3, #104]	; 0x68
  4031a4:	f400 3080 	and.w	r0, r0, #65536	; 0x10000
  4031a8:	4770      	bx	lr
  4031aa:	bf00      	nop
  4031ac:	400e0400 	.word	0x400e0400

004031b0 <pmc_disable_pllack>:
  4031b0:	f04f 5200 	mov.w	r2, #536870912	; 0x20000000
  4031b4:	4b01      	ldr	r3, [pc, #4]	; (4031bc <pmc_disable_pllack+0xc>)
  4031b6:	629a      	str	r2, [r3, #40]	; 0x28
  4031b8:	4770      	bx	lr
  4031ba:	bf00      	nop
  4031bc:	400e0400 	.word	0x400e0400

004031c0 <pmc_is_locked_pllack>:
  4031c0:	4b02      	ldr	r3, [pc, #8]	; (4031cc <pmc_is_locked_pllack+0xc>)
  4031c2:	6e98      	ldr	r0, [r3, #104]	; 0x68
  4031c4:	f000 0002 	and.w	r0, r0, #2
  4031c8:	4770      	bx	lr
  4031ca:	bf00      	nop
  4031cc:	400e0400 	.word	0x400e0400

004031d0 <pmc_disable_pllbck>:
  4031d0:	2200      	movs	r2, #0
  4031d2:	4b01      	ldr	r3, [pc, #4]	; (4031d8 <pmc_disable_pllbck+0x8>)
  4031d4:	62da      	str	r2, [r3, #44]	; 0x2c
  4031d6:	4770      	bx	lr
  4031d8:	400e0400 	.word	0x400e0400

004031dc <pmc_is_locked_pllbck>:
  4031dc:	4b02      	ldr	r3, [pc, #8]	; (4031e8 <pmc_is_locked_pllbck+0xc>)
  4031de:	6e98      	ldr	r0, [r3, #104]	; 0x68
  4031e0:	f000 0004 	and.w	r0, r0, #4
  4031e4:	4770      	bx	lr
  4031e6:	bf00      	nop
  4031e8:	400e0400 	.word	0x400e0400

004031ec <pmc_enable_periph_clk>:
  4031ec:	2822      	cmp	r0, #34	; 0x22
  4031ee:	d81e      	bhi.n	40322e <pmc_enable_periph_clk+0x42>
  4031f0:	281f      	cmp	r0, #31
  4031f2:	d80c      	bhi.n	40320e <pmc_enable_periph_clk+0x22>
  4031f4:	4b11      	ldr	r3, [pc, #68]	; (40323c <pmc_enable_periph_clk+0x50>)
  4031f6:	699a      	ldr	r2, [r3, #24]
  4031f8:	2301      	movs	r3, #1
  4031fa:	4083      	lsls	r3, r0
  4031fc:	4393      	bics	r3, r2
  4031fe:	d018      	beq.n	403232 <pmc_enable_periph_clk+0x46>
  403200:	2301      	movs	r3, #1
  403202:	fa03 f000 	lsl.w	r0, r3, r0
  403206:	4b0d      	ldr	r3, [pc, #52]	; (40323c <pmc_enable_periph_clk+0x50>)
  403208:	6118      	str	r0, [r3, #16]
  40320a:	2000      	movs	r0, #0
  40320c:	4770      	bx	lr
  40320e:	3820      	subs	r0, #32
  403210:	4b0a      	ldr	r3, [pc, #40]	; (40323c <pmc_enable_periph_clk+0x50>)
  403212:	f8d3 2108 	ldr.w	r2, [r3, #264]	; 0x108
  403216:	2301      	movs	r3, #1
  403218:	4083      	lsls	r3, r0
  40321a:	4393      	bics	r3, r2
  40321c:	d00b      	beq.n	403236 <pmc_enable_periph_clk+0x4a>
  40321e:	2301      	movs	r3, #1
  403220:	fa03 f000 	lsl.w	r0, r3, r0
  403224:	4b05      	ldr	r3, [pc, #20]	; (40323c <pmc_enable_periph_clk+0x50>)
  403226:	f8c3 0100 	str.w	r0, [r3, #256]	; 0x100
  40322a:	2000      	movs	r0, #0
  40322c:	4770      	bx	lr
  40322e:	2001      	movs	r0, #1
  403230:	4770      	bx	lr
  403232:	2000      	movs	r0, #0
  403234:	4770      	bx	lr
  403236:	2000      	movs	r0, #0
  403238:	4770      	bx	lr
  40323a:	bf00      	nop
  40323c:	400e0400 	.word	0x400e0400

00403240 <pmc_disable_periph_clk>:
  403240:	2822      	cmp	r0, #34	; 0x22
  403242:	d822      	bhi.n	40328a <pmc_disable_periph_clk+0x4a>
  403244:	281f      	cmp	r0, #31
  403246:	d80e      	bhi.n	403266 <pmc_disable_periph_clk+0x26>
  403248:	4b11      	ldr	r3, [pc, #68]	; (403290 <pmc_disable_periph_clk+0x50>)
  40324a:	699a      	ldr	r2, [r3, #24]
  40324c:	2301      	movs	r3, #1
  40324e:	4083      	lsls	r3, r0
  403250:	4393      	bics	r3, r2
  403252:	d001      	beq.n	403258 <pmc_disable_periph_clk+0x18>
  403254:	2000      	movs	r0, #0
  403256:	4770      	bx	lr
  403258:	2301      	movs	r3, #1
  40325a:	fa03 f000 	lsl.w	r0, r3, r0
  40325e:	4b0c      	ldr	r3, [pc, #48]	; (403290 <pmc_disable_periph_clk+0x50>)
  403260:	6158      	str	r0, [r3, #20]
  403262:	2000      	movs	r0, #0
  403264:	4770      	bx	lr
  403266:	3820      	subs	r0, #32
  403268:	4b09      	ldr	r3, [pc, #36]	; (403290 <pmc_disable_periph_clk+0x50>)
  40326a:	f8d3 2108 	ldr.w	r2, [r3, #264]	; 0x108
  40326e:	2301      	movs	r3, #1
  403270:	4083      	lsls	r3, r0
  403272:	4393      	bics	r3, r2
  403274:	d001      	beq.n	40327a <pmc_disable_periph_clk+0x3a>
  403276:	2000      	movs	r0, #0
  403278:	4770      	bx	lr
  40327a:	2301      	movs	r3, #1
  40327c:	fa03 f000 	lsl.w	r0, r3, r0
  403280:	4b03      	ldr	r3, [pc, #12]	; (403290 <pmc_disable_periph_clk+0x50>)
  403282:	f8c3 0104 	str.w	r0, [r3, #260]	; 0x104
  403286:	2000      	movs	r0, #0
  403288:	4770      	bx	lr
  40328a:	2001      	movs	r0, #1
  40328c:	4770      	bx	lr
  40328e:	bf00      	nop
  403290:	400e0400 	.word	0x400e0400

00403294 <pmc_switch_udpck_to_pllbck>:
  403294:	0200      	lsls	r0, r0, #8
  403296:	f400 6070 	and.w	r0, r0, #3840	; 0xf00
  40329a:	f040 0001 	orr.w	r0, r0, #1
  40329e:	4b01      	ldr	r3, [pc, #4]	; (4032a4 <pmc_switch_udpck_to_pllbck+0x10>)
  4032a0:	6398      	str	r0, [r3, #56]	; 0x38
  4032a2:	4770      	bx	lr
  4032a4:	400e0400 	.word	0x400e0400

004032a8 <pmc_enable_udpck>:
  4032a8:	2280      	movs	r2, #128	; 0x80
  4032aa:	4b01      	ldr	r3, [pc, #4]	; (4032b0 <pmc_enable_udpck+0x8>)
  4032ac:	601a      	str	r2, [r3, #0]
  4032ae:	4770      	bx	lr
  4032b0:	400e0400 	.word	0x400e0400

004032b4 <pmc_set_fast_startup_input>:
  4032b4:	4b03      	ldr	r3, [pc, #12]	; (4032c4 <pmc_set_fast_startup_input+0x10>)
  4032b6:	6f1a      	ldr	r2, [r3, #112]	; 0x70
  4032b8:	f3c0 0012 	ubfx	r0, r0, #0, #19
  4032bc:	4310      	orrs	r0, r2
  4032be:	6718      	str	r0, [r3, #112]	; 0x70
  4032c0:	4770      	bx	lr
  4032c2:	bf00      	nop
  4032c4:	400e0400 	.word	0x400e0400

004032c8 <tc_init>:
  4032c8:	b410      	push	{r4}
  4032ca:	0189      	lsls	r1, r1, #6
  4032cc:	1843      	adds	r3, r0, r1
  4032ce:	2402      	movs	r4, #2
  4032d0:	5044      	str	r4, [r0, r1]
  4032d2:	f04f 31ff 	mov.w	r1, #4294967295
  4032d6:	6299      	str	r1, [r3, #40]	; 0x28
  4032d8:	6a19      	ldr	r1, [r3, #32]
  4032da:	605a      	str	r2, [r3, #4]
  4032dc:	bc10      	pop	{r4}
  4032de:	4770      	bx	lr

004032e0 <tc_stop>:
  4032e0:	0189      	lsls	r1, r1, #6
  4032e2:	2302      	movs	r3, #2
  4032e4:	5043      	str	r3, [r0, r1]
  4032e6:	4770      	bx	lr

004032e8 <tc_write_rc>:
  4032e8:	eb00 1181 	add.w	r1, r0, r1, lsl #6
  4032ec:	61ca      	str	r2, [r1, #28]
  4032ee:	4770      	bx	lr

004032f0 <tc_enable_interrupt>:
  4032f0:	eb00 1181 	add.w	r1, r0, r1, lsl #6
  4032f4:	624a      	str	r2, [r1, #36]	; 0x24
  4032f6:	4770      	bx	lr

004032f8 <tc_get_status>:
  4032f8:	eb00 1181 	add.w	r1, r0, r1, lsl #6
  4032fc:	6a08      	ldr	r0, [r1, #32]
  4032fe:	4770      	bx	lr

00403300 <pmc_is_wakeup_clocks_restored>:
  403300:	4b02      	ldr	r3, [pc, #8]	; (40330c <pmc_is_wakeup_clocks_restored+0xc>)
  403302:	7818      	ldrb	r0, [r3, #0]
  403304:	f080 0001 	eor.w	r0, r0, #1
  403308:	4770      	bx	lr
  40330a:	bf00      	nop
  40330c:	20000e08 	.word	0x20000e08

00403310 <board_init>:
#include <asf.h>
#include <board.h>
#include <conf_board.h>

void board_init(void)
{
  403310:	4770      	bx	lr

00403312 <Dummy_Handler>:
  403312:	e7fe      	b.n	403312 <Dummy_Handler>

00403314 <Reset_Handler>:
  403314:	b508      	push	{r3, lr}
  403316:	4b1c      	ldr	r3, [pc, #112]	; (403388 <Reset_Handler+0x74>)
  403318:	4a1c      	ldr	r2, [pc, #112]	; (40338c <Reset_Handler+0x78>)
  40331a:	429a      	cmp	r2, r3
  40331c:	d010      	beq.n	403340 <Reset_Handler+0x2c>
  40331e:	4b1c      	ldr	r3, [pc, #112]	; (403390 <Reset_Handler+0x7c>)
  403320:	4a19      	ldr	r2, [pc, #100]	; (403388 <Reset_Handler+0x74>)
  403322:	429a      	cmp	r2, r3
  403324:	d20c      	bcs.n	403340 <Reset_Handler+0x2c>
  403326:	3b01      	subs	r3, #1
  403328:	1a9b      	subs	r3, r3, r2
  40332a:	f023 0303 	bic.w	r3, r3, #3
  40332e:	3304      	adds	r3, #4
  403330:	4413      	add	r3, r2
  403332:	4916      	ldr	r1, [pc, #88]	; (40338c <Reset_Handler+0x78>)
  403334:	f851 0b04 	ldr.w	r0, [r1], #4
  403338:	f842 0b04 	str.w	r0, [r2], #4
  40333c:	429a      	cmp	r2, r3
  40333e:	d1f9      	bne.n	403334 <Reset_Handler+0x20>
  403340:	4b14      	ldr	r3, [pc, #80]	; (403394 <Reset_Handler+0x80>)
  403342:	4a15      	ldr	r2, [pc, #84]	; (403398 <Reset_Handler+0x84>)
  403344:	429a      	cmp	r2, r3
  403346:	d20a      	bcs.n	40335e <Reset_Handler+0x4a>
  403348:	3b01      	subs	r3, #1
  40334a:	1a9b      	subs	r3, r3, r2
  40334c:	f023 0303 	bic.w	r3, r3, #3
  403350:	3304      	adds	r3, #4
  403352:	4413      	add	r3, r2
  403354:	2100      	movs	r1, #0
  403356:	f842 1b04 	str.w	r1, [r2], #4
  40335a:	4293      	cmp	r3, r2
  40335c:	d1fb      	bne.n	403356 <Reset_Handler+0x42>
  40335e:	4b0f      	ldr	r3, [pc, #60]	; (40339c <Reset_Handler+0x88>)
  403360:	f023 4260 	bic.w	r2, r3, #3758096384	; 0xe0000000
  403364:	f022 027f 	bic.w	r2, r2, #127	; 0x7f
  403368:	490d      	ldr	r1, [pc, #52]	; (4033a0 <Reset_Handler+0x8c>)
  40336a:	608a      	str	r2, [r1, #8]
  40336c:	f103 4360 	add.w	r3, r3, #3758096384	; 0xe0000000
  403370:	f5b3 4f80 	cmp.w	r3, #16384	; 0x4000
  403374:	d203      	bcs.n	40337e <Reset_Handler+0x6a>
  403376:	688b      	ldr	r3, [r1, #8]
  403378:	f043 5300 	orr.w	r3, r3, #536870912	; 0x20000000
  40337c:	608b      	str	r3, [r1, #8]
  40337e:	4b09      	ldr	r3, [pc, #36]	; (4033a4 <Reset_Handler+0x90>)
  403380:	4798      	blx	r3
  403382:	4b09      	ldr	r3, [pc, #36]	; (4033a8 <Reset_Handler+0x94>)
  403384:	4798      	blx	r3
  403386:	e7fe      	b.n	403386 <Reset_Handler+0x72>
  403388:	20000000 	.word	0x20000000
  40338c:	00408404 	.word	0x00408404
  403390:	20000bb8 	.word	0x20000bb8
  403394:	20000ed8 	.word	0x20000ed8
  403398:	20000bb8 	.word	0x20000bb8
  40339c:	00400000 	.word	0x00400000
  4033a0:	e000ed00 	.word	0xe000ed00
  4033a4:	00403605 	.word	0x00403605
  4033a8:	004034f5 	.word	0x004034f5

004033ac <SystemCoreClockUpdate>:
  4033ac:	4b3c      	ldr	r3, [pc, #240]	; (4034a0 <SystemCoreClockUpdate+0xf4>)
  4033ae:	6b1b      	ldr	r3, [r3, #48]	; 0x30
  4033b0:	f003 0303 	and.w	r3, r3, #3
  4033b4:	2b03      	cmp	r3, #3
  4033b6:	d80e      	bhi.n	4033d6 <SystemCoreClockUpdate+0x2a>
  4033b8:	e8df f003 	tbb	[pc, r3]
  4033bc:	38381c02 	.word	0x38381c02
  4033c0:	4b38      	ldr	r3, [pc, #224]	; (4034a4 <SystemCoreClockUpdate+0xf8>)
  4033c2:	695b      	ldr	r3, [r3, #20]
  4033c4:	f013 0f80 	tst.w	r3, #128	; 0x80
  4033c8:	bf14      	ite	ne
  4033ca:	f44f 4200 	movne.w	r2, #32768	; 0x8000
  4033ce:	f44f 42fa 	moveq.w	r2, #32000	; 0x7d00
  4033d2:	4b35      	ldr	r3, [pc, #212]	; (4034a8 <SystemCoreClockUpdate+0xfc>)
  4033d4:	601a      	str	r2, [r3, #0]
  4033d6:	4b32      	ldr	r3, [pc, #200]	; (4034a0 <SystemCoreClockUpdate+0xf4>)
  4033d8:	6b1b      	ldr	r3, [r3, #48]	; 0x30
  4033da:	f003 0370 	and.w	r3, r3, #112	; 0x70
  4033de:	2b70      	cmp	r3, #112	; 0x70
  4033e0:	d055      	beq.n	40348e <SystemCoreClockUpdate+0xe2>
  4033e2:	4b2f      	ldr	r3, [pc, #188]	; (4034a0 <SystemCoreClockUpdate+0xf4>)
  4033e4:	6b1a      	ldr	r2, [r3, #48]	; 0x30
  4033e6:	4930      	ldr	r1, [pc, #192]	; (4034a8 <SystemCoreClockUpdate+0xfc>)
  4033e8:	f3c2 1202 	ubfx	r2, r2, #4, #3
  4033ec:	680b      	ldr	r3, [r1, #0]
  4033ee:	40d3      	lsrs	r3, r2
  4033f0:	600b      	str	r3, [r1, #0]
  4033f2:	4770      	bx	lr
  4033f4:	4b2a      	ldr	r3, [pc, #168]	; (4034a0 <SystemCoreClockUpdate+0xf4>)
  4033f6:	6a1b      	ldr	r3, [r3, #32]
  4033f8:	f013 7f80 	tst.w	r3, #16777216	; 0x1000000
  4033fc:	d003      	beq.n	403406 <SystemCoreClockUpdate+0x5a>
  4033fe:	4a2b      	ldr	r2, [pc, #172]	; (4034ac <SystemCoreClockUpdate+0x100>)
  403400:	4b29      	ldr	r3, [pc, #164]	; (4034a8 <SystemCoreClockUpdate+0xfc>)
  403402:	601a      	str	r2, [r3, #0]
  403404:	e7e7      	b.n	4033d6 <SystemCoreClockUpdate+0x2a>
  403406:	4a2a      	ldr	r2, [pc, #168]	; (4034b0 <SystemCoreClockUpdate+0x104>)
  403408:	4b27      	ldr	r3, [pc, #156]	; (4034a8 <SystemCoreClockUpdate+0xfc>)
  40340a:	601a      	str	r2, [r3, #0]
  40340c:	4b24      	ldr	r3, [pc, #144]	; (4034a0 <SystemCoreClockUpdate+0xf4>)
  40340e:	6a1b      	ldr	r3, [r3, #32]
  403410:	f003 0370 	and.w	r3, r3, #112	; 0x70
  403414:	2b10      	cmp	r3, #16
  403416:	d005      	beq.n	403424 <SystemCoreClockUpdate+0x78>
  403418:	2b20      	cmp	r3, #32
  40341a:	d1dc      	bne.n	4033d6 <SystemCoreClockUpdate+0x2a>
  40341c:	4a23      	ldr	r2, [pc, #140]	; (4034ac <SystemCoreClockUpdate+0x100>)
  40341e:	4b22      	ldr	r3, [pc, #136]	; (4034a8 <SystemCoreClockUpdate+0xfc>)
  403420:	601a      	str	r2, [r3, #0]
  403422:	e7d8      	b.n	4033d6 <SystemCoreClockUpdate+0x2a>
  403424:	4a23      	ldr	r2, [pc, #140]	; (4034b4 <SystemCoreClockUpdate+0x108>)
  403426:	4b20      	ldr	r3, [pc, #128]	; (4034a8 <SystemCoreClockUpdate+0xfc>)
  403428:	601a      	str	r2, [r3, #0]
  40342a:	e7d4      	b.n	4033d6 <SystemCoreClockUpdate+0x2a>
  40342c:	4b1c      	ldr	r3, [pc, #112]	; (4034a0 <SystemCoreClockUpdate+0xf4>)
  40342e:	6a1b      	ldr	r3, [r3, #32]
  403430:	f013 7f80 	tst.w	r3, #16777216	; 0x1000000
  403434:	d018      	beq.n	403468 <SystemCoreClockUpdate+0xbc>
  403436:	4a1d      	ldr	r2, [pc, #116]	; (4034ac <SystemCoreClockUpdate+0x100>)
  403438:	4b1b      	ldr	r3, [pc, #108]	; (4034a8 <SystemCoreClockUpdate+0xfc>)
  40343a:	601a      	str	r2, [r3, #0]
  40343c:	4b18      	ldr	r3, [pc, #96]	; (4034a0 <SystemCoreClockUpdate+0xf4>)
  40343e:	6b1b      	ldr	r3, [r3, #48]	; 0x30
  403440:	f003 0303 	and.w	r3, r3, #3
  403444:	2b02      	cmp	r3, #2
  403446:	4a16      	ldr	r2, [pc, #88]	; (4034a0 <SystemCoreClockUpdate+0xf4>)
  403448:	bf07      	ittee	eq
  40344a:	6a91      	ldreq	r1, [r2, #40]	; 0x28
  40344c:	6a92      	ldreq	r2, [r2, #40]	; 0x28
  40344e:	6ad1      	ldrne	r1, [r2, #44]	; 0x2c
  403450:	6ad2      	ldrne	r2, [r2, #44]	; 0x2c
  403452:	4815      	ldr	r0, [pc, #84]	; (4034a8 <SystemCoreClockUpdate+0xfc>)
  403454:	f3c1 410a 	ubfx	r1, r1, #16, #11
  403458:	6803      	ldr	r3, [r0, #0]
  40345a:	fb01 3303 	mla	r3, r1, r3, r3
  40345e:	b2d2      	uxtb	r2, r2
  403460:	fbb3 f3f2 	udiv	r3, r3, r2
  403464:	6003      	str	r3, [r0, #0]
  403466:	e7b6      	b.n	4033d6 <SystemCoreClockUpdate+0x2a>
  403468:	4a11      	ldr	r2, [pc, #68]	; (4034b0 <SystemCoreClockUpdate+0x104>)
  40346a:	4b0f      	ldr	r3, [pc, #60]	; (4034a8 <SystemCoreClockUpdate+0xfc>)
  40346c:	601a      	str	r2, [r3, #0]
  40346e:	4b0c      	ldr	r3, [pc, #48]	; (4034a0 <SystemCoreClockUpdate+0xf4>)
  403470:	6a1b      	ldr	r3, [r3, #32]
  403472:	f003 0370 	and.w	r3, r3, #112	; 0x70
  403476:	2b10      	cmp	r3, #16
  403478:	d005      	beq.n	403486 <SystemCoreClockUpdate+0xda>
  40347a:	2b20      	cmp	r3, #32
  40347c:	d1de      	bne.n	40343c <SystemCoreClockUpdate+0x90>
  40347e:	4a0b      	ldr	r2, [pc, #44]	; (4034ac <SystemCoreClockUpdate+0x100>)
  403480:	4b09      	ldr	r3, [pc, #36]	; (4034a8 <SystemCoreClockUpdate+0xfc>)
  403482:	601a      	str	r2, [r3, #0]
  403484:	e7da      	b.n	40343c <SystemCoreClockUpdate+0x90>
  403486:	4a0b      	ldr	r2, [pc, #44]	; (4034b4 <SystemCoreClockUpdate+0x108>)
  403488:	4b07      	ldr	r3, [pc, #28]	; (4034a8 <SystemCoreClockUpdate+0xfc>)
  40348a:	601a      	str	r2, [r3, #0]
  40348c:	e7d6      	b.n	40343c <SystemCoreClockUpdate+0x90>
  40348e:	4a06      	ldr	r2, [pc, #24]	; (4034a8 <SystemCoreClockUpdate+0xfc>)
  403490:	6813      	ldr	r3, [r2, #0]
  403492:	4909      	ldr	r1, [pc, #36]	; (4034b8 <SystemCoreClockUpdate+0x10c>)
  403494:	fba1 1303 	umull	r1, r3, r1, r3
  403498:	085b      	lsrs	r3, r3, #1
  40349a:	6013      	str	r3, [r2, #0]
  40349c:	4770      	bx	lr
  40349e:	bf00      	nop
  4034a0:	400e0400 	.word	0x400e0400
  4034a4:	400e1410 	.word	0x400e1410
  4034a8:	20000204 	.word	0x20000204
  4034ac:	00b71b00 	.word	0x00b71b00
  4034b0:	003d0900 	.word	0x003d0900
  4034b4:	007a1200 	.word	0x007a1200
  4034b8:	aaaaaaab 	.word	0xaaaaaaab

004034bc <_sbrk>:
  4034bc:	4b0a      	ldr	r3, [pc, #40]	; (4034e8 <_sbrk+0x2c>)
  4034be:	681b      	ldr	r3, [r3, #0]
  4034c0:	b153      	cbz	r3, 4034d8 <_sbrk+0x1c>
  4034c2:	4b09      	ldr	r3, [pc, #36]	; (4034e8 <_sbrk+0x2c>)
  4034c4:	681b      	ldr	r3, [r3, #0]
  4034c6:	181a      	adds	r2, r3, r0
  4034c8:	4908      	ldr	r1, [pc, #32]	; (4034ec <_sbrk+0x30>)
  4034ca:	4291      	cmp	r1, r2
  4034cc:	db08      	blt.n	4034e0 <_sbrk+0x24>
  4034ce:	4610      	mov	r0, r2
  4034d0:	4a05      	ldr	r2, [pc, #20]	; (4034e8 <_sbrk+0x2c>)
  4034d2:	6010      	str	r0, [r2, #0]
  4034d4:	4618      	mov	r0, r3
  4034d6:	4770      	bx	lr
  4034d8:	4a05      	ldr	r2, [pc, #20]	; (4034f0 <_sbrk+0x34>)
  4034da:	4b03      	ldr	r3, [pc, #12]	; (4034e8 <_sbrk+0x2c>)
  4034dc:	601a      	str	r2, [r3, #0]
  4034de:	e7f0      	b.n	4034c2 <_sbrk+0x6>
  4034e0:	f04f 30ff 	mov.w	r0, #4294967295
  4034e4:	4770      	bx	lr
  4034e6:	bf00      	nop
  4034e8:	20000e0c 	.word	0x20000e0c
  4034ec:	2000bffc 	.word	0x2000bffc
  4034f0:	20002ed8 	.word	0x20002ed8

004034f4 <main>:

daq_measured_data_t calc_data;
uint16_t debug_out [40];

int main (void)
{
  4034f4:	e92d 43f0 	stmdb	sp!, {r4, r5, r6, r7, r8, r9, lr}
  4034f8:	b08d      	sub	sp, #52	; 0x34
	/* Insert system clock initialization code here (sysclk_init()). */
	wdt_disable(WDT);
  4034fa:	4836      	ldr	r0, [pc, #216]	; (4035d4 <main+0xe0>)
  4034fc:	4b36      	ldr	r3, [pc, #216]	; (4035d8 <main+0xe4>)
  4034fe:	4798      	blx	r3
	sysclk_init(); // clock init, ASF
  403500:	4b36      	ldr	r3, [pc, #216]	; (4035dc <main+0xe8>)
  403502:	4798      	blx	r3
	board_init();  // ASF function, empty function??
  403504:	4b36      	ldr	r3, [pc, #216]	; (4035e0 <main+0xec>)
  403506:	4798      	blx	r3
	core_init(); //core.c init
  403508:	4b36      	ldr	r3, [pc, #216]	; (4035e4 <main+0xf0>)
  40350a:	4798      	blx	r3
  
  /* Initialize pointer to communicate interface */
  COM_t *USB = getComInterface();
  40350c:	4b36      	ldr	r3, [pc, #216]	; (4035e8 <main+0xf4>)
  40350e:	4798      	blx	r3
  403510:	4604      	mov	r4, r0
  /* Initialize communicate interface */
  USB->init(NULL);
  403512:	6803      	ldr	r3, [r0, #0]
  403514:	2000      	movs	r0, #0
  403516:	4798      	blx	r3
  
  /* Structure with all the settings */
  daq_settings_t master_settings;
  
  /* Fill with some presets. */
  master_settings.acquisitionNbr = 4;
  403518:	2304      	movs	r3, #4
  40351a:	f8ad 301a 	strh.w	r3, [sp, #26]
  master_settings.acqusitionTime = 10000;
  40351e:	f242 7210 	movw	r2, #10000	; 0x2710
  403522:	f8ad 2018 	strh.w	r2, [sp, #24]
  master_settings.averaging = 6;
  403526:	2206      	movs	r2, #6
  403528:	f8ad 201c 	strh.w	r2, [sp, #28]
  master_settings.sequence[0] = 1;
  40352c:	2201      	movs	r2, #1
  40352e:	f88d 2024 	strb.w	r2, [sp, #36]	; 0x24
  master_settings.sequence[1] = 2;
  403532:	2202      	movs	r2, #2
  403534:	f88d 2025 	strb.w	r2, [sp, #37]	; 0x25
  master_settings.sequence[2] = 3;
  403538:	2203      	movs	r2, #3
  40353a:	f88d 2026 	strb.w	r2, [sp, #38]	; 0x26
  master_settings.sequence[3] = 4;
  40353e:	f88d 3027 	strb.w	r3, [sp, #39]	; 0x27
  master_settings.binMode = (uint8_t)ASCII_MODE;
  403542:	2300      	movs	r3, #0
  403544:	f88d 3028 	strb.w	r3, [sp, #40]	; 0x28
  master_settings.DACval[0] = 2000;
  403548:	f44f 63fa 	mov.w	r3, #2000	; 0x7d0
  40354c:	f8ad 301e 	strh.w	r3, [sp, #30]
  master_settings.DACval[1] = 2000;
  403550:	f8ad 3020 	strh.w	r3, [sp, #32]
  master_settings.com = USB;
  403554:	940b      	str	r4, [sp, #44]	; 0x2c
  
  core_configure(&master_settings);
  403556:	a806      	add	r0, sp, #24
  403558:	4b24      	ldr	r3, [pc, #144]	; (4035ec <main+0xf8>)
  40355a:	4798      	blx	r3
  while(1)
  {
    CMD_t incomingCMD;
    if(USB->available())
    {
      if (parseCommand(USB->read(), &incomingCMD, USB))
  40355c:	4f24      	ldr	r7, [pc, #144]	; (4035f0 <main+0xfc>)
          USB->len = sprintf((char*)USB->buf, "ERROR setting command\n\r");
        }
      } 
      else
      {
        USB->len = sprintf((char*)USB->buf, "Command syntax ERROR\n\r");
  40355e:	f8df 8094 	ldr.w	r8, [pc, #148]	; 4035f4 <main+0x100>
          USB->len = sprintf((char*)USB->buf, "ERROR setting command\n\r");
  403562:	f8df 9094 	ldr.w	r9, [pc, #148]	; 4035f8 <main+0x104>
  403566:	e015      	b.n	403594 <main+0xa0>
        USB->len = sprintf((char*)USB->buf, "Command syntax ERROR\n\r");
  403568:	4645      	mov	r5, r8
  40356a:	cd0f      	ldmia	r5!, {r0, r1, r2, r3}
  40356c:	6160      	str	r0, [r4, #20]
  40356e:	61a1      	str	r1, [r4, #24]
  403570:	61e2      	str	r2, [r4, #28]
  403572:	6223      	str	r3, [r4, #32]
  403574:	6828      	ldr	r0, [r5, #0]
  403576:	6260      	str	r0, [r4, #36]	; 0x24
  403578:	88aa      	ldrh	r2, [r5, #4]
  40357a:	79ab      	ldrb	r3, [r5, #6]
  40357c:	8522      	strh	r2, [r4, #40]	; 0x28
  40357e:	f884 302a 	strb.w	r3, [r4, #42]	; 0x2a
  403582:	2316      	movs	r3, #22
  403584:	f884 3078 	strb.w	r3, [r4, #120]	; 0x78
      }
      USB->printBuf(USB->buf, USB->len);
  403588:	6923      	ldr	r3, [r4, #16]
  40358a:	f894 1078 	ldrb.w	r1, [r4, #120]	; 0x78
  40358e:	f104 0014 	add.w	r0, r4, #20
  403592:	4798      	blx	r3
    if(USB->available())
  403594:	6863      	ldr	r3, [r4, #4]
  403596:	4798      	blx	r3
  403598:	2800      	cmp	r0, #0
  40359a:	d0fb      	beq.n	403594 <main+0xa0>
      if (parseCommand(USB->read(), &incomingCMD, USB))
  40359c:	68a3      	ldr	r3, [r4, #8]
  40359e:	4798      	blx	r3
  4035a0:	4622      	mov	r2, r4
  4035a2:	4669      	mov	r1, sp
  4035a4:	47b8      	blx	r7
  4035a6:	2800      	cmp	r0, #0
  4035a8:	d0de      	beq.n	403568 <main+0x74>
        if(!incomingCMD.funcPtr(incomingCMD.par, &master_settings, USB))
  4035aa:	4622      	mov	r2, r4
  4035ac:	a906      	add	r1, sp, #24
  4035ae:	a802      	add	r0, sp, #8
  4035b0:	9b01      	ldr	r3, [sp, #4]
  4035b2:	4798      	blx	r3
  4035b4:	2800      	cmp	r0, #0
  4035b6:	d1e7      	bne.n	403588 <main+0x94>
          USB->len = sprintf((char*)USB->buf, "ERROR setting command\n\r");
  4035b8:	464d      	mov	r5, r9
  4035ba:	cd0f      	ldmia	r5!, {r0, r1, r2, r3}
  4035bc:	6160      	str	r0, [r4, #20]
  4035be:	61a1      	str	r1, [r4, #24]
  4035c0:	61e2      	str	r2, [r4, #28]
  4035c2:	6223      	str	r3, [r4, #32]
  4035c4:	cd03      	ldmia	r5!, {r0, r1}
  4035c6:	6260      	str	r0, [r4, #36]	; 0x24
  4035c8:	62a1      	str	r1, [r4, #40]	; 0x28
  4035ca:	2317      	movs	r3, #23
  4035cc:	f884 3078 	strb.w	r3, [r4, #120]	; 0x78
  4035d0:	e7da      	b.n	403588 <main+0x94>
  4035d2:	bf00      	nop
  4035d4:	400e1450 	.word	0x400e1450
  4035d8:	00402641 	.word	0x00402641
  4035dc:	00402f8d 	.word	0x00402f8d
  4035e0:	00403311 	.word	0x00403311
  4035e4:	004026ed 	.word	0x004026ed
  4035e8:	004026a9 	.word	0x004026a9
  4035ec:	00402871 	.word	0x00402871
  4035f0:	00402e15 	.word	0x00402e15
  4035f4:	00408134 	.word	0x00408134
  4035f8:	0040811c 	.word	0x0040811c

004035fc <atoi>:
  4035fc:	220a      	movs	r2, #10
  4035fe:	2100      	movs	r1, #0
  403600:	f000 b9d4 	b.w	4039ac <strtol>

00403604 <__libc_init_array>:
  403604:	b570      	push	{r4, r5, r6, lr}
  403606:	4e0f      	ldr	r6, [pc, #60]	; (403644 <__libc_init_array+0x40>)
  403608:	4d0f      	ldr	r5, [pc, #60]	; (403648 <__libc_init_array+0x44>)
  40360a:	1b76      	subs	r6, r6, r5
  40360c:	10b6      	asrs	r6, r6, #2
  40360e:	bf18      	it	ne
  403610:	2400      	movne	r4, #0
  403612:	d005      	beq.n	403620 <__libc_init_array+0x1c>
  403614:	3401      	adds	r4, #1
  403616:	f855 3b04 	ldr.w	r3, [r5], #4
  40361a:	4798      	blx	r3
  40361c:	42a6      	cmp	r6, r4
  40361e:	d1f9      	bne.n	403614 <__libc_init_array+0x10>
  403620:	4e0a      	ldr	r6, [pc, #40]	; (40364c <__libc_init_array+0x48>)
  403622:	4d0b      	ldr	r5, [pc, #44]	; (403650 <__libc_init_array+0x4c>)
  403624:	f004 fed8 	bl	4083d8 <_init>
  403628:	1b76      	subs	r6, r6, r5
  40362a:	10b6      	asrs	r6, r6, #2
  40362c:	bf18      	it	ne
  40362e:	2400      	movne	r4, #0
  403630:	d006      	beq.n	403640 <__libc_init_array+0x3c>
  403632:	3401      	adds	r4, #1
  403634:	f855 3b04 	ldr.w	r3, [r5], #4
  403638:	4798      	blx	r3
  40363a:	42a6      	cmp	r6, r4
  40363c:	d1f9      	bne.n	403632 <__libc_init_array+0x2e>
  40363e:	bd70      	pop	{r4, r5, r6, pc}
  403640:	bd70      	pop	{r4, r5, r6, pc}
  403642:	bf00      	nop
  403644:	004083e4 	.word	0x004083e4
  403648:	004083e4 	.word	0x004083e4
  40364c:	004083ec 	.word	0x004083ec
  403650:	004083e4 	.word	0x004083e4

00403654 <memcpy>:
  403654:	4684      	mov	ip, r0
  403656:	ea41 0300 	orr.w	r3, r1, r0
  40365a:	f013 0303 	ands.w	r3, r3, #3
  40365e:	d149      	bne.n	4036f4 <memcpy+0xa0>
  403660:	3a40      	subs	r2, #64	; 0x40
  403662:	d323      	bcc.n	4036ac <memcpy+0x58>
  403664:	680b      	ldr	r3, [r1, #0]
  403666:	6003      	str	r3, [r0, #0]
  403668:	684b      	ldr	r3, [r1, #4]
  40366a:	6043      	str	r3, [r0, #4]
  40366c:	688b      	ldr	r3, [r1, #8]
  40366e:	6083      	str	r3, [r0, #8]
  403670:	68cb      	ldr	r3, [r1, #12]
  403672:	60c3      	str	r3, [r0, #12]
  403674:	690b      	ldr	r3, [r1, #16]
  403676:	6103      	str	r3, [r0, #16]
  403678:	694b      	ldr	r3, [r1, #20]
  40367a:	6143      	str	r3, [r0, #20]
  40367c:	698b      	ldr	r3, [r1, #24]
  40367e:	6183      	str	r3, [r0, #24]
  403680:	69cb      	ldr	r3, [r1, #28]
  403682:	61c3      	str	r3, [r0, #28]
  403684:	6a0b      	ldr	r3, [r1, #32]
  403686:	6203      	str	r3, [r0, #32]
  403688:	6a4b      	ldr	r3, [r1, #36]	; 0x24
  40368a:	6243      	str	r3, [r0, #36]	; 0x24
  40368c:	6a8b      	ldr	r3, [r1, #40]	; 0x28
  40368e:	6283      	str	r3, [r0, #40]	; 0x28
  403690:	6acb      	ldr	r3, [r1, #44]	; 0x2c
  403692:	62c3      	str	r3, [r0, #44]	; 0x2c
  403694:	6b0b      	ldr	r3, [r1, #48]	; 0x30
  403696:	6303      	str	r3, [r0, #48]	; 0x30
  403698:	6b4b      	ldr	r3, [r1, #52]	; 0x34
  40369a:	6343      	str	r3, [r0, #52]	; 0x34
  40369c:	6b8b      	ldr	r3, [r1, #56]	; 0x38
  40369e:	6383      	str	r3, [r0, #56]	; 0x38
  4036a0:	6bcb      	ldr	r3, [r1, #60]	; 0x3c
  4036a2:	63c3      	str	r3, [r0, #60]	; 0x3c
  4036a4:	3040      	adds	r0, #64	; 0x40
  4036a6:	3140      	adds	r1, #64	; 0x40
  4036a8:	3a40      	subs	r2, #64	; 0x40
  4036aa:	d2db      	bcs.n	403664 <memcpy+0x10>
  4036ac:	3230      	adds	r2, #48	; 0x30
  4036ae:	d30b      	bcc.n	4036c8 <memcpy+0x74>
  4036b0:	680b      	ldr	r3, [r1, #0]
  4036b2:	6003      	str	r3, [r0, #0]
  4036b4:	684b      	ldr	r3, [r1, #4]
  4036b6:	6043      	str	r3, [r0, #4]
  4036b8:	688b      	ldr	r3, [r1, #8]
  4036ba:	6083      	str	r3, [r0, #8]
  4036bc:	68cb      	ldr	r3, [r1, #12]
  4036be:	60c3      	str	r3, [r0, #12]
  4036c0:	3010      	adds	r0, #16
  4036c2:	3110      	adds	r1, #16
  4036c4:	3a10      	subs	r2, #16
  4036c6:	d2f3      	bcs.n	4036b0 <memcpy+0x5c>
  4036c8:	320c      	adds	r2, #12
  4036ca:	d305      	bcc.n	4036d8 <memcpy+0x84>
  4036cc:	f851 3b04 	ldr.w	r3, [r1], #4
  4036d0:	f840 3b04 	str.w	r3, [r0], #4
  4036d4:	3a04      	subs	r2, #4
  4036d6:	d2f9      	bcs.n	4036cc <memcpy+0x78>
  4036d8:	3204      	adds	r2, #4
  4036da:	d008      	beq.n	4036ee <memcpy+0x9a>
  4036dc:	07d2      	lsls	r2, r2, #31
  4036de:	bf1c      	itt	ne
  4036e0:	f811 3b01 	ldrbne.w	r3, [r1], #1
  4036e4:	f800 3b01 	strbne.w	r3, [r0], #1
  4036e8:	d301      	bcc.n	4036ee <memcpy+0x9a>
  4036ea:	880b      	ldrh	r3, [r1, #0]
  4036ec:	8003      	strh	r3, [r0, #0]
  4036ee:	4660      	mov	r0, ip
  4036f0:	4770      	bx	lr
  4036f2:	bf00      	nop
  4036f4:	2a08      	cmp	r2, #8
  4036f6:	d313      	bcc.n	403720 <memcpy+0xcc>
  4036f8:	078b      	lsls	r3, r1, #30
  4036fa:	d0b1      	beq.n	403660 <memcpy+0xc>
  4036fc:	f010 0303 	ands.w	r3, r0, #3
  403700:	d0ae      	beq.n	403660 <memcpy+0xc>
  403702:	f1c3 0304 	rsb	r3, r3, #4
  403706:	1ad2      	subs	r2, r2, r3
  403708:	07db      	lsls	r3, r3, #31
  40370a:	bf1c      	itt	ne
  40370c:	f811 3b01 	ldrbne.w	r3, [r1], #1
  403710:	f800 3b01 	strbne.w	r3, [r0], #1
  403714:	d3a4      	bcc.n	403660 <memcpy+0xc>
  403716:	f831 3b02 	ldrh.w	r3, [r1], #2
  40371a:	f820 3b02 	strh.w	r3, [r0], #2
  40371e:	e79f      	b.n	403660 <memcpy+0xc>
  403720:	3a04      	subs	r2, #4
  403722:	d3d9      	bcc.n	4036d8 <memcpy+0x84>
  403724:	3a01      	subs	r2, #1
  403726:	f811 3b01 	ldrb.w	r3, [r1], #1
  40372a:	f800 3b01 	strb.w	r3, [r0], #1
  40372e:	d2f9      	bcs.n	403724 <memcpy+0xd0>
  403730:	780b      	ldrb	r3, [r1, #0]
  403732:	7003      	strb	r3, [r0, #0]
  403734:	784b      	ldrb	r3, [r1, #1]
  403736:	7043      	strb	r3, [r0, #1]
  403738:	788b      	ldrb	r3, [r1, #2]
  40373a:	7083      	strb	r3, [r0, #2]
  40373c:	4660      	mov	r0, ip
  40373e:	4770      	bx	lr

00403740 <memset>:
  403740:	b470      	push	{r4, r5, r6}
  403742:	0786      	lsls	r6, r0, #30
  403744:	d046      	beq.n	4037d4 <memset+0x94>
  403746:	1e54      	subs	r4, r2, #1
  403748:	2a00      	cmp	r2, #0
  40374a:	d041      	beq.n	4037d0 <memset+0x90>
  40374c:	b2ca      	uxtb	r2, r1
  40374e:	4603      	mov	r3, r0
  403750:	e002      	b.n	403758 <memset+0x18>
  403752:	f114 34ff 	adds.w	r4, r4, #4294967295
  403756:	d33b      	bcc.n	4037d0 <memset+0x90>
  403758:	f803 2b01 	strb.w	r2, [r3], #1
  40375c:	079d      	lsls	r5, r3, #30
  40375e:	d1f8      	bne.n	403752 <memset+0x12>
  403760:	2c03      	cmp	r4, #3
  403762:	d92e      	bls.n	4037c2 <memset+0x82>
  403764:	b2cd      	uxtb	r5, r1
  403766:	ea45 2505 	orr.w	r5, r5, r5, lsl #8
  40376a:	2c0f      	cmp	r4, #15
  40376c:	ea45 4505 	orr.w	r5, r5, r5, lsl #16
  403770:	d919      	bls.n	4037a6 <memset+0x66>
  403772:	4626      	mov	r6, r4
  403774:	f103 0210 	add.w	r2, r3, #16
  403778:	3e10      	subs	r6, #16
  40377a:	2e0f      	cmp	r6, #15
  40377c:	f842 5c10 	str.w	r5, [r2, #-16]
  403780:	f842 5c0c 	str.w	r5, [r2, #-12]
  403784:	f842 5c08 	str.w	r5, [r2, #-8]
  403788:	f842 5c04 	str.w	r5, [r2, #-4]
  40378c:	f102 0210 	add.w	r2, r2, #16
  403790:	d8f2      	bhi.n	403778 <memset+0x38>
  403792:	f1a4 0210 	sub.w	r2, r4, #16
  403796:	f022 020f 	bic.w	r2, r2, #15
  40379a:	f004 040f 	and.w	r4, r4, #15
  40379e:	3210      	adds	r2, #16
  4037a0:	2c03      	cmp	r4, #3
  4037a2:	4413      	add	r3, r2
  4037a4:	d90d      	bls.n	4037c2 <memset+0x82>
  4037a6:	461e      	mov	r6, r3
  4037a8:	4622      	mov	r2, r4
  4037aa:	3a04      	subs	r2, #4
  4037ac:	2a03      	cmp	r2, #3
  4037ae:	f846 5b04 	str.w	r5, [r6], #4
  4037b2:	d8fa      	bhi.n	4037aa <memset+0x6a>
  4037b4:	1f22      	subs	r2, r4, #4
  4037b6:	f022 0203 	bic.w	r2, r2, #3
  4037ba:	3204      	adds	r2, #4
  4037bc:	4413      	add	r3, r2
  4037be:	f004 0403 	and.w	r4, r4, #3
  4037c2:	b12c      	cbz	r4, 4037d0 <memset+0x90>
  4037c4:	b2c9      	uxtb	r1, r1
  4037c6:	441c      	add	r4, r3
  4037c8:	f803 1b01 	strb.w	r1, [r3], #1
  4037cc:	429c      	cmp	r4, r3
  4037ce:	d1fb      	bne.n	4037c8 <memset+0x88>
  4037d0:	bc70      	pop	{r4, r5, r6}
  4037d2:	4770      	bx	lr
  4037d4:	4614      	mov	r4, r2
  4037d6:	4603      	mov	r3, r0
  4037d8:	e7c2      	b.n	403760 <memset+0x20>
  4037da:	bf00      	nop

004037dc <sprintf>:
  4037dc:	b40e      	push	{r1, r2, r3}
  4037de:	4601      	mov	r1, r0
  4037e0:	b5f0      	push	{r4, r5, r6, r7, lr}
  4037e2:	f06f 4500 	mvn.w	r5, #2147483648	; 0x80000000
  4037e6:	f44f 7702 	mov.w	r7, #520	; 0x208
  4037ea:	f64f 76ff 	movw	r6, #65535	; 0xffff
  4037ee:	b09c      	sub	sp, #112	; 0x70
  4037f0:	ac21      	add	r4, sp, #132	; 0x84
  4037f2:	f854 2b04 	ldr.w	r2, [r4], #4
  4037f6:	4b0b      	ldr	r3, [pc, #44]	; (403824 <sprintf+0x48>)
  4037f8:	9102      	str	r1, [sp, #8]
  4037fa:	9106      	str	r1, [sp, #24]
  4037fc:	6818      	ldr	r0, [r3, #0]
  4037fe:	a902      	add	r1, sp, #8
  403800:	4623      	mov	r3, r4
  403802:	9401      	str	r4, [sp, #4]
  403804:	f8ad 7014 	strh.w	r7, [sp, #20]
  403808:	9504      	str	r5, [sp, #16]
  40380a:	9507      	str	r5, [sp, #28]
  40380c:	f8ad 6016 	strh.w	r6, [sp, #22]
  403810:	f000 f8e2 	bl	4039d8 <_svfprintf_r>
  403814:	2200      	movs	r2, #0
  403816:	9b02      	ldr	r3, [sp, #8]
  403818:	701a      	strb	r2, [r3, #0]
  40381a:	b01c      	add	sp, #112	; 0x70
  40381c:	e8bd 40f0 	ldmia.w	sp!, {r4, r5, r6, r7, lr}
  403820:	b003      	add	sp, #12
  403822:	4770      	bx	lr
  403824:	20000208 	.word	0x20000208

00403828 <strlen>:
  403828:	f020 0103 	bic.w	r1, r0, #3
  40382c:	f010 0003 	ands.w	r0, r0, #3
  403830:	f1c0 0000 	rsb	r0, r0, #0
  403834:	f851 3b04 	ldr.w	r3, [r1], #4
  403838:	f100 0c04 	add.w	ip, r0, #4
  40383c:	ea4f 0ccc 	mov.w	ip, ip, lsl #3
  403840:	f06f 0200 	mvn.w	r2, #0
  403844:	bf1c      	itt	ne
  403846:	fa22 f20c 	lsrne.w	r2, r2, ip
  40384a:	4313      	orrne	r3, r2
  40384c:	f04f 0c01 	mov.w	ip, #1
  403850:	ea4c 2c0c 	orr.w	ip, ip, ip, lsl #8
  403854:	ea4c 4c0c 	orr.w	ip, ip, ip, lsl #16
  403858:	eba3 020c 	sub.w	r2, r3, ip
  40385c:	ea22 0203 	bic.w	r2, r2, r3
  403860:	ea12 12cc 	ands.w	r2, r2, ip, lsl #7
  403864:	bf04      	itt	eq
  403866:	f851 3b04 	ldreq.w	r3, [r1], #4
  40386a:	3004      	addeq	r0, #4
  40386c:	d0f4      	beq.n	403858 <strlen+0x30>
  40386e:	f1c2 0100 	rsb	r1, r2, #0
  403872:	ea02 0201 	and.w	r2, r2, r1
  403876:	fab2 f282 	clz	r2, r2
  40387a:	f1c2 021f 	rsb	r2, r2, #31
  40387e:	eb00 00d2 	add.w	r0, r0, r2, lsr #3
  403882:	4770      	bx	lr

00403884 <_strtol_l.isra.0>:
  403884:	e92d 4ff8 	stmdb	sp!, {r3, r4, r5, r6, r7, r8, r9, sl, fp, lr}
  403888:	f8dd 9028 	ldr.w	r9, [sp, #40]	; 0x28
  40388c:	460f      	mov	r7, r1
  40388e:	4680      	mov	r8, r0
  403890:	4616      	mov	r6, r2
  403892:	461d      	mov	r5, r3
  403894:	468a      	mov	sl, r1
  403896:	e000      	b.n	40389a <_strtol_l.isra.0+0x16>
  403898:	46a2      	mov	sl, r4
  40389a:	4654      	mov	r4, sl
  40389c:	4648      	mov	r0, r9
  40389e:	f814 bb01 	ldrb.w	fp, [r4], #1
  4038a2:	f002 fc2f 	bl	406104 <__locale_ctype_ptr_l>
  4038a6:	4458      	add	r0, fp
  4038a8:	7842      	ldrb	r2, [r0, #1]
  4038aa:	f012 0208 	ands.w	r2, r2, #8
  4038ae:	d1f3      	bne.n	403898 <_strtol_l.isra.0+0x14>
  4038b0:	f1bb 0f2d 	cmp.w	fp, #45	; 0x2d
  4038b4:	d04f      	beq.n	403956 <_strtol_l.isra.0+0xd2>
  4038b6:	f1bb 0f2b 	cmp.w	fp, #43	; 0x2b
  4038ba:	bf04      	itt	eq
  4038bc:	f894 b000 	ldrbeq.w	fp, [r4]
  4038c0:	f10a 0402 	addeq.w	r4, sl, #2
  4038c4:	b11d      	cbz	r5, 4038ce <_strtol_l.isra.0+0x4a>
  4038c6:	2d10      	cmp	r5, #16
  4038c8:	d056      	beq.n	403978 <_strtol_l.isra.0+0xf4>
  4038ca:	46ac      	mov	ip, r5
  4038cc:	e004      	b.n	4038d8 <_strtol_l.isra.0+0x54>
  4038ce:	f1bb 0f30 	cmp.w	fp, #48	; 0x30
  4038d2:	d060      	beq.n	403996 <_strtol_l.isra.0+0x112>
  4038d4:	250a      	movs	r5, #10
  4038d6:	46ac      	mov	ip, r5
  4038d8:	2a00      	cmp	r2, #0
  4038da:	bf0c      	ite	eq
  4038dc:	f06f 4900 	mvneq.w	r9, #2147483648	; 0x80000000
  4038e0:	f04f 4900 	movne.w	r9, #2147483648	; 0x80000000
  4038e4:	2100      	movs	r1, #0
  4038e6:	fbb9 fefc 	udiv	lr, r9, ip
  4038ea:	4608      	mov	r0, r1
  4038ec:	fb0c 9a1e 	mls	sl, ip, lr, r9
  4038f0:	e005      	b.n	4038fe <_strtol_l.isra.0+0x7a>
  4038f2:	d029      	beq.n	403948 <_strtol_l.isra.0+0xc4>
  4038f4:	2101      	movs	r1, #1
  4038f6:	fb0c 3000 	mla	r0, ip, r0, r3
  4038fa:	f814 bb01 	ldrb.w	fp, [r4], #1
  4038fe:	f1ab 0330 	sub.w	r3, fp, #48	; 0x30
  403902:	2b09      	cmp	r3, #9
  403904:	d905      	bls.n	403912 <_strtol_l.isra.0+0x8e>
  403906:	f1ab 0341 	sub.w	r3, fp, #65	; 0x41
  40390a:	2b19      	cmp	r3, #25
  40390c:	d80b      	bhi.n	403926 <_strtol_l.isra.0+0xa2>
  40390e:	f1ab 0337 	sub.w	r3, fp, #55	; 0x37
  403912:	429d      	cmp	r5, r3
  403914:	dd0f      	ble.n	403936 <_strtol_l.isra.0+0xb2>
  403916:	f1b1 3fff 	cmp.w	r1, #4294967295
  40391a:	d0ee      	beq.n	4038fa <_strtol_l.isra.0+0x76>
  40391c:	4586      	cmp	lr, r0
  40391e:	d2e8      	bcs.n	4038f2 <_strtol_l.isra.0+0x6e>
  403920:	f04f 31ff 	mov.w	r1, #4294967295
  403924:	e7e9      	b.n	4038fa <_strtol_l.isra.0+0x76>
  403926:	f1ab 0361 	sub.w	r3, fp, #97	; 0x61
  40392a:	2b19      	cmp	r3, #25
  40392c:	d803      	bhi.n	403936 <_strtol_l.isra.0+0xb2>
  40392e:	f1ab 0357 	sub.w	r3, fp, #87	; 0x57
  403932:	429d      	cmp	r5, r3
  403934:	dcef      	bgt.n	403916 <_strtol_l.isra.0+0x92>
  403936:	1c4b      	adds	r3, r1, #1
  403938:	d013      	beq.n	403962 <_strtol_l.isra.0+0xde>
  40393a:	b102      	cbz	r2, 40393e <_strtol_l.isra.0+0xba>
  40393c:	4240      	negs	r0, r0
  40393e:	b146      	cbz	r6, 403952 <_strtol_l.isra.0+0xce>
  403940:	b9c1      	cbnz	r1, 403974 <_strtol_l.isra.0+0xf0>
  403942:	6037      	str	r7, [r6, #0]
  403944:	e8bd 8ff8 	ldmia.w	sp!, {r3, r4, r5, r6, r7, r8, r9, sl, fp, pc}
  403948:	459a      	cmp	sl, r3
  40394a:	dad3      	bge.n	4038f4 <_strtol_l.isra.0+0x70>
  40394c:	f04f 31ff 	mov.w	r1, #4294967295
  403950:	e7d3      	b.n	4038fa <_strtol_l.isra.0+0x76>
  403952:	e8bd 8ff8 	ldmia.w	sp!, {r3, r4, r5, r6, r7, r8, r9, sl, fp, pc}
  403956:	f894 b000 	ldrb.w	fp, [r4]
  40395a:	2201      	movs	r2, #1
  40395c:	f10a 0402 	add.w	r4, sl, #2
  403960:	e7b0      	b.n	4038c4 <_strtol_l.isra.0+0x40>
  403962:	2322      	movs	r3, #34	; 0x22
  403964:	f8c8 3000 	str.w	r3, [r8]
  403968:	b1ee      	cbz	r6, 4039a6 <_strtol_l.isra.0+0x122>
  40396a:	1e67      	subs	r7, r4, #1
  40396c:	4648      	mov	r0, r9
  40396e:	6037      	str	r7, [r6, #0]
  403970:	e8bd 8ff8 	ldmia.w	sp!, {r3, r4, r5, r6, r7, r8, r9, sl, fp, pc}
  403974:	4681      	mov	r9, r0
  403976:	e7f8      	b.n	40396a <_strtol_l.isra.0+0xe6>
  403978:	f1bb 0f30 	cmp.w	fp, #48	; 0x30
  40397c:	d1a5      	bne.n	4038ca <_strtol_l.isra.0+0x46>
  40397e:	7823      	ldrb	r3, [r4, #0]
  403980:	f003 03df 	and.w	r3, r3, #223	; 0xdf
  403984:	2b58      	cmp	r3, #88	; 0x58
  403986:	d1a0      	bne.n	4038ca <_strtol_l.isra.0+0x46>
  403988:	f04f 0c10 	mov.w	ip, #16
  40398c:	f894 b001 	ldrb.w	fp, [r4, #1]
  403990:	4665      	mov	r5, ip
  403992:	3402      	adds	r4, #2
  403994:	e7a0      	b.n	4038d8 <_strtol_l.isra.0+0x54>
  403996:	7823      	ldrb	r3, [r4, #0]
  403998:	f003 03df 	and.w	r3, r3, #223	; 0xdf
  40399c:	2b58      	cmp	r3, #88	; 0x58
  40399e:	d0f3      	beq.n	403988 <_strtol_l.isra.0+0x104>
  4039a0:	2508      	movs	r5, #8
  4039a2:	46ac      	mov	ip, r5
  4039a4:	e798      	b.n	4038d8 <_strtol_l.isra.0+0x54>
  4039a6:	4648      	mov	r0, r9
  4039a8:	e8bd 8ff8 	ldmia.w	sp!, {r3, r4, r5, r6, r7, r8, r9, sl, fp, pc}

004039ac <strtol>:
  4039ac:	4b08      	ldr	r3, [pc, #32]	; (4039d0 <strtol+0x24>)
  4039ae:	b570      	push	{r4, r5, r6, lr}
  4039b0:	681d      	ldr	r5, [r3, #0]
  4039b2:	4e08      	ldr	r6, [pc, #32]	; (4039d4 <strtol+0x28>)
  4039b4:	6b6c      	ldr	r4, [r5, #52]	; 0x34
  4039b6:	b082      	sub	sp, #8
  4039b8:	2c00      	cmp	r4, #0
  4039ba:	bf08      	it	eq
  4039bc:	4634      	moveq	r4, r6
  4039be:	4613      	mov	r3, r2
  4039c0:	9400      	str	r4, [sp, #0]
  4039c2:	460a      	mov	r2, r1
  4039c4:	4601      	mov	r1, r0
  4039c6:	4628      	mov	r0, r5
  4039c8:	f7ff ff5c 	bl	403884 <_strtol_l.isra.0>
  4039cc:	b002      	add	sp, #8
  4039ce:	bd70      	pop	{r4, r5, r6, pc}
  4039d0:	20000208 	.word	0x20000208
  4039d4:	2000063c 	.word	0x2000063c

004039d8 <_svfprintf_r>:
  4039d8:	e92d 4ff0 	stmdb	sp!, {r4, r5, r6, r7, r8, r9, sl, fp, lr}
  4039dc:	b0c3      	sub	sp, #268	; 0x10c
  4039de:	460c      	mov	r4, r1
  4039e0:	910b      	str	r1, [sp, #44]	; 0x2c
  4039e2:	4692      	mov	sl, r2
  4039e4:	930f      	str	r3, [sp, #60]	; 0x3c
  4039e6:	900c      	str	r0, [sp, #48]	; 0x30
  4039e8:	f002 fb90 	bl	40610c <_localeconv_r>
  4039ec:	6803      	ldr	r3, [r0, #0]
  4039ee:	4618      	mov	r0, r3
  4039f0:	931a      	str	r3, [sp, #104]	; 0x68
  4039f2:	f7ff ff19 	bl	403828 <strlen>
  4039f6:	89a3      	ldrh	r3, [r4, #12]
  4039f8:	9019      	str	r0, [sp, #100]	; 0x64
  4039fa:	0619      	lsls	r1, r3, #24
  4039fc:	d503      	bpl.n	403a06 <_svfprintf_r+0x2e>
  4039fe:	6923      	ldr	r3, [r4, #16]
  403a00:	2b00      	cmp	r3, #0
  403a02:	f001 8035 	beq.w	404a70 <_svfprintf_r+0x1098>
  403a06:	2300      	movs	r3, #0
  403a08:	f10d 09c8 	add.w	r9, sp, #200	; 0xc8
  403a0c:	46c8      	mov	r8, r9
  403a0e:	9315      	str	r3, [sp, #84]	; 0x54
  403a10:	9313      	str	r3, [sp, #76]	; 0x4c
  403a12:	9314      	str	r3, [sp, #80]	; 0x50
  403a14:	9318      	str	r3, [sp, #96]	; 0x60
  403a16:	931b      	str	r3, [sp, #108]	; 0x6c
  403a18:	9309      	str	r3, [sp, #36]	; 0x24
  403a1a:	9316      	str	r3, [sp, #88]	; 0x58
  403a1c:	9317      	str	r3, [sp, #92]	; 0x5c
  403a1e:	9327      	str	r3, [sp, #156]	; 0x9c
  403a20:	9326      	str	r3, [sp, #152]	; 0x98
  403a22:	f8cd 9094 	str.w	r9, [sp, #148]	; 0x94
  403a26:	f89a 3000 	ldrb.w	r3, [sl]
  403a2a:	4654      	mov	r4, sl
  403a2c:	b1eb      	cbz	r3, 403a6a <_svfprintf_r+0x92>
  403a2e:	2b25      	cmp	r3, #37	; 0x25
  403a30:	d102      	bne.n	403a38 <_svfprintf_r+0x60>
  403a32:	e01a      	b.n	403a6a <_svfprintf_r+0x92>
  403a34:	2b25      	cmp	r3, #37	; 0x25
  403a36:	d003      	beq.n	403a40 <_svfprintf_r+0x68>
  403a38:	f814 3f01 	ldrb.w	r3, [r4, #1]!
  403a3c:	2b00      	cmp	r3, #0
  403a3e:	d1f9      	bne.n	403a34 <_svfprintf_r+0x5c>
  403a40:	eba4 050a 	sub.w	r5, r4, sl
  403a44:	b18d      	cbz	r5, 403a6a <_svfprintf_r+0x92>
  403a46:	9b26      	ldr	r3, [sp, #152]	; 0x98
  403a48:	9a27      	ldr	r2, [sp, #156]	; 0x9c
  403a4a:	3301      	adds	r3, #1
  403a4c:	442a      	add	r2, r5
  403a4e:	2b07      	cmp	r3, #7
  403a50:	f8c8 a000 	str.w	sl, [r8]
  403a54:	f8c8 5004 	str.w	r5, [r8, #4]
  403a58:	9227      	str	r2, [sp, #156]	; 0x9c
  403a5a:	9326      	str	r3, [sp, #152]	; 0x98
  403a5c:	f300 808a 	bgt.w	403b74 <_svfprintf_r+0x19c>
  403a60:	f108 0808 	add.w	r8, r8, #8
  403a64:	9b09      	ldr	r3, [sp, #36]	; 0x24
  403a66:	442b      	add	r3, r5
  403a68:	9309      	str	r3, [sp, #36]	; 0x24
  403a6a:	7823      	ldrb	r3, [r4, #0]
  403a6c:	2b00      	cmp	r3, #0
  403a6e:	f000 8089 	beq.w	403b84 <_svfprintf_r+0x1ac>
  403a72:	2300      	movs	r3, #0
  403a74:	f04f 30ff 	mov.w	r0, #4294967295
  403a78:	461a      	mov	r2, r3
  403a7a:	f88d 3077 	strb.w	r3, [sp, #119]	; 0x77
  403a7e:	4619      	mov	r1, r3
  403a80:	930d      	str	r3, [sp, #52]	; 0x34
  403a82:	469b      	mov	fp, r3
  403a84:	7863      	ldrb	r3, [r4, #1]
  403a86:	f104 0a01 	add.w	sl, r4, #1
  403a8a:	900a      	str	r0, [sp, #40]	; 0x28
  403a8c:	f10a 0a01 	add.w	sl, sl, #1
  403a90:	f1a3 0020 	sub.w	r0, r3, #32
  403a94:	2858      	cmp	r0, #88	; 0x58
  403a96:	f200 83b7 	bhi.w	404208 <_svfprintf_r+0x830>
  403a9a:	e8df f010 	tbh	[pc, r0, lsl #1]
  403a9e:	034c      	.short	0x034c
  403aa0:	03b503b5 	.word	0x03b503b5
  403aa4:	03b50354 	.word	0x03b50354
  403aa8:	03b503b5 	.word	0x03b503b5
  403aac:	03b503b5 	.word	0x03b503b5
  403ab0:	005903b5 	.word	0x005903b5
  403ab4:	03b50359 	.word	0x03b50359
  403ab8:	02140066 	.word	0x02140066
  403abc:	022f03b5 	.word	0x022f03b5
  403ac0:	03a503a5 	.word	0x03a503a5
  403ac4:	03a503a5 	.word	0x03a503a5
  403ac8:	03a503a5 	.word	0x03a503a5
  403acc:	03a503a5 	.word	0x03a503a5
  403ad0:	03b503a5 	.word	0x03b503a5
  403ad4:	03b503b5 	.word	0x03b503b5
  403ad8:	03b503b5 	.word	0x03b503b5
  403adc:	03b503b5 	.word	0x03b503b5
  403ae0:	03b503b5 	.word	0x03b503b5
  403ae4:	028b03b5 	.word	0x028b03b5
  403ae8:	03b502d3 	.word	0x03b502d3
  403aec:	03b502d3 	.word	0x03b502d3
  403af0:	03b503b5 	.word	0x03b503b5
  403af4:	031b03b5 	.word	0x031b03b5
  403af8:	03b503b5 	.word	0x03b503b5
  403afc:	03b50320 	.word	0x03b50320
  403b00:	03b503b5 	.word	0x03b503b5
  403b04:	03b503b5 	.word	0x03b503b5
  403b08:	03b50234 	.word	0x03b50234
  403b0c:	024b03b5 	.word	0x024b03b5
  403b10:	03b503b5 	.word	0x03b503b5
  403b14:	03b503b5 	.word	0x03b503b5
  403b18:	03b503b5 	.word	0x03b503b5
  403b1c:	03b503b5 	.word	0x03b503b5
  403b20:	03b503b5 	.word	0x03b503b5
  403b24:	039e0276 	.word	0x039e0276
  403b28:	02d302d3 	.word	0x02d302d3
  403b2c:	036302d3 	.word	0x036302d3
  403b30:	03b5039e 	.word	0x03b5039e
  403b34:	036803b5 	.word	0x036803b5
  403b38:	037503b5 	.word	0x037503b5
  403b3c:	038c01dd 	.word	0x038c01dd
  403b40:	03b5035e 	.word	0x03b5035e
  403b44:	03b501f2 	.word	0x03b501f2
  403b48:	03b50087 	.word	0x03b50087
  403b4c:	033203b5 	.word	0x033203b5
  403b50:	9c0f      	ldr	r4, [sp, #60]	; 0x3c
  403b52:	6823      	ldr	r3, [r4, #0]
  403b54:	4618      	mov	r0, r3
  403b56:	930d      	str	r3, [sp, #52]	; 0x34
  403b58:	4623      	mov	r3, r4
  403b5a:	2800      	cmp	r0, #0
  403b5c:	f103 0304 	add.w	r3, r3, #4
  403b60:	930f      	str	r3, [sp, #60]	; 0x3c
  403b62:	da04      	bge.n	403b6e <_svfprintf_r+0x196>
  403b64:	9b0d      	ldr	r3, [sp, #52]	; 0x34
  403b66:	425b      	negs	r3, r3
  403b68:	930d      	str	r3, [sp, #52]	; 0x34
  403b6a:	f04b 0b04 	orr.w	fp, fp, #4
  403b6e:	f89a 3000 	ldrb.w	r3, [sl]
  403b72:	e78b      	b.n	403a8c <_svfprintf_r+0xb4>
  403b74:	aa25      	add	r2, sp, #148	; 0x94
  403b76:	990b      	ldr	r1, [sp, #44]	; 0x2c
  403b78:	980c      	ldr	r0, [sp, #48]	; 0x30
  403b7a:	f003 fb0b 	bl	407194 <__ssprint_r>
  403b7e:	b940      	cbnz	r0, 403b92 <_svfprintf_r+0x1ba>
  403b80:	46c8      	mov	r8, r9
  403b82:	e76f      	b.n	403a64 <_svfprintf_r+0x8c>
  403b84:	9b27      	ldr	r3, [sp, #156]	; 0x9c
  403b86:	b123      	cbz	r3, 403b92 <_svfprintf_r+0x1ba>
  403b88:	980c      	ldr	r0, [sp, #48]	; 0x30
  403b8a:	aa25      	add	r2, sp, #148	; 0x94
  403b8c:	990b      	ldr	r1, [sp, #44]	; 0x2c
  403b8e:	f003 fb01 	bl	407194 <__ssprint_r>
  403b92:	9b0b      	ldr	r3, [sp, #44]	; 0x2c
  403b94:	899b      	ldrh	r3, [r3, #12]
  403b96:	f013 0f40 	tst.w	r3, #64	; 0x40
  403b9a:	9b09      	ldr	r3, [sp, #36]	; 0x24
  403b9c:	bf18      	it	ne
  403b9e:	f04f 33ff 	movne.w	r3, #4294967295
  403ba2:	9309      	str	r3, [sp, #36]	; 0x24
  403ba4:	9809      	ldr	r0, [sp, #36]	; 0x24
  403ba6:	b043      	add	sp, #268	; 0x10c
  403ba8:	e8bd 8ff0 	ldmia.w	sp!, {r4, r5, r6, r7, r8, r9, sl, fp, pc}
  403bac:	f01b 0f20 	tst.w	fp, #32
  403bb0:	9311      	str	r3, [sp, #68]	; 0x44
  403bb2:	f040 81af 	bne.w	403f14 <_svfprintf_r+0x53c>
  403bb6:	9a0f      	ldr	r2, [sp, #60]	; 0x3c
  403bb8:	f01b 0f10 	tst.w	fp, #16
  403bbc:	4613      	mov	r3, r2
  403bbe:	f040 859a 	bne.w	4046f6 <_svfprintf_r+0xd1e>
  403bc2:	f01b 0f40 	tst.w	fp, #64	; 0x40
  403bc6:	f000 8596 	beq.w	4046f6 <_svfprintf_r+0xd1e>
  403bca:	2500      	movs	r5, #0
  403bcc:	2301      	movs	r3, #1
  403bce:	8814      	ldrh	r4, [r2, #0]
  403bd0:	3204      	adds	r2, #4
  403bd2:	920f      	str	r2, [sp, #60]	; 0x3c
  403bd4:	2200      	movs	r2, #0
  403bd6:	4617      	mov	r7, r2
  403bd8:	f88d 2077 	strb.w	r2, [sp, #119]	; 0x77
  403bdc:	990a      	ldr	r1, [sp, #40]	; 0x28
  403bde:	1c4a      	adds	r2, r1, #1
  403be0:	f000 8210 	beq.w	404004 <_svfprintf_r+0x62c>
  403be4:	f02b 0280 	bic.w	r2, fp, #128	; 0x80
  403be8:	9207      	str	r2, [sp, #28]
  403bea:	ea54 0205 	orrs.w	r2, r4, r5
  403bee:	f040 820f 	bne.w	404010 <_svfprintf_r+0x638>
  403bf2:	2900      	cmp	r1, #0
  403bf4:	f040 8431 	bne.w	40445a <_svfprintf_r+0xa82>
  403bf8:	2b00      	cmp	r3, #0
  403bfa:	f040 8539 	bne.w	404670 <_svfprintf_r+0xc98>
  403bfe:	f01b 0301 	ands.w	r3, fp, #1
  403c02:	930e      	str	r3, [sp, #56]	; 0x38
  403c04:	f000 8662 	beq.w	4048cc <_svfprintf_r+0xef4>
  403c08:	2330      	movs	r3, #48	; 0x30
  403c0a:	ae42      	add	r6, sp, #264	; 0x108
  403c0c:	f806 3d41 	strb.w	r3, [r6, #-65]!
  403c10:	9b0a      	ldr	r3, [sp, #40]	; 0x28
  403c12:	9a0e      	ldr	r2, [sp, #56]	; 0x38
  403c14:	4293      	cmp	r3, r2
  403c16:	bfb8      	it	lt
  403c18:	4613      	movlt	r3, r2
  403c1a:	9308      	str	r3, [sp, #32]
  403c1c:	2300      	movs	r3, #0
  403c1e:	9312      	str	r3, [sp, #72]	; 0x48
  403c20:	b117      	cbz	r7, 403c28 <_svfprintf_r+0x250>
  403c22:	9b08      	ldr	r3, [sp, #32]
  403c24:	3301      	adds	r3, #1
  403c26:	9308      	str	r3, [sp, #32]
  403c28:	9b07      	ldr	r3, [sp, #28]
  403c2a:	f013 0302 	ands.w	r3, r3, #2
  403c2e:	9310      	str	r3, [sp, #64]	; 0x40
  403c30:	d002      	beq.n	403c38 <_svfprintf_r+0x260>
  403c32:	9b08      	ldr	r3, [sp, #32]
  403c34:	3302      	adds	r3, #2
  403c36:	9308      	str	r3, [sp, #32]
  403c38:	9b07      	ldr	r3, [sp, #28]
  403c3a:	f013 0584 	ands.w	r5, r3, #132	; 0x84
  403c3e:	f040 8310 	bne.w	404262 <_svfprintf_r+0x88a>
  403c42:	9b0d      	ldr	r3, [sp, #52]	; 0x34
  403c44:	9a08      	ldr	r2, [sp, #32]
  403c46:	eba3 0b02 	sub.w	fp, r3, r2
  403c4a:	f1bb 0f00 	cmp.w	fp, #0
  403c4e:	f340 8308 	ble.w	404262 <_svfprintf_r+0x88a>
  403c52:	f1bb 0f10 	cmp.w	fp, #16
  403c56:	f340 87b2 	ble.w	404bbe <_svfprintf_r+0x11e6>
  403c5a:	9c27      	ldr	r4, [sp, #156]	; 0x9c
  403c5c:	4643      	mov	r3, r8
  403c5e:	4621      	mov	r1, r4
  403c60:	46a8      	mov	r8, r5
  403c62:	2710      	movs	r7, #16
  403c64:	9a26      	ldr	r2, [sp, #152]	; 0x98
  403c66:	9c0c      	ldr	r4, [sp, #48]	; 0x30
  403c68:	9d0b      	ldr	r5, [sp, #44]	; 0x2c
  403c6a:	e006      	b.n	403c7a <_svfprintf_r+0x2a2>
  403c6c:	f1ab 0b10 	sub.w	fp, fp, #16
  403c70:	f1bb 0f10 	cmp.w	fp, #16
  403c74:	f103 0308 	add.w	r3, r3, #8
  403c78:	dd18      	ble.n	403cac <_svfprintf_r+0x2d4>
  403c7a:	3201      	adds	r2, #1
  403c7c:	48ab      	ldr	r0, [pc, #684]	; (403f2c <_svfprintf_r+0x554>)
  403c7e:	3110      	adds	r1, #16
  403c80:	2a07      	cmp	r2, #7
  403c82:	9127      	str	r1, [sp, #156]	; 0x9c
  403c84:	9226      	str	r2, [sp, #152]	; 0x98
  403c86:	e883 0081 	stmia.w	r3, {r0, r7}
  403c8a:	ddef      	ble.n	403c6c <_svfprintf_r+0x294>
  403c8c:	aa25      	add	r2, sp, #148	; 0x94
  403c8e:	4629      	mov	r1, r5
  403c90:	4620      	mov	r0, r4
  403c92:	f003 fa7f 	bl	407194 <__ssprint_r>
  403c96:	2800      	cmp	r0, #0
  403c98:	f47f af7b 	bne.w	403b92 <_svfprintf_r+0x1ba>
  403c9c:	f1ab 0b10 	sub.w	fp, fp, #16
  403ca0:	f1bb 0f10 	cmp.w	fp, #16
  403ca4:	464b      	mov	r3, r9
  403ca6:	9927      	ldr	r1, [sp, #156]	; 0x9c
  403ca8:	9a26      	ldr	r2, [sp, #152]	; 0x98
  403caa:	dce6      	bgt.n	403c7a <_svfprintf_r+0x2a2>
  403cac:	4645      	mov	r5, r8
  403cae:	460c      	mov	r4, r1
  403cb0:	4698      	mov	r8, r3
  403cb2:	3201      	adds	r2, #1
  403cb4:	4b9d      	ldr	r3, [pc, #628]	; (403f2c <_svfprintf_r+0x554>)
  403cb6:	445c      	add	r4, fp
  403cb8:	2a07      	cmp	r2, #7
  403cba:	9427      	str	r4, [sp, #156]	; 0x9c
  403cbc:	9226      	str	r2, [sp, #152]	; 0x98
  403cbe:	e888 0808 	stmia.w	r8, {r3, fp}
  403cc2:	f300 82c3 	bgt.w	40424c <_svfprintf_r+0x874>
  403cc6:	f89d 7077 	ldrb.w	r7, [sp, #119]	; 0x77
  403cca:	f108 0808 	add.w	r8, r8, #8
  403cce:	b187      	cbz	r7, 403cf2 <_svfprintf_r+0x31a>
  403cd0:	2101      	movs	r1, #1
  403cd2:	9b26      	ldr	r3, [sp, #152]	; 0x98
  403cd4:	440c      	add	r4, r1
  403cd6:	440b      	add	r3, r1
  403cd8:	f10d 0277 	add.w	r2, sp, #119	; 0x77
  403cdc:	2b07      	cmp	r3, #7
  403cde:	9427      	str	r4, [sp, #156]	; 0x9c
  403ce0:	9326      	str	r3, [sp, #152]	; 0x98
  403ce2:	f8c8 1004 	str.w	r1, [r8, #4]
  403ce6:	f8c8 2000 	str.w	r2, [r8]
  403cea:	f300 83cd 	bgt.w	404488 <_svfprintf_r+0xab0>
  403cee:	f108 0808 	add.w	r8, r8, #8
  403cf2:	9b10      	ldr	r3, [sp, #64]	; 0x40
  403cf4:	b17b      	cbz	r3, 403d16 <_svfprintf_r+0x33e>
  403cf6:	2102      	movs	r1, #2
  403cf8:	9b26      	ldr	r3, [sp, #152]	; 0x98
  403cfa:	440c      	add	r4, r1
  403cfc:	3301      	adds	r3, #1
  403cfe:	aa1e      	add	r2, sp, #120	; 0x78
  403d00:	2b07      	cmp	r3, #7
  403d02:	9427      	str	r4, [sp, #156]	; 0x9c
  403d04:	9326      	str	r3, [sp, #152]	; 0x98
  403d06:	f8c8 1004 	str.w	r1, [r8, #4]
  403d0a:	f8c8 2000 	str.w	r2, [r8]
  403d0e:	f300 8411 	bgt.w	404534 <_svfprintf_r+0xb5c>
  403d12:	f108 0808 	add.w	r8, r8, #8
  403d16:	2d80      	cmp	r5, #128	; 0x80
  403d18:	f000 8304 	beq.w	404324 <_svfprintf_r+0x94c>
  403d1c:	9b0a      	ldr	r3, [sp, #40]	; 0x28
  403d1e:	9a0e      	ldr	r2, [sp, #56]	; 0x38
  403d20:	1a9f      	subs	r7, r3, r2
  403d22:	2f00      	cmp	r7, #0
  403d24:	dd37      	ble.n	403d96 <_svfprintf_r+0x3be>
  403d26:	2f10      	cmp	r7, #16
  403d28:	f340 8679 	ble.w	404a1e <_svfprintf_r+0x1046>
  403d2c:	4d80      	ldr	r5, [pc, #512]	; (403f30 <_svfprintf_r+0x558>)
  403d2e:	4642      	mov	r2, r8
  403d30:	4621      	mov	r1, r4
  403d32:	46b0      	mov	r8, r6
  403d34:	f04f 0b10 	mov.w	fp, #16
  403d38:	462e      	mov	r6, r5
  403d3a:	9b26      	ldr	r3, [sp, #152]	; 0x98
  403d3c:	9c0c      	ldr	r4, [sp, #48]	; 0x30
  403d3e:	9d0b      	ldr	r5, [sp, #44]	; 0x2c
  403d40:	e004      	b.n	403d4c <_svfprintf_r+0x374>
  403d42:	3f10      	subs	r7, #16
  403d44:	2f10      	cmp	r7, #16
  403d46:	f102 0208 	add.w	r2, r2, #8
  403d4a:	dd15      	ble.n	403d78 <_svfprintf_r+0x3a0>
  403d4c:	3301      	adds	r3, #1
  403d4e:	3110      	adds	r1, #16
  403d50:	2b07      	cmp	r3, #7
  403d52:	9127      	str	r1, [sp, #156]	; 0x9c
  403d54:	9326      	str	r3, [sp, #152]	; 0x98
  403d56:	e882 0840 	stmia.w	r2, {r6, fp}
  403d5a:	ddf2      	ble.n	403d42 <_svfprintf_r+0x36a>
  403d5c:	aa25      	add	r2, sp, #148	; 0x94
  403d5e:	4629      	mov	r1, r5
  403d60:	4620      	mov	r0, r4
  403d62:	f003 fa17 	bl	407194 <__ssprint_r>
  403d66:	2800      	cmp	r0, #0
  403d68:	f47f af13 	bne.w	403b92 <_svfprintf_r+0x1ba>
  403d6c:	3f10      	subs	r7, #16
  403d6e:	2f10      	cmp	r7, #16
  403d70:	464a      	mov	r2, r9
  403d72:	9927      	ldr	r1, [sp, #156]	; 0x9c
  403d74:	9b26      	ldr	r3, [sp, #152]	; 0x98
  403d76:	dce9      	bgt.n	403d4c <_svfprintf_r+0x374>
  403d78:	4635      	mov	r5, r6
  403d7a:	460c      	mov	r4, r1
  403d7c:	4646      	mov	r6, r8
  403d7e:	4690      	mov	r8, r2
  403d80:	3301      	adds	r3, #1
  403d82:	443c      	add	r4, r7
  403d84:	2b07      	cmp	r3, #7
  403d86:	9427      	str	r4, [sp, #156]	; 0x9c
  403d88:	9326      	str	r3, [sp, #152]	; 0x98
  403d8a:	e888 00a0 	stmia.w	r8, {r5, r7}
  403d8e:	f300 8370 	bgt.w	404472 <_svfprintf_r+0xa9a>
  403d92:	f108 0808 	add.w	r8, r8, #8
  403d96:	9b07      	ldr	r3, [sp, #28]
  403d98:	05df      	lsls	r7, r3, #23
  403d9a:	f100 8264 	bmi.w	404266 <_svfprintf_r+0x88e>
  403d9e:	9b26      	ldr	r3, [sp, #152]	; 0x98
  403da0:	990e      	ldr	r1, [sp, #56]	; 0x38
  403da2:	3301      	adds	r3, #1
  403da4:	440c      	add	r4, r1
  403da6:	2b07      	cmp	r3, #7
  403da8:	9427      	str	r4, [sp, #156]	; 0x9c
  403daa:	f8c8 6000 	str.w	r6, [r8]
  403dae:	f8c8 1004 	str.w	r1, [r8, #4]
  403db2:	9326      	str	r3, [sp, #152]	; 0x98
  403db4:	f300 83b3 	bgt.w	40451e <_svfprintf_r+0xb46>
  403db8:	f108 0808 	add.w	r8, r8, #8
  403dbc:	9b07      	ldr	r3, [sp, #28]
  403dbe:	075b      	lsls	r3, r3, #29
  403dc0:	d53b      	bpl.n	403e3a <_svfprintf_r+0x462>
  403dc2:	9b0d      	ldr	r3, [sp, #52]	; 0x34
  403dc4:	9a08      	ldr	r2, [sp, #32]
  403dc6:	1a9d      	subs	r5, r3, r2
  403dc8:	2d00      	cmp	r5, #0
  403dca:	dd36      	ble.n	403e3a <_svfprintf_r+0x462>
  403dcc:	2d10      	cmp	r5, #16
  403dce:	f340 8721 	ble.w	404c14 <_svfprintf_r+0x123c>
  403dd2:	2610      	movs	r6, #16
  403dd4:	9b26      	ldr	r3, [sp, #152]	; 0x98
  403dd6:	9f0c      	ldr	r7, [sp, #48]	; 0x30
  403dd8:	f8dd b02c 	ldr.w	fp, [sp, #44]	; 0x2c
  403ddc:	e004      	b.n	403de8 <_svfprintf_r+0x410>
  403dde:	3d10      	subs	r5, #16
  403de0:	2d10      	cmp	r5, #16
  403de2:	f108 0808 	add.w	r8, r8, #8
  403de6:	dd16      	ble.n	403e16 <_svfprintf_r+0x43e>
  403de8:	3301      	adds	r3, #1
  403dea:	4a50      	ldr	r2, [pc, #320]	; (403f2c <_svfprintf_r+0x554>)
  403dec:	3410      	adds	r4, #16
  403dee:	2b07      	cmp	r3, #7
  403df0:	9427      	str	r4, [sp, #156]	; 0x9c
  403df2:	9326      	str	r3, [sp, #152]	; 0x98
  403df4:	e888 0044 	stmia.w	r8, {r2, r6}
  403df8:	ddf1      	ble.n	403dde <_svfprintf_r+0x406>
  403dfa:	aa25      	add	r2, sp, #148	; 0x94
  403dfc:	4659      	mov	r1, fp
  403dfe:	4638      	mov	r0, r7
  403e00:	f003 f9c8 	bl	407194 <__ssprint_r>
  403e04:	2800      	cmp	r0, #0
  403e06:	f47f aec4 	bne.w	403b92 <_svfprintf_r+0x1ba>
  403e0a:	3d10      	subs	r5, #16
  403e0c:	2d10      	cmp	r5, #16
  403e0e:	46c8      	mov	r8, r9
  403e10:	9c27      	ldr	r4, [sp, #156]	; 0x9c
  403e12:	9b26      	ldr	r3, [sp, #152]	; 0x98
  403e14:	dce8      	bgt.n	403de8 <_svfprintf_r+0x410>
  403e16:	3301      	adds	r3, #1
  403e18:	4a44      	ldr	r2, [pc, #272]	; (403f2c <_svfprintf_r+0x554>)
  403e1a:	442c      	add	r4, r5
  403e1c:	2b07      	cmp	r3, #7
  403e1e:	9427      	str	r4, [sp, #156]	; 0x9c
  403e20:	9326      	str	r3, [sp, #152]	; 0x98
  403e22:	e888 0024 	stmia.w	r8, {r2, r5}
  403e26:	dd08      	ble.n	403e3a <_svfprintf_r+0x462>
  403e28:	aa25      	add	r2, sp, #148	; 0x94
  403e2a:	990b      	ldr	r1, [sp, #44]	; 0x2c
  403e2c:	980c      	ldr	r0, [sp, #48]	; 0x30
  403e2e:	f003 f9b1 	bl	407194 <__ssprint_r>
  403e32:	2800      	cmp	r0, #0
  403e34:	f47f aead 	bne.w	403b92 <_svfprintf_r+0x1ba>
  403e38:	9c27      	ldr	r4, [sp, #156]	; 0x9c
  403e3a:	9b09      	ldr	r3, [sp, #36]	; 0x24
  403e3c:	9a0d      	ldr	r2, [sp, #52]	; 0x34
  403e3e:	9908      	ldr	r1, [sp, #32]
  403e40:	428a      	cmp	r2, r1
  403e42:	bfac      	ite	ge
  403e44:	189b      	addge	r3, r3, r2
  403e46:	185b      	addlt	r3, r3, r1
  403e48:	9309      	str	r3, [sp, #36]	; 0x24
  403e4a:	2c00      	cmp	r4, #0
  403e4c:	f040 82fb 	bne.w	404446 <_svfprintf_r+0xa6e>
  403e50:	2300      	movs	r3, #0
  403e52:	46c8      	mov	r8, r9
  403e54:	9326      	str	r3, [sp, #152]	; 0x98
  403e56:	e5e6      	b.n	403a26 <_svfprintf_r+0x4e>
  403e58:	9311      	str	r3, [sp, #68]	; 0x44
  403e5a:	f01b 0320 	ands.w	r3, fp, #32
  403e5e:	f040 8145 	bne.w	4040ec <_svfprintf_r+0x714>
  403e62:	f01b 0210 	ands.w	r2, fp, #16
  403e66:	f040 8466 	bne.w	404736 <_svfprintf_r+0xd5e>
  403e6a:	f01b 0340 	ands.w	r3, fp, #64	; 0x40
  403e6e:	f000 8462 	beq.w	404736 <_svfprintf_r+0xd5e>
  403e72:	990f      	ldr	r1, [sp, #60]	; 0x3c
  403e74:	4613      	mov	r3, r2
  403e76:	460a      	mov	r2, r1
  403e78:	3204      	adds	r2, #4
  403e7a:	880c      	ldrh	r4, [r1, #0]
  403e7c:	2500      	movs	r5, #0
  403e7e:	920f      	str	r2, [sp, #60]	; 0x3c
  403e80:	e6a8      	b.n	403bd4 <_svfprintf_r+0x1fc>
  403e82:	2500      	movs	r5, #0
  403e84:	9a0f      	ldr	r2, [sp, #60]	; 0x3c
  403e86:	9311      	str	r3, [sp, #68]	; 0x44
  403e88:	6816      	ldr	r6, [r2, #0]
  403e8a:	f88d 5077 	strb.w	r5, [sp, #119]	; 0x77
  403e8e:	1d14      	adds	r4, r2, #4
  403e90:	2e00      	cmp	r6, #0
  403e92:	f000 86cd 	beq.w	404c30 <_svfprintf_r+0x1258>
  403e96:	9a0a      	ldr	r2, [sp, #40]	; 0x28
  403e98:	1c53      	adds	r3, r2, #1
  403e9a:	f000 861b 	beq.w	404ad4 <_svfprintf_r+0x10fc>
  403e9e:	4629      	mov	r1, r5
  403ea0:	4630      	mov	r0, r6
  403ea2:	f002 fbfd 	bl	4066a0 <memchr>
  403ea6:	2800      	cmp	r0, #0
  403ea8:	f000 870d 	beq.w	404cc6 <_svfprintf_r+0x12ee>
  403eac:	1b83      	subs	r3, r0, r6
  403eae:	950a      	str	r5, [sp, #40]	; 0x28
  403eb0:	930e      	str	r3, [sp, #56]	; 0x38
  403eb2:	940f      	str	r4, [sp, #60]	; 0x3c
  403eb4:	f8cd b01c 	str.w	fp, [sp, #28]
  403eb8:	ea23 73e3 	bic.w	r3, r3, r3, asr #31
  403ebc:	9308      	str	r3, [sp, #32]
  403ebe:	9512      	str	r5, [sp, #72]	; 0x48
  403ec0:	f89d 7077 	ldrb.w	r7, [sp, #119]	; 0x77
  403ec4:	e6ac      	b.n	403c20 <_svfprintf_r+0x248>
  403ec6:	f89a 3000 	ldrb.w	r3, [sl]
  403eca:	f10a 0401 	add.w	r4, sl, #1
  403ece:	2b2a      	cmp	r3, #42	; 0x2a
  403ed0:	f000 87c2 	beq.w	404e58 <_svfprintf_r+0x1480>
  403ed4:	f1a3 0030 	sub.w	r0, r3, #48	; 0x30
  403ed8:	2809      	cmp	r0, #9
  403eda:	46a2      	mov	sl, r4
  403edc:	f200 8718 	bhi.w	404d10 <_svfprintf_r+0x1338>
  403ee0:	2300      	movs	r3, #0
  403ee2:	461c      	mov	r4, r3
  403ee4:	f81a 3b01 	ldrb.w	r3, [sl], #1
  403ee8:	eb04 0484 	add.w	r4, r4, r4, lsl #2
  403eec:	eb00 0444 	add.w	r4, r0, r4, lsl #1
  403ef0:	f1a3 0030 	sub.w	r0, r3, #48	; 0x30
  403ef4:	2809      	cmp	r0, #9
  403ef6:	d9f5      	bls.n	403ee4 <_svfprintf_r+0x50c>
  403ef8:	940a      	str	r4, [sp, #40]	; 0x28
  403efa:	e5c9      	b.n	403a90 <_svfprintf_r+0xb8>
  403efc:	f04b 0b80 	orr.w	fp, fp, #128	; 0x80
  403f00:	f89a 3000 	ldrb.w	r3, [sl]
  403f04:	e5c2      	b.n	403a8c <_svfprintf_r+0xb4>
  403f06:	f04b 0b10 	orr.w	fp, fp, #16
  403f0a:	f01b 0f20 	tst.w	fp, #32
  403f0e:	9311      	str	r3, [sp, #68]	; 0x44
  403f10:	f43f ae51 	beq.w	403bb6 <_svfprintf_r+0x1de>
  403f14:	9c0f      	ldr	r4, [sp, #60]	; 0x3c
  403f16:	3407      	adds	r4, #7
  403f18:	f024 0307 	bic.w	r3, r4, #7
  403f1c:	f103 0208 	add.w	r2, r3, #8
  403f20:	e9d3 4500 	ldrd	r4, r5, [r3]
  403f24:	920f      	str	r2, [sp, #60]	; 0x3c
  403f26:	2301      	movs	r3, #1
  403f28:	e654      	b.n	403bd4 <_svfprintf_r+0x1fc>
  403f2a:	bf00      	nop
  403f2c:	00408194 	.word	0x00408194
  403f30:	004081a4 	.word	0x004081a4
  403f34:	9311      	str	r3, [sp, #68]	; 0x44
  403f36:	2a00      	cmp	r2, #0
  403f38:	f040 87ad 	bne.w	404e96 <_svfprintf_r+0x14be>
  403f3c:	4bbe      	ldr	r3, [pc, #760]	; (404238 <_svfprintf_r+0x860>)
  403f3e:	f01b 0f20 	tst.w	fp, #32
  403f42:	9318      	str	r3, [sp, #96]	; 0x60
  403f44:	f040 80e7 	bne.w	404116 <_svfprintf_r+0x73e>
  403f48:	9a0f      	ldr	r2, [sp, #60]	; 0x3c
  403f4a:	f01b 0f10 	tst.w	fp, #16
  403f4e:	4613      	mov	r3, r2
  403f50:	f040 83d8 	bne.w	404704 <_svfprintf_r+0xd2c>
  403f54:	f01b 0f40 	tst.w	fp, #64	; 0x40
  403f58:	f000 83d4 	beq.w	404704 <_svfprintf_r+0xd2c>
  403f5c:	2500      	movs	r5, #0
  403f5e:	3304      	adds	r3, #4
  403f60:	8814      	ldrh	r4, [r2, #0]
  403f62:	930f      	str	r3, [sp, #60]	; 0x3c
  403f64:	f01b 0f01 	tst.w	fp, #1
  403f68:	f000 80e3 	beq.w	404132 <_svfprintf_r+0x75a>
  403f6c:	ea54 0305 	orrs.w	r3, r4, r5
  403f70:	f000 80df 	beq.w	404132 <_svfprintf_r+0x75a>
  403f74:	2330      	movs	r3, #48	; 0x30
  403f76:	f89d 2044 	ldrb.w	r2, [sp, #68]	; 0x44
  403f7a:	f88d 3078 	strb.w	r3, [sp, #120]	; 0x78
  403f7e:	f88d 2079 	strb.w	r2, [sp, #121]	; 0x79
  403f82:	f04b 0b02 	orr.w	fp, fp, #2
  403f86:	2302      	movs	r3, #2
  403f88:	e624      	b.n	403bd4 <_svfprintf_r+0x1fc>
  403f8a:	2201      	movs	r2, #1
  403f8c:	9311      	str	r3, [sp, #68]	; 0x44
  403f8e:	2300      	movs	r3, #0
  403f90:	4611      	mov	r1, r2
  403f92:	980f      	ldr	r0, [sp, #60]	; 0x3c
  403f94:	9208      	str	r2, [sp, #32]
  403f96:	6802      	ldr	r2, [r0, #0]
  403f98:	461f      	mov	r7, r3
  403f9a:	f88d 3077 	strb.w	r3, [sp, #119]	; 0x77
  403f9e:	930a      	str	r3, [sp, #40]	; 0x28
  403fa0:	9312      	str	r3, [sp, #72]	; 0x48
  403fa2:	1d03      	adds	r3, r0, #4
  403fa4:	f8cd b01c 	str.w	fp, [sp, #28]
  403fa8:	910e      	str	r1, [sp, #56]	; 0x38
  403faa:	f88d 20a0 	strb.w	r2, [sp, #160]	; 0xa0
  403fae:	930f      	str	r3, [sp, #60]	; 0x3c
  403fb0:	ae28      	add	r6, sp, #160	; 0xa0
  403fb2:	e639      	b.n	403c28 <_svfprintf_r+0x250>
  403fb4:	9311      	str	r3, [sp, #68]	; 0x44
  403fb6:	2a00      	cmp	r2, #0
  403fb8:	f040 8784 	bne.w	404ec4 <_svfprintf_r+0x14ec>
  403fbc:	f04b 0b10 	orr.w	fp, fp, #16
  403fc0:	f01b 0f20 	tst.w	fp, #32
  403fc4:	f040 8475 	bne.w	4048b2 <_svfprintf_r+0xeda>
  403fc8:	9a0f      	ldr	r2, [sp, #60]	; 0x3c
  403fca:	f01b 0f10 	tst.w	fp, #16
  403fce:	4613      	mov	r3, r2
  403fd0:	f040 839d 	bne.w	40470e <_svfprintf_r+0xd36>
  403fd4:	f01b 0f40 	tst.w	fp, #64	; 0x40
  403fd8:	f000 8399 	beq.w	40470e <_svfprintf_r+0xd36>
  403fdc:	f9b2 4000 	ldrsh.w	r4, [r2]
  403fe0:	3304      	adds	r3, #4
  403fe2:	17e5      	asrs	r5, r4, #31
  403fe4:	930f      	str	r3, [sp, #60]	; 0x3c
  403fe6:	4622      	mov	r2, r4
  403fe8:	462b      	mov	r3, r5
  403fea:	2a00      	cmp	r2, #0
  403fec:	f173 0300 	sbcs.w	r3, r3, #0
  403ff0:	f2c0 8398 	blt.w	404724 <_svfprintf_r+0xd4c>
  403ff4:	990a      	ldr	r1, [sp, #40]	; 0x28
  403ff6:	f89d 7077 	ldrb.w	r7, [sp, #119]	; 0x77
  403ffa:	1c4a      	adds	r2, r1, #1
  403ffc:	f04f 0301 	mov.w	r3, #1
  404000:	f47f adf0 	bne.w	403be4 <_svfprintf_r+0x20c>
  404004:	ea54 0205 	orrs.w	r2, r4, r5
  404008:	f000 8229 	beq.w	40445e <_svfprintf_r+0xa86>
  40400c:	f8cd b01c 	str.w	fp, [sp, #28]
  404010:	2b01      	cmp	r3, #1
  404012:	f000 830e 	beq.w	404632 <_svfprintf_r+0xc5a>
  404016:	2b02      	cmp	r3, #2
  404018:	f040 829c 	bne.w	404554 <_svfprintf_r+0xb7c>
  40401c:	464e      	mov	r6, r9
  40401e:	9818      	ldr	r0, [sp, #96]	; 0x60
  404020:	0923      	lsrs	r3, r4, #4
  404022:	ea43 7305 	orr.w	r3, r3, r5, lsl #28
  404026:	0929      	lsrs	r1, r5, #4
  404028:	f004 020f 	and.w	r2, r4, #15
  40402c:	460d      	mov	r5, r1
  40402e:	461c      	mov	r4, r3
  404030:	5c83      	ldrb	r3, [r0, r2]
  404032:	f806 3d01 	strb.w	r3, [r6, #-1]!
  404036:	ea54 0305 	orrs.w	r3, r4, r5
  40403a:	d1f1      	bne.n	404020 <_svfprintf_r+0x648>
  40403c:	eba9 0306 	sub.w	r3, r9, r6
  404040:	930e      	str	r3, [sp, #56]	; 0x38
  404042:	e5e5      	b.n	403c10 <_svfprintf_r+0x238>
  404044:	9311      	str	r3, [sp, #68]	; 0x44
  404046:	2a00      	cmp	r2, #0
  404048:	f040 8738 	bne.w	404ebc <_svfprintf_r+0x14e4>
  40404c:	9c0f      	ldr	r4, [sp, #60]	; 0x3c
  40404e:	f01b 0f08 	tst.w	fp, #8
  404052:	f104 0407 	add.w	r4, r4, #7
  404056:	f000 84cf 	beq.w	4049f8 <_svfprintf_r+0x1020>
  40405a:	f024 0307 	bic.w	r3, r4, #7
  40405e:	f103 0208 	add.w	r2, r3, #8
  404062:	920f      	str	r2, [sp, #60]	; 0x3c
  404064:	681a      	ldr	r2, [r3, #0]
  404066:	685b      	ldr	r3, [r3, #4]
  404068:	9215      	str	r2, [sp, #84]	; 0x54
  40406a:	9314      	str	r3, [sp, #80]	; 0x50
  40406c:	9b14      	ldr	r3, [sp, #80]	; 0x50
  40406e:	9d15      	ldr	r5, [sp, #84]	; 0x54
  404070:	f023 4400 	bic.w	r4, r3, #2147483648	; 0x80000000
  404074:	4628      	mov	r0, r5
  404076:	4621      	mov	r1, r4
  404078:	f04f 32ff 	mov.w	r2, #4294967295
  40407c:	4b6f      	ldr	r3, [pc, #444]	; (40423c <_svfprintf_r+0x864>)
  40407e:	f003 fdf7 	bl	407c70 <__aeabi_dcmpun>
  404082:	2800      	cmp	r0, #0
  404084:	f040 8434 	bne.w	4048f0 <_svfprintf_r+0xf18>
  404088:	4628      	mov	r0, r5
  40408a:	4621      	mov	r1, r4
  40408c:	f04f 32ff 	mov.w	r2, #4294967295
  404090:	4b6a      	ldr	r3, [pc, #424]	; (40423c <_svfprintf_r+0x864>)
  404092:	f003 fdcf 	bl	407c34 <__aeabi_dcmple>
  404096:	2800      	cmp	r0, #0
  404098:	f040 842a 	bne.w	4048f0 <_svfprintf_r+0xf18>
  40409c:	a815      	add	r0, sp, #84	; 0x54
  40409e:	c80d      	ldmia	r0, {r0, r2, r3}
  4040a0:	9914      	ldr	r1, [sp, #80]	; 0x50
  4040a2:	f003 fdbd 	bl	407c20 <__aeabi_dcmplt>
  4040a6:	2800      	cmp	r0, #0
  4040a8:	f040 85d4 	bne.w	404c54 <_svfprintf_r+0x127c>
  4040ac:	f89d 7077 	ldrb.w	r7, [sp, #119]	; 0x77
  4040b0:	2303      	movs	r3, #3
  4040b2:	461a      	mov	r2, r3
  4040b4:	9308      	str	r3, [sp, #32]
  4040b6:	2300      	movs	r3, #0
  4040b8:	4e61      	ldr	r6, [pc, #388]	; (404240 <_svfprintf_r+0x868>)
  4040ba:	4619      	mov	r1, r3
  4040bc:	930a      	str	r3, [sp, #40]	; 0x28
  4040be:	4b61      	ldr	r3, [pc, #388]	; (404244 <_svfprintf_r+0x86c>)
  4040c0:	920e      	str	r2, [sp, #56]	; 0x38
  4040c2:	9a11      	ldr	r2, [sp, #68]	; 0x44
  4040c4:	f02b 0080 	bic.w	r0, fp, #128	; 0x80
  4040c8:	9007      	str	r0, [sp, #28]
  4040ca:	9112      	str	r1, [sp, #72]	; 0x48
  4040cc:	2a47      	cmp	r2, #71	; 0x47
  4040ce:	bfd8      	it	le
  4040d0:	461e      	movle	r6, r3
  4040d2:	e5a5      	b.n	403c20 <_svfprintf_r+0x248>
  4040d4:	f04b 0b08 	orr.w	fp, fp, #8
  4040d8:	f89a 3000 	ldrb.w	r3, [sl]
  4040dc:	e4d6      	b.n	403a8c <_svfprintf_r+0xb4>
  4040de:	f04b 0b10 	orr.w	fp, fp, #16
  4040e2:	9311      	str	r3, [sp, #68]	; 0x44
  4040e4:	f01b 0320 	ands.w	r3, fp, #32
  4040e8:	f43f aebb 	beq.w	403e62 <_svfprintf_r+0x48a>
  4040ec:	9c0f      	ldr	r4, [sp, #60]	; 0x3c
  4040ee:	3407      	adds	r4, #7
  4040f0:	f024 0307 	bic.w	r3, r4, #7
  4040f4:	f103 0208 	add.w	r2, r3, #8
  4040f8:	e9d3 4500 	ldrd	r4, r5, [r3]
  4040fc:	920f      	str	r2, [sp, #60]	; 0x3c
  4040fe:	2300      	movs	r3, #0
  404100:	e568      	b.n	403bd4 <_svfprintf_r+0x1fc>
  404102:	9311      	str	r3, [sp, #68]	; 0x44
  404104:	2a00      	cmp	r2, #0
  404106:	f040 86c2 	bne.w	404e8e <_svfprintf_r+0x14b6>
  40410a:	4b4f      	ldr	r3, [pc, #316]	; (404248 <_svfprintf_r+0x870>)
  40410c:	f01b 0f20 	tst.w	fp, #32
  404110:	9318      	str	r3, [sp, #96]	; 0x60
  404112:	f43f af19 	beq.w	403f48 <_svfprintf_r+0x570>
  404116:	9c0f      	ldr	r4, [sp, #60]	; 0x3c
  404118:	f01b 0f01 	tst.w	fp, #1
  40411c:	f104 0407 	add.w	r4, r4, #7
  404120:	f024 0307 	bic.w	r3, r4, #7
  404124:	f103 0208 	add.w	r2, r3, #8
  404128:	920f      	str	r2, [sp, #60]	; 0x3c
  40412a:	e9d3 4500 	ldrd	r4, r5, [r3]
  40412e:	f47f af1d 	bne.w	403f6c <_svfprintf_r+0x594>
  404132:	2302      	movs	r3, #2
  404134:	e54e      	b.n	403bd4 <_svfprintf_r+0x1fc>
  404136:	f89a 3000 	ldrb.w	r3, [sl]
  40413a:	2900      	cmp	r1, #0
  40413c:	f47f aca6 	bne.w	403a8c <_svfprintf_r+0xb4>
  404140:	2201      	movs	r2, #1
  404142:	2120      	movs	r1, #32
  404144:	e4a2      	b.n	403a8c <_svfprintf_r+0xb4>
  404146:	f04b 0b01 	orr.w	fp, fp, #1
  40414a:	f89a 3000 	ldrb.w	r3, [sl]
  40414e:	e49d      	b.n	403a8c <_svfprintf_r+0xb4>
  404150:	f89a 3000 	ldrb.w	r3, [sl]
  404154:	2201      	movs	r2, #1
  404156:	212b      	movs	r1, #43	; 0x2b
  404158:	e498      	b.n	403a8c <_svfprintf_r+0xb4>
  40415a:	f04b 0b20 	orr.w	fp, fp, #32
  40415e:	f89a 3000 	ldrb.w	r3, [sl]
  404162:	e493      	b.n	403a8c <_svfprintf_r+0xb4>
  404164:	f04b 0b40 	orr.w	fp, fp, #64	; 0x40
  404168:	f89a 3000 	ldrb.w	r3, [sl]
  40416c:	e48e      	b.n	403a8c <_svfprintf_r+0xb4>
  40416e:	f89a 3000 	ldrb.w	r3, [sl]
  404172:	2b6c      	cmp	r3, #108	; 0x6c
  404174:	bf03      	ittte	eq
  404176:	f89a 3001 	ldrbeq.w	r3, [sl, #1]
  40417a:	f04b 0b20 	orreq.w	fp, fp, #32
  40417e:	f10a 0a01 	addeq.w	sl, sl, #1
  404182:	f04b 0b10 	orrne.w	fp, fp, #16
  404186:	e481      	b.n	403a8c <_svfprintf_r+0xb4>
  404188:	2a00      	cmp	r2, #0
  40418a:	f040 867c 	bne.w	404e86 <_svfprintf_r+0x14ae>
  40418e:	f01b 0f20 	tst.w	fp, #32
  404192:	f040 8452 	bne.w	404a3a <_svfprintf_r+0x1062>
  404196:	f01b 0f10 	tst.w	fp, #16
  40419a:	f040 8438 	bne.w	404a0e <_svfprintf_r+0x1036>
  40419e:	f01b 0f40 	tst.w	fp, #64	; 0x40
  4041a2:	f000 8434 	beq.w	404a0e <_svfprintf_r+0x1036>
  4041a6:	9a0f      	ldr	r2, [sp, #60]	; 0x3c
  4041a8:	6813      	ldr	r3, [r2, #0]
  4041aa:	3204      	adds	r2, #4
  4041ac:	920f      	str	r2, [sp, #60]	; 0x3c
  4041ae:	f8bd 2024 	ldrh.w	r2, [sp, #36]	; 0x24
  4041b2:	801a      	strh	r2, [r3, #0]
  4041b4:	e437      	b.n	403a26 <_svfprintf_r+0x4e>
  4041b6:	2378      	movs	r3, #120	; 0x78
  4041b8:	2230      	movs	r2, #48	; 0x30
  4041ba:	980f      	ldr	r0, [sp, #60]	; 0x3c
  4041bc:	f88d 3079 	strb.w	r3, [sp, #121]	; 0x79
  4041c0:	9311      	str	r3, [sp, #68]	; 0x44
  4041c2:	1d03      	adds	r3, r0, #4
  4041c4:	930f      	str	r3, [sp, #60]	; 0x3c
  4041c6:	4b20      	ldr	r3, [pc, #128]	; (404248 <_svfprintf_r+0x870>)
  4041c8:	6804      	ldr	r4, [r0, #0]
  4041ca:	9318      	str	r3, [sp, #96]	; 0x60
  4041cc:	f04b 0b02 	orr.w	fp, fp, #2
  4041d0:	f88d 2078 	strb.w	r2, [sp, #120]	; 0x78
  4041d4:	2500      	movs	r5, #0
  4041d6:	2302      	movs	r3, #2
  4041d8:	e4fc      	b.n	403bd4 <_svfprintf_r+0x1fc>
  4041da:	9311      	str	r3, [sp, #68]	; 0x44
  4041dc:	2a00      	cmp	r2, #0
  4041de:	f43f aeef 	beq.w	403fc0 <_svfprintf_r+0x5e8>
  4041e2:	f88d 1077 	strb.w	r1, [sp, #119]	; 0x77
  4041e6:	e6eb      	b.n	403fc0 <_svfprintf_r+0x5e8>
  4041e8:	2000      	movs	r0, #0
  4041ea:	4604      	mov	r4, r0
  4041ec:	f1a3 0030 	sub.w	r0, r3, #48	; 0x30
  4041f0:	f81a 3b01 	ldrb.w	r3, [sl], #1
  4041f4:	eb04 0484 	add.w	r4, r4, r4, lsl #2
  4041f8:	eb00 0444 	add.w	r4, r0, r4, lsl #1
  4041fc:	f1a3 0030 	sub.w	r0, r3, #48	; 0x30
  404200:	2809      	cmp	r0, #9
  404202:	d9f5      	bls.n	4041f0 <_svfprintf_r+0x818>
  404204:	940d      	str	r4, [sp, #52]	; 0x34
  404206:	e443      	b.n	403a90 <_svfprintf_r+0xb8>
  404208:	9311      	str	r3, [sp, #68]	; 0x44
  40420a:	2a00      	cmp	r2, #0
  40420c:	f040 864a 	bne.w	404ea4 <_svfprintf_r+0x14cc>
  404210:	9a11      	ldr	r2, [sp, #68]	; 0x44
  404212:	2a00      	cmp	r2, #0
  404214:	f43f acb6 	beq.w	403b84 <_svfprintf_r+0x1ac>
  404218:	2300      	movs	r3, #0
  40421a:	2101      	movs	r1, #1
  40421c:	461f      	mov	r7, r3
  40421e:	9108      	str	r1, [sp, #32]
  404220:	f88d 20a0 	strb.w	r2, [sp, #160]	; 0xa0
  404224:	f8cd b01c 	str.w	fp, [sp, #28]
  404228:	f88d 3077 	strb.w	r3, [sp, #119]	; 0x77
  40422c:	930a      	str	r3, [sp, #40]	; 0x28
  40422e:	9312      	str	r3, [sp, #72]	; 0x48
  404230:	910e      	str	r1, [sp, #56]	; 0x38
  404232:	ae28      	add	r6, sp, #160	; 0xa0
  404234:	e4f8      	b.n	403c28 <_svfprintf_r+0x250>
  404236:	bf00      	nop
  404238:	00408160 	.word	0x00408160
  40423c:	7fefffff 	.word	0x7fefffff
  404240:	00408154 	.word	0x00408154
  404244:	00408150 	.word	0x00408150
  404248:	00408174 	.word	0x00408174
  40424c:	aa25      	add	r2, sp, #148	; 0x94
  40424e:	990b      	ldr	r1, [sp, #44]	; 0x2c
  404250:	980c      	ldr	r0, [sp, #48]	; 0x30
  404252:	f002 ff9f 	bl	407194 <__ssprint_r>
  404256:	2800      	cmp	r0, #0
  404258:	f47f ac9b 	bne.w	403b92 <_svfprintf_r+0x1ba>
  40425c:	46c8      	mov	r8, r9
  40425e:	f89d 7077 	ldrb.w	r7, [sp, #119]	; 0x77
  404262:	9c27      	ldr	r4, [sp, #156]	; 0x9c
  404264:	e533      	b.n	403cce <_svfprintf_r+0x2f6>
  404266:	9b11      	ldr	r3, [sp, #68]	; 0x44
  404268:	2b65      	cmp	r3, #101	; 0x65
  40426a:	f340 809a 	ble.w	4043a2 <_svfprintf_r+0x9ca>
  40426e:	a815      	add	r0, sp, #84	; 0x54
  404270:	c80d      	ldmia	r0, {r0, r2, r3}
  404272:	9914      	ldr	r1, [sp, #80]	; 0x50
  404274:	f003 fcca 	bl	407c0c <__aeabi_dcmpeq>
  404278:	2800      	cmp	r0, #0
  40427a:	f000 8193 	beq.w	4045a4 <_svfprintf_r+0xbcc>
  40427e:	2101      	movs	r1, #1
  404280:	9b26      	ldr	r3, [sp, #152]	; 0x98
  404282:	4ab5      	ldr	r2, [pc, #724]	; (404558 <_svfprintf_r+0xb80>)
  404284:	440b      	add	r3, r1
  404286:	440c      	add	r4, r1
  404288:	2b07      	cmp	r3, #7
  40428a:	9427      	str	r4, [sp, #156]	; 0x9c
  40428c:	9326      	str	r3, [sp, #152]	; 0x98
  40428e:	f8c8 1004 	str.w	r1, [r8, #4]
  404292:	f8c8 2000 	str.w	r2, [r8]
  404296:	f300 83c6 	bgt.w	404a26 <_svfprintf_r+0x104e>
  40429a:	f108 0808 	add.w	r8, r8, #8
  40429e:	9b1f      	ldr	r3, [sp, #124]	; 0x7c
  4042a0:	9a13      	ldr	r2, [sp, #76]	; 0x4c
  4042a2:	9c27      	ldr	r4, [sp, #156]	; 0x9c
  4042a4:	4293      	cmp	r3, r2
  4042a6:	db03      	blt.n	4042b0 <_svfprintf_r+0x8d8>
  4042a8:	9b07      	ldr	r3, [sp, #28]
  4042aa:	07dd      	lsls	r5, r3, #31
  4042ac:	f57f ad86 	bpl.w	403dbc <_svfprintf_r+0x3e4>
  4042b0:	9b26      	ldr	r3, [sp, #152]	; 0x98
  4042b2:	9919      	ldr	r1, [sp, #100]	; 0x64
  4042b4:	3301      	adds	r3, #1
  4042b6:	9a1a      	ldr	r2, [sp, #104]	; 0x68
  4042b8:	440c      	add	r4, r1
  4042ba:	2b07      	cmp	r3, #7
  4042bc:	f8c8 2000 	str.w	r2, [r8]
  4042c0:	f8c8 1004 	str.w	r1, [r8, #4]
  4042c4:	9427      	str	r4, [sp, #156]	; 0x9c
  4042c6:	9326      	str	r3, [sp, #152]	; 0x98
  4042c8:	f300 83c4 	bgt.w	404a54 <_svfprintf_r+0x107c>
  4042cc:	f108 0808 	add.w	r8, r8, #8
  4042d0:	9b13      	ldr	r3, [sp, #76]	; 0x4c
  4042d2:	1e5e      	subs	r6, r3, #1
  4042d4:	2e00      	cmp	r6, #0
  4042d6:	f77f ad71 	ble.w	403dbc <_svfprintf_r+0x3e4>
  4042da:	2e10      	cmp	r6, #16
  4042dc:	f340 8575 	ble.w	404dca <_svfprintf_r+0x13f2>
  4042e0:	4622      	mov	r2, r4
  4042e2:	2710      	movs	r7, #16
  4042e4:	9b26      	ldr	r3, [sp, #152]	; 0x98
  4042e6:	4d9d      	ldr	r5, [pc, #628]	; (40455c <_svfprintf_r+0xb84>)
  4042e8:	f8dd b030 	ldr.w	fp, [sp, #48]	; 0x30
  4042ec:	9c0b      	ldr	r4, [sp, #44]	; 0x2c
  4042ee:	e005      	b.n	4042fc <_svfprintf_r+0x924>
  4042f0:	f108 0808 	add.w	r8, r8, #8
  4042f4:	3e10      	subs	r6, #16
  4042f6:	2e10      	cmp	r6, #16
  4042f8:	f340 8225 	ble.w	404746 <_svfprintf_r+0xd6e>
  4042fc:	3301      	adds	r3, #1
  4042fe:	3210      	adds	r2, #16
  404300:	2b07      	cmp	r3, #7
  404302:	9227      	str	r2, [sp, #156]	; 0x9c
  404304:	9326      	str	r3, [sp, #152]	; 0x98
  404306:	e888 00a0 	stmia.w	r8, {r5, r7}
  40430a:	ddf1      	ble.n	4042f0 <_svfprintf_r+0x918>
  40430c:	aa25      	add	r2, sp, #148	; 0x94
  40430e:	4621      	mov	r1, r4
  404310:	4658      	mov	r0, fp
  404312:	f002 ff3f 	bl	407194 <__ssprint_r>
  404316:	2800      	cmp	r0, #0
  404318:	f47f ac3b 	bne.w	403b92 <_svfprintf_r+0x1ba>
  40431c:	46c8      	mov	r8, r9
  40431e:	9a27      	ldr	r2, [sp, #156]	; 0x9c
  404320:	9b26      	ldr	r3, [sp, #152]	; 0x98
  404322:	e7e7      	b.n	4042f4 <_svfprintf_r+0x91c>
  404324:	9b0d      	ldr	r3, [sp, #52]	; 0x34
  404326:	9a08      	ldr	r2, [sp, #32]
  404328:	1a9f      	subs	r7, r3, r2
  40432a:	2f00      	cmp	r7, #0
  40432c:	f77f acf6 	ble.w	403d1c <_svfprintf_r+0x344>
  404330:	2f10      	cmp	r7, #16
  404332:	f340 84a8 	ble.w	404c86 <_svfprintf_r+0x12ae>
  404336:	4d89      	ldr	r5, [pc, #548]	; (40455c <_svfprintf_r+0xb84>)
  404338:	4642      	mov	r2, r8
  40433a:	4621      	mov	r1, r4
  40433c:	46b0      	mov	r8, r6
  40433e:	f04f 0b10 	mov.w	fp, #16
  404342:	462e      	mov	r6, r5
  404344:	9b26      	ldr	r3, [sp, #152]	; 0x98
  404346:	9c0c      	ldr	r4, [sp, #48]	; 0x30
  404348:	9d0b      	ldr	r5, [sp, #44]	; 0x2c
  40434a:	e004      	b.n	404356 <_svfprintf_r+0x97e>
  40434c:	3f10      	subs	r7, #16
  40434e:	2f10      	cmp	r7, #16
  404350:	f102 0208 	add.w	r2, r2, #8
  404354:	dd15      	ble.n	404382 <_svfprintf_r+0x9aa>
  404356:	3301      	adds	r3, #1
  404358:	3110      	adds	r1, #16
  40435a:	2b07      	cmp	r3, #7
  40435c:	9127      	str	r1, [sp, #156]	; 0x9c
  40435e:	9326      	str	r3, [sp, #152]	; 0x98
  404360:	e882 0840 	stmia.w	r2, {r6, fp}
  404364:	ddf2      	ble.n	40434c <_svfprintf_r+0x974>
  404366:	aa25      	add	r2, sp, #148	; 0x94
  404368:	4629      	mov	r1, r5
  40436a:	4620      	mov	r0, r4
  40436c:	f002 ff12 	bl	407194 <__ssprint_r>
  404370:	2800      	cmp	r0, #0
  404372:	f47f ac0e 	bne.w	403b92 <_svfprintf_r+0x1ba>
  404376:	3f10      	subs	r7, #16
  404378:	2f10      	cmp	r7, #16
  40437a:	464a      	mov	r2, r9
  40437c:	9927      	ldr	r1, [sp, #156]	; 0x9c
  40437e:	9b26      	ldr	r3, [sp, #152]	; 0x98
  404380:	dce9      	bgt.n	404356 <_svfprintf_r+0x97e>
  404382:	4635      	mov	r5, r6
  404384:	460c      	mov	r4, r1
  404386:	4646      	mov	r6, r8
  404388:	4690      	mov	r8, r2
  40438a:	3301      	adds	r3, #1
  40438c:	443c      	add	r4, r7
  40438e:	2b07      	cmp	r3, #7
  404390:	9427      	str	r4, [sp, #156]	; 0x9c
  404392:	9326      	str	r3, [sp, #152]	; 0x98
  404394:	e888 00a0 	stmia.w	r8, {r5, r7}
  404398:	f300 829e 	bgt.w	4048d8 <_svfprintf_r+0xf00>
  40439c:	f108 0808 	add.w	r8, r8, #8
  4043a0:	e4bc      	b.n	403d1c <_svfprintf_r+0x344>
  4043a2:	9b13      	ldr	r3, [sp, #76]	; 0x4c
  4043a4:	2b01      	cmp	r3, #1
  4043a6:	f340 824f 	ble.w	404848 <_svfprintf_r+0xe70>
  4043aa:	2301      	movs	r3, #1
  4043ac:	9f26      	ldr	r7, [sp, #152]	; 0x98
  4043ae:	441c      	add	r4, r3
  4043b0:	441f      	add	r7, r3
  4043b2:	2f07      	cmp	r7, #7
  4043b4:	9427      	str	r4, [sp, #156]	; 0x9c
  4043b6:	f8c8 6000 	str.w	r6, [r8]
  4043ba:	9726      	str	r7, [sp, #152]	; 0x98
  4043bc:	f8c8 3004 	str.w	r3, [r8, #4]
  4043c0:	f300 825f 	bgt.w	404882 <_svfprintf_r+0xeaa>
  4043c4:	f108 0808 	add.w	r8, r8, #8
  4043c8:	9a19      	ldr	r2, [sp, #100]	; 0x64
  4043ca:	3701      	adds	r7, #1
  4043cc:	9b1a      	ldr	r3, [sp, #104]	; 0x68
  4043ce:	4414      	add	r4, r2
  4043d0:	2f07      	cmp	r7, #7
  4043d2:	9427      	str	r4, [sp, #156]	; 0x9c
  4043d4:	9726      	str	r7, [sp, #152]	; 0x98
  4043d6:	f8c8 3000 	str.w	r3, [r8]
  4043da:	f8c8 2004 	str.w	r2, [r8, #4]
  4043de:	f300 825c 	bgt.w	40489a <_svfprintf_r+0xec2>
  4043e2:	f108 0808 	add.w	r8, r8, #8
  4043e6:	a815      	add	r0, sp, #84	; 0x54
  4043e8:	c80d      	ldmia	r0, {r0, r2, r3}
  4043ea:	9914      	ldr	r1, [sp, #80]	; 0x50
  4043ec:	f003 fc0e 	bl	407c0c <__aeabi_dcmpeq>
  4043f0:	9b13      	ldr	r3, [sp, #76]	; 0x4c
  4043f2:	2800      	cmp	r0, #0
  4043f4:	f040 8141 	bne.w	40467a <_svfprintf_r+0xca2>
  4043f8:	3b01      	subs	r3, #1
  4043fa:	3701      	adds	r7, #1
  4043fc:	3601      	adds	r6, #1
  4043fe:	441c      	add	r4, r3
  404400:	2f07      	cmp	r7, #7
  404402:	f8c8 6000 	str.w	r6, [r8]
  404406:	9726      	str	r7, [sp, #152]	; 0x98
  404408:	9427      	str	r4, [sp, #156]	; 0x9c
  40440a:	f8c8 3004 	str.w	r3, [r8, #4]
  40440e:	f300 8166 	bgt.w	4046de <_svfprintf_r+0xd06>
  404412:	f108 0808 	add.w	r8, r8, #8
  404416:	9a1b      	ldr	r2, [sp, #108]	; 0x6c
  404418:	3701      	adds	r7, #1
  40441a:	4414      	add	r4, r2
  40441c:	ab21      	add	r3, sp, #132	; 0x84
  40441e:	2f07      	cmp	r7, #7
  404420:	9427      	str	r4, [sp, #156]	; 0x9c
  404422:	9726      	str	r7, [sp, #152]	; 0x98
  404424:	f8c8 2004 	str.w	r2, [r8, #4]
  404428:	f8c8 3000 	str.w	r3, [r8]
  40442c:	f77f acc4 	ble.w	403db8 <_svfprintf_r+0x3e0>
  404430:	aa25      	add	r2, sp, #148	; 0x94
  404432:	990b      	ldr	r1, [sp, #44]	; 0x2c
  404434:	980c      	ldr	r0, [sp, #48]	; 0x30
  404436:	f002 fead 	bl	407194 <__ssprint_r>
  40443a:	2800      	cmp	r0, #0
  40443c:	f47f aba9 	bne.w	403b92 <_svfprintf_r+0x1ba>
  404440:	46c8      	mov	r8, r9
  404442:	9c27      	ldr	r4, [sp, #156]	; 0x9c
  404444:	e4ba      	b.n	403dbc <_svfprintf_r+0x3e4>
  404446:	aa25      	add	r2, sp, #148	; 0x94
  404448:	990b      	ldr	r1, [sp, #44]	; 0x2c
  40444a:	980c      	ldr	r0, [sp, #48]	; 0x30
  40444c:	f002 fea2 	bl	407194 <__ssprint_r>
  404450:	2800      	cmp	r0, #0
  404452:	f43f acfd 	beq.w	403e50 <_svfprintf_r+0x478>
  404456:	f7ff bb9c 	b.w	403b92 <_svfprintf_r+0x1ba>
  40445a:	f8dd b01c 	ldr.w	fp, [sp, #28]
  40445e:	2b01      	cmp	r3, #1
  404460:	f000 817e 	beq.w	404760 <_svfprintf_r+0xd88>
  404464:	2b02      	cmp	r3, #2
  404466:	d171      	bne.n	40454c <_svfprintf_r+0xb74>
  404468:	f8cd b01c 	str.w	fp, [sp, #28]
  40446c:	2400      	movs	r4, #0
  40446e:	2500      	movs	r5, #0
  404470:	e5d4      	b.n	40401c <_svfprintf_r+0x644>
  404472:	aa25      	add	r2, sp, #148	; 0x94
  404474:	990b      	ldr	r1, [sp, #44]	; 0x2c
  404476:	980c      	ldr	r0, [sp, #48]	; 0x30
  404478:	f002 fe8c 	bl	407194 <__ssprint_r>
  40447c:	2800      	cmp	r0, #0
  40447e:	f47f ab88 	bne.w	403b92 <_svfprintf_r+0x1ba>
  404482:	46c8      	mov	r8, r9
  404484:	9c27      	ldr	r4, [sp, #156]	; 0x9c
  404486:	e486      	b.n	403d96 <_svfprintf_r+0x3be>
  404488:	aa25      	add	r2, sp, #148	; 0x94
  40448a:	990b      	ldr	r1, [sp, #44]	; 0x2c
  40448c:	980c      	ldr	r0, [sp, #48]	; 0x30
  40448e:	f002 fe81 	bl	407194 <__ssprint_r>
  404492:	2800      	cmp	r0, #0
  404494:	f47f ab7d 	bne.w	403b92 <_svfprintf_r+0x1ba>
  404498:	46c8      	mov	r8, r9
  40449a:	9c27      	ldr	r4, [sp, #156]	; 0x9c
  40449c:	e429      	b.n	403cf2 <_svfprintf_r+0x31a>
  40449e:	2001      	movs	r0, #1
  4044a0:	9b26      	ldr	r3, [sp, #152]	; 0x98
  4044a2:	4a2d      	ldr	r2, [pc, #180]	; (404558 <_svfprintf_r+0xb80>)
  4044a4:	4403      	add	r3, r0
  4044a6:	4404      	add	r4, r0
  4044a8:	2b07      	cmp	r3, #7
  4044aa:	9427      	str	r4, [sp, #156]	; 0x9c
  4044ac:	9326      	str	r3, [sp, #152]	; 0x98
  4044ae:	f8c8 0004 	str.w	r0, [r8, #4]
  4044b2:	f8c8 2000 	str.w	r2, [r8]
  4044b6:	f340 82d8 	ble.w	404a6a <_svfprintf_r+0x1092>
  4044ba:	aa25      	add	r2, sp, #148	; 0x94
  4044bc:	990b      	ldr	r1, [sp, #44]	; 0x2c
  4044be:	980c      	ldr	r0, [sp, #48]	; 0x30
  4044c0:	f002 fe68 	bl	407194 <__ssprint_r>
  4044c4:	2800      	cmp	r0, #0
  4044c6:	f47f ab64 	bne.w	403b92 <_svfprintf_r+0x1ba>
  4044ca:	46c8      	mov	r8, r9
  4044cc:	991f      	ldr	r1, [sp, #124]	; 0x7c
  4044ce:	9c27      	ldr	r4, [sp, #156]	; 0x9c
  4044d0:	b929      	cbnz	r1, 4044de <_svfprintf_r+0xb06>
  4044d2:	9b13      	ldr	r3, [sp, #76]	; 0x4c
  4044d4:	b91b      	cbnz	r3, 4044de <_svfprintf_r+0xb06>
  4044d6:	9b07      	ldr	r3, [sp, #28]
  4044d8:	07d8      	lsls	r0, r3, #31
  4044da:	f57f ac6f 	bpl.w	403dbc <_svfprintf_r+0x3e4>
  4044de:	9819      	ldr	r0, [sp, #100]	; 0x64
  4044e0:	9b26      	ldr	r3, [sp, #152]	; 0x98
  4044e2:	4602      	mov	r2, r0
  4044e4:	3301      	adds	r3, #1
  4044e6:	4422      	add	r2, r4
  4044e8:	9c1a      	ldr	r4, [sp, #104]	; 0x68
  4044ea:	2b07      	cmp	r3, #7
  4044ec:	9227      	str	r2, [sp, #156]	; 0x9c
  4044ee:	f8c8 4000 	str.w	r4, [r8]
  4044f2:	f8c8 0004 	str.w	r0, [r8, #4]
  4044f6:	9326      	str	r3, [sp, #152]	; 0x98
  4044f8:	f300 8431 	bgt.w	404d5e <_svfprintf_r+0x1386>
  4044fc:	f108 0808 	add.w	r8, r8, #8
  404500:	2900      	cmp	r1, #0
  404502:	f2c0 8409 	blt.w	404d18 <_svfprintf_r+0x1340>
  404506:	9913      	ldr	r1, [sp, #76]	; 0x4c
  404508:	3301      	adds	r3, #1
  40450a:	188c      	adds	r4, r1, r2
  40450c:	2b07      	cmp	r3, #7
  40450e:	9427      	str	r4, [sp, #156]	; 0x9c
  404510:	9326      	str	r3, [sp, #152]	; 0x98
  404512:	f8c8 6000 	str.w	r6, [r8]
  404516:	f8c8 1004 	str.w	r1, [r8, #4]
  40451a:	f77f ac4d 	ble.w	403db8 <_svfprintf_r+0x3e0>
  40451e:	aa25      	add	r2, sp, #148	; 0x94
  404520:	990b      	ldr	r1, [sp, #44]	; 0x2c
  404522:	980c      	ldr	r0, [sp, #48]	; 0x30
  404524:	f002 fe36 	bl	407194 <__ssprint_r>
  404528:	2800      	cmp	r0, #0
  40452a:	f47f ab32 	bne.w	403b92 <_svfprintf_r+0x1ba>
  40452e:	9c27      	ldr	r4, [sp, #156]	; 0x9c
  404530:	46c8      	mov	r8, r9
  404532:	e443      	b.n	403dbc <_svfprintf_r+0x3e4>
  404534:	aa25      	add	r2, sp, #148	; 0x94
  404536:	990b      	ldr	r1, [sp, #44]	; 0x2c
  404538:	980c      	ldr	r0, [sp, #48]	; 0x30
  40453a:	f002 fe2b 	bl	407194 <__ssprint_r>
  40453e:	2800      	cmp	r0, #0
  404540:	f47f ab27 	bne.w	403b92 <_svfprintf_r+0x1ba>
  404544:	46c8      	mov	r8, r9
  404546:	9c27      	ldr	r4, [sp, #156]	; 0x9c
  404548:	f7ff bbe5 	b.w	403d16 <_svfprintf_r+0x33e>
  40454c:	2400      	movs	r4, #0
  40454e:	2500      	movs	r5, #0
  404550:	f8cd b01c 	str.w	fp, [sp, #28]
  404554:	4649      	mov	r1, r9
  404556:	e004      	b.n	404562 <_svfprintf_r+0xb8a>
  404558:	00408190 	.word	0x00408190
  40455c:	004081a4 	.word	0x004081a4
  404560:	4631      	mov	r1, r6
  404562:	08e2      	lsrs	r2, r4, #3
  404564:	ea42 7245 	orr.w	r2, r2, r5, lsl #29
  404568:	08e8      	lsrs	r0, r5, #3
  40456a:	f004 0307 	and.w	r3, r4, #7
  40456e:	4605      	mov	r5, r0
  404570:	4614      	mov	r4, r2
  404572:	3330      	adds	r3, #48	; 0x30
  404574:	ea54 0205 	orrs.w	r2, r4, r5
  404578:	f801 3c01 	strb.w	r3, [r1, #-1]
  40457c:	f101 36ff 	add.w	r6, r1, #4294967295
  404580:	d1ee      	bne.n	404560 <_svfprintf_r+0xb88>
  404582:	9a07      	ldr	r2, [sp, #28]
  404584:	07d2      	lsls	r2, r2, #31
  404586:	f57f ad59 	bpl.w	40403c <_svfprintf_r+0x664>
  40458a:	2b30      	cmp	r3, #48	; 0x30
  40458c:	f43f ad56 	beq.w	40403c <_svfprintf_r+0x664>
  404590:	2330      	movs	r3, #48	; 0x30
  404592:	3902      	subs	r1, #2
  404594:	f806 3c01 	strb.w	r3, [r6, #-1]
  404598:	eba9 0301 	sub.w	r3, r9, r1
  40459c:	930e      	str	r3, [sp, #56]	; 0x38
  40459e:	460e      	mov	r6, r1
  4045a0:	f7ff bb36 	b.w	403c10 <_svfprintf_r+0x238>
  4045a4:	991f      	ldr	r1, [sp, #124]	; 0x7c
  4045a6:	2900      	cmp	r1, #0
  4045a8:	f77f af79 	ble.w	40449e <_svfprintf_r+0xac6>
  4045ac:	9b12      	ldr	r3, [sp, #72]	; 0x48
  4045ae:	9a13      	ldr	r2, [sp, #76]	; 0x4c
  4045b0:	4293      	cmp	r3, r2
  4045b2:	bfa8      	it	ge
  4045b4:	4613      	movge	r3, r2
  4045b6:	2b00      	cmp	r3, #0
  4045b8:	461f      	mov	r7, r3
  4045ba:	dd0b      	ble.n	4045d4 <_svfprintf_r+0xbfc>
  4045bc:	9b26      	ldr	r3, [sp, #152]	; 0x98
  4045be:	443c      	add	r4, r7
  4045c0:	3301      	adds	r3, #1
  4045c2:	2b07      	cmp	r3, #7
  4045c4:	9427      	str	r4, [sp, #156]	; 0x9c
  4045c6:	e888 00c0 	stmia.w	r8, {r6, r7}
  4045ca:	9326      	str	r3, [sp, #152]	; 0x98
  4045cc:	f300 82fb 	bgt.w	404bc6 <_svfprintf_r+0x11ee>
  4045d0:	f108 0808 	add.w	r8, r8, #8
  4045d4:	9b12      	ldr	r3, [sp, #72]	; 0x48
  4045d6:	2f00      	cmp	r7, #0
  4045d8:	bfa8      	it	ge
  4045da:	1bdb      	subge	r3, r3, r7
  4045dc:	2b00      	cmp	r3, #0
  4045de:	461f      	mov	r7, r3
  4045e0:	f340 80d7 	ble.w	404792 <_svfprintf_r+0xdba>
  4045e4:	2b10      	cmp	r3, #16
  4045e6:	f340 8434 	ble.w	404e52 <_svfprintf_r+0x147a>
  4045ea:	4dba      	ldr	r5, [pc, #744]	; (4048d4 <_svfprintf_r+0xefc>)
  4045ec:	4642      	mov	r2, r8
  4045ee:	4621      	mov	r1, r4
  4045f0:	46b0      	mov	r8, r6
  4045f2:	f04f 0b10 	mov.w	fp, #16
  4045f6:	462e      	mov	r6, r5
  4045f8:	9b26      	ldr	r3, [sp, #152]	; 0x98
  4045fa:	9c0c      	ldr	r4, [sp, #48]	; 0x30
  4045fc:	9d0b      	ldr	r5, [sp, #44]	; 0x2c
  4045fe:	e004      	b.n	40460a <_svfprintf_r+0xc32>
  404600:	3208      	adds	r2, #8
  404602:	3f10      	subs	r7, #16
  404604:	2f10      	cmp	r7, #16
  404606:	f340 80b5 	ble.w	404774 <_svfprintf_r+0xd9c>
  40460a:	3301      	adds	r3, #1
  40460c:	3110      	adds	r1, #16
  40460e:	2b07      	cmp	r3, #7
  404610:	9127      	str	r1, [sp, #156]	; 0x9c
  404612:	9326      	str	r3, [sp, #152]	; 0x98
  404614:	e882 0840 	stmia.w	r2, {r6, fp}
  404618:	ddf2      	ble.n	404600 <_svfprintf_r+0xc28>
  40461a:	aa25      	add	r2, sp, #148	; 0x94
  40461c:	4629      	mov	r1, r5
  40461e:	4620      	mov	r0, r4
  404620:	f002 fdb8 	bl	407194 <__ssprint_r>
  404624:	2800      	cmp	r0, #0
  404626:	f47f aab4 	bne.w	403b92 <_svfprintf_r+0x1ba>
  40462a:	464a      	mov	r2, r9
  40462c:	9927      	ldr	r1, [sp, #156]	; 0x9c
  40462e:	9b26      	ldr	r3, [sp, #152]	; 0x98
  404630:	e7e7      	b.n	404602 <_svfprintf_r+0xc2a>
  404632:	2d00      	cmp	r5, #0
  404634:	bf08      	it	eq
  404636:	2c0a      	cmpeq	r4, #10
  404638:	f0c0 8090 	bcc.w	40475c <_svfprintf_r+0xd84>
  40463c:	464e      	mov	r6, r9
  40463e:	4620      	mov	r0, r4
  404640:	4629      	mov	r1, r5
  404642:	220a      	movs	r2, #10
  404644:	2300      	movs	r3, #0
  404646:	f003 fb51 	bl	407cec <__aeabi_uldivmod>
  40464a:	3230      	adds	r2, #48	; 0x30
  40464c:	f806 2d01 	strb.w	r2, [r6, #-1]!
  404650:	4620      	mov	r0, r4
  404652:	4629      	mov	r1, r5
  404654:	2300      	movs	r3, #0
  404656:	220a      	movs	r2, #10
  404658:	f003 fb48 	bl	407cec <__aeabi_uldivmod>
  40465c:	4604      	mov	r4, r0
  40465e:	460d      	mov	r5, r1
  404660:	ea54 0305 	orrs.w	r3, r4, r5
  404664:	d1eb      	bne.n	40463e <_svfprintf_r+0xc66>
  404666:	eba9 0306 	sub.w	r3, r9, r6
  40466a:	930e      	str	r3, [sp, #56]	; 0x38
  40466c:	f7ff bad0 	b.w	403c10 <_svfprintf_r+0x238>
  404670:	9b0a      	ldr	r3, [sp, #40]	; 0x28
  404672:	464e      	mov	r6, r9
  404674:	930e      	str	r3, [sp, #56]	; 0x38
  404676:	f7ff bacb 	b.w	403c10 <_svfprintf_r+0x238>
  40467a:	1e5e      	subs	r6, r3, #1
  40467c:	2e00      	cmp	r6, #0
  40467e:	f77f aeca 	ble.w	404416 <_svfprintf_r+0xa3e>
  404682:	2e10      	cmp	r6, #16
  404684:	f340 83e3 	ble.w	404e4e <_svfprintf_r+0x1476>
  404688:	4622      	mov	r2, r4
  40468a:	f04f 0b10 	mov.w	fp, #16
  40468e:	4d91      	ldr	r5, [pc, #580]	; (4048d4 <_svfprintf_r+0xefc>)
  404690:	9c0c      	ldr	r4, [sp, #48]	; 0x30
  404692:	e004      	b.n	40469e <_svfprintf_r+0xcc6>
  404694:	3e10      	subs	r6, #16
  404696:	2e10      	cmp	r6, #16
  404698:	f108 0808 	add.w	r8, r8, #8
  40469c:	dd15      	ble.n	4046ca <_svfprintf_r+0xcf2>
  40469e:	3701      	adds	r7, #1
  4046a0:	3210      	adds	r2, #16
  4046a2:	2f07      	cmp	r7, #7
  4046a4:	9227      	str	r2, [sp, #156]	; 0x9c
  4046a6:	9726      	str	r7, [sp, #152]	; 0x98
  4046a8:	e888 0820 	stmia.w	r8, {r5, fp}
  4046ac:	ddf2      	ble.n	404694 <_svfprintf_r+0xcbc>
  4046ae:	aa25      	add	r2, sp, #148	; 0x94
  4046b0:	990b      	ldr	r1, [sp, #44]	; 0x2c
  4046b2:	4620      	mov	r0, r4
  4046b4:	f002 fd6e 	bl	407194 <__ssprint_r>
  4046b8:	2800      	cmp	r0, #0
  4046ba:	f47f aa6a 	bne.w	403b92 <_svfprintf_r+0x1ba>
  4046be:	3e10      	subs	r6, #16
  4046c0:	2e10      	cmp	r6, #16
  4046c2:	46c8      	mov	r8, r9
  4046c4:	9a27      	ldr	r2, [sp, #156]	; 0x9c
  4046c6:	9f26      	ldr	r7, [sp, #152]	; 0x98
  4046c8:	dce9      	bgt.n	40469e <_svfprintf_r+0xcc6>
  4046ca:	4614      	mov	r4, r2
  4046cc:	3701      	adds	r7, #1
  4046ce:	4434      	add	r4, r6
  4046d0:	2f07      	cmp	r7, #7
  4046d2:	9427      	str	r4, [sp, #156]	; 0x9c
  4046d4:	9726      	str	r7, [sp, #152]	; 0x98
  4046d6:	e888 0060 	stmia.w	r8, {r5, r6}
  4046da:	f77f ae9a 	ble.w	404412 <_svfprintf_r+0xa3a>
  4046de:	aa25      	add	r2, sp, #148	; 0x94
  4046e0:	990b      	ldr	r1, [sp, #44]	; 0x2c
  4046e2:	980c      	ldr	r0, [sp, #48]	; 0x30
  4046e4:	f002 fd56 	bl	407194 <__ssprint_r>
  4046e8:	2800      	cmp	r0, #0
  4046ea:	f47f aa52 	bne.w	403b92 <_svfprintf_r+0x1ba>
  4046ee:	9c27      	ldr	r4, [sp, #156]	; 0x9c
  4046f0:	9f26      	ldr	r7, [sp, #152]	; 0x98
  4046f2:	46c8      	mov	r8, r9
  4046f4:	e68f      	b.n	404416 <_svfprintf_r+0xa3e>
  4046f6:	3204      	adds	r2, #4
  4046f8:	681c      	ldr	r4, [r3, #0]
  4046fa:	2500      	movs	r5, #0
  4046fc:	2301      	movs	r3, #1
  4046fe:	920f      	str	r2, [sp, #60]	; 0x3c
  404700:	f7ff ba68 	b.w	403bd4 <_svfprintf_r+0x1fc>
  404704:	681c      	ldr	r4, [r3, #0]
  404706:	3304      	adds	r3, #4
  404708:	930f      	str	r3, [sp, #60]	; 0x3c
  40470a:	2500      	movs	r5, #0
  40470c:	e42a      	b.n	403f64 <_svfprintf_r+0x58c>
  40470e:	681c      	ldr	r4, [r3, #0]
  404710:	3304      	adds	r3, #4
  404712:	17e5      	asrs	r5, r4, #31
  404714:	4622      	mov	r2, r4
  404716:	930f      	str	r3, [sp, #60]	; 0x3c
  404718:	462b      	mov	r3, r5
  40471a:	2a00      	cmp	r2, #0
  40471c:	f173 0300 	sbcs.w	r3, r3, #0
  404720:	f6bf ac68 	bge.w	403ff4 <_svfprintf_r+0x61c>
  404724:	272d      	movs	r7, #45	; 0x2d
  404726:	4264      	negs	r4, r4
  404728:	eb65 0545 	sbc.w	r5, r5, r5, lsl #1
  40472c:	f88d 7077 	strb.w	r7, [sp, #119]	; 0x77
  404730:	2301      	movs	r3, #1
  404732:	f7ff ba53 	b.w	403bdc <_svfprintf_r+0x204>
  404736:	990f      	ldr	r1, [sp, #60]	; 0x3c
  404738:	2500      	movs	r5, #0
  40473a:	460a      	mov	r2, r1
  40473c:	3204      	adds	r2, #4
  40473e:	680c      	ldr	r4, [r1, #0]
  404740:	920f      	str	r2, [sp, #60]	; 0x3c
  404742:	f7ff ba47 	b.w	403bd4 <_svfprintf_r+0x1fc>
  404746:	4614      	mov	r4, r2
  404748:	3301      	adds	r3, #1
  40474a:	4434      	add	r4, r6
  40474c:	2b07      	cmp	r3, #7
  40474e:	9427      	str	r4, [sp, #156]	; 0x9c
  404750:	9326      	str	r3, [sp, #152]	; 0x98
  404752:	e888 0060 	stmia.w	r8, {r5, r6}
  404756:	f77f ab2f 	ble.w	403db8 <_svfprintf_r+0x3e0>
  40475a:	e6e0      	b.n	40451e <_svfprintf_r+0xb46>
  40475c:	f8dd b01c 	ldr.w	fp, [sp, #28]
  404760:	2301      	movs	r3, #1
  404762:	ae42      	add	r6, sp, #264	; 0x108
  404764:	3430      	adds	r4, #48	; 0x30
  404766:	f8cd b01c 	str.w	fp, [sp, #28]
  40476a:	f806 4d41 	strb.w	r4, [r6, #-65]!
  40476e:	930e      	str	r3, [sp, #56]	; 0x38
  404770:	f7ff ba4e 	b.w	403c10 <_svfprintf_r+0x238>
  404774:	4635      	mov	r5, r6
  404776:	460c      	mov	r4, r1
  404778:	4646      	mov	r6, r8
  40477a:	4690      	mov	r8, r2
  40477c:	3301      	adds	r3, #1
  40477e:	443c      	add	r4, r7
  404780:	2b07      	cmp	r3, #7
  404782:	9427      	str	r4, [sp, #156]	; 0x9c
  404784:	9326      	str	r3, [sp, #152]	; 0x98
  404786:	e888 00a0 	stmia.w	r8, {r5, r7}
  40478a:	f300 8246 	bgt.w	404c1a <_svfprintf_r+0x1242>
  40478e:	f108 0808 	add.w	r8, r8, #8
  404792:	9a1f      	ldr	r2, [sp, #124]	; 0x7c
  404794:	9b13      	ldr	r3, [sp, #76]	; 0x4c
  404796:	429a      	cmp	r2, r3
  404798:	db45      	blt.n	404826 <_svfprintf_r+0xe4e>
  40479a:	9b07      	ldr	r3, [sp, #28]
  40479c:	07d9      	lsls	r1, r3, #31
  40479e:	d442      	bmi.n	404826 <_svfprintf_r+0xe4e>
  4047a0:	9b13      	ldr	r3, [sp, #76]	; 0x4c
  4047a2:	9812      	ldr	r0, [sp, #72]	; 0x48
  4047a4:	1a9a      	subs	r2, r3, r2
  4047a6:	1a1d      	subs	r5, r3, r0
  4047a8:	4295      	cmp	r5, r2
  4047aa:	bfa8      	it	ge
  4047ac:	4615      	movge	r5, r2
  4047ae:	2d00      	cmp	r5, #0
  4047b0:	dd0e      	ble.n	4047d0 <_svfprintf_r+0xdf8>
  4047b2:	9926      	ldr	r1, [sp, #152]	; 0x98
  4047b4:	4406      	add	r6, r0
  4047b6:	3101      	adds	r1, #1
  4047b8:	442c      	add	r4, r5
  4047ba:	2907      	cmp	r1, #7
  4047bc:	f8c8 6000 	str.w	r6, [r8]
  4047c0:	9427      	str	r4, [sp, #156]	; 0x9c
  4047c2:	f8c8 5004 	str.w	r5, [r8, #4]
  4047c6:	9126      	str	r1, [sp, #152]	; 0x98
  4047c8:	f300 8216 	bgt.w	404bf8 <_svfprintf_r+0x1220>
  4047cc:	f108 0808 	add.w	r8, r8, #8
  4047d0:	2d00      	cmp	r5, #0
  4047d2:	bfb4      	ite	lt
  4047d4:	4616      	movlt	r6, r2
  4047d6:	1b56      	subge	r6, r2, r5
  4047d8:	2e00      	cmp	r6, #0
  4047da:	f77f aaef 	ble.w	403dbc <_svfprintf_r+0x3e4>
  4047de:	2e10      	cmp	r6, #16
  4047e0:	f340 82f3 	ble.w	404dca <_svfprintf_r+0x13f2>
  4047e4:	4622      	mov	r2, r4
  4047e6:	2710      	movs	r7, #16
  4047e8:	9b26      	ldr	r3, [sp, #152]	; 0x98
  4047ea:	4d3a      	ldr	r5, [pc, #232]	; (4048d4 <_svfprintf_r+0xefc>)
  4047ec:	f8dd b030 	ldr.w	fp, [sp, #48]	; 0x30
  4047f0:	9c0b      	ldr	r4, [sp, #44]	; 0x2c
  4047f2:	e004      	b.n	4047fe <_svfprintf_r+0xe26>
  4047f4:	f108 0808 	add.w	r8, r8, #8
  4047f8:	3e10      	subs	r6, #16
  4047fa:	2e10      	cmp	r6, #16
  4047fc:	dda3      	ble.n	404746 <_svfprintf_r+0xd6e>
  4047fe:	3301      	adds	r3, #1
  404800:	3210      	adds	r2, #16
  404802:	2b07      	cmp	r3, #7
  404804:	9227      	str	r2, [sp, #156]	; 0x9c
  404806:	9326      	str	r3, [sp, #152]	; 0x98
  404808:	e888 00a0 	stmia.w	r8, {r5, r7}
  40480c:	ddf2      	ble.n	4047f4 <_svfprintf_r+0xe1c>
  40480e:	aa25      	add	r2, sp, #148	; 0x94
  404810:	4621      	mov	r1, r4
  404812:	4658      	mov	r0, fp
  404814:	f002 fcbe 	bl	407194 <__ssprint_r>
  404818:	2800      	cmp	r0, #0
  40481a:	f47f a9ba 	bne.w	403b92 <_svfprintf_r+0x1ba>
  40481e:	46c8      	mov	r8, r9
  404820:	9a27      	ldr	r2, [sp, #156]	; 0x9c
  404822:	9b26      	ldr	r3, [sp, #152]	; 0x98
  404824:	e7e8      	b.n	4047f8 <_svfprintf_r+0xe20>
  404826:	9b26      	ldr	r3, [sp, #152]	; 0x98
  404828:	9819      	ldr	r0, [sp, #100]	; 0x64
  40482a:	3301      	adds	r3, #1
  40482c:	991a      	ldr	r1, [sp, #104]	; 0x68
  40482e:	4404      	add	r4, r0
  404830:	2b07      	cmp	r3, #7
  404832:	9427      	str	r4, [sp, #156]	; 0x9c
  404834:	f8c8 1000 	str.w	r1, [r8]
  404838:	f8c8 0004 	str.w	r0, [r8, #4]
  40483c:	9326      	str	r3, [sp, #152]	; 0x98
  40483e:	f300 81cf 	bgt.w	404be0 <_svfprintf_r+0x1208>
  404842:	f108 0808 	add.w	r8, r8, #8
  404846:	e7ab      	b.n	4047a0 <_svfprintf_r+0xdc8>
  404848:	9b07      	ldr	r3, [sp, #28]
  40484a:	07da      	lsls	r2, r3, #31
  40484c:	f53f adad 	bmi.w	4043aa <_svfprintf_r+0x9d2>
  404850:	2301      	movs	r3, #1
  404852:	9f26      	ldr	r7, [sp, #152]	; 0x98
  404854:	441c      	add	r4, r3
  404856:	441f      	add	r7, r3
  404858:	2f07      	cmp	r7, #7
  40485a:	9427      	str	r4, [sp, #156]	; 0x9c
  40485c:	f8c8 6000 	str.w	r6, [r8]
  404860:	9726      	str	r7, [sp, #152]	; 0x98
  404862:	f8c8 3004 	str.w	r3, [r8, #4]
  404866:	f77f add4 	ble.w	404412 <_svfprintf_r+0xa3a>
  40486a:	aa25      	add	r2, sp, #148	; 0x94
  40486c:	990b      	ldr	r1, [sp, #44]	; 0x2c
  40486e:	980c      	ldr	r0, [sp, #48]	; 0x30
  404870:	f002 fc90 	bl	407194 <__ssprint_r>
  404874:	2800      	cmp	r0, #0
  404876:	f47f a98c 	bne.w	403b92 <_svfprintf_r+0x1ba>
  40487a:	46c8      	mov	r8, r9
  40487c:	9c27      	ldr	r4, [sp, #156]	; 0x9c
  40487e:	9f26      	ldr	r7, [sp, #152]	; 0x98
  404880:	e5c9      	b.n	404416 <_svfprintf_r+0xa3e>
  404882:	aa25      	add	r2, sp, #148	; 0x94
  404884:	990b      	ldr	r1, [sp, #44]	; 0x2c
  404886:	980c      	ldr	r0, [sp, #48]	; 0x30
  404888:	f002 fc84 	bl	407194 <__ssprint_r>
  40488c:	2800      	cmp	r0, #0
  40488e:	f47f a980 	bne.w	403b92 <_svfprintf_r+0x1ba>
  404892:	46c8      	mov	r8, r9
  404894:	9c27      	ldr	r4, [sp, #156]	; 0x9c
  404896:	9f26      	ldr	r7, [sp, #152]	; 0x98
  404898:	e596      	b.n	4043c8 <_svfprintf_r+0x9f0>
  40489a:	aa25      	add	r2, sp, #148	; 0x94
  40489c:	990b      	ldr	r1, [sp, #44]	; 0x2c
  40489e:	980c      	ldr	r0, [sp, #48]	; 0x30
  4048a0:	f002 fc78 	bl	407194 <__ssprint_r>
  4048a4:	2800      	cmp	r0, #0
  4048a6:	f47f a974 	bne.w	403b92 <_svfprintf_r+0x1ba>
  4048aa:	46c8      	mov	r8, r9
  4048ac:	9c27      	ldr	r4, [sp, #156]	; 0x9c
  4048ae:	9f26      	ldr	r7, [sp, #152]	; 0x98
  4048b0:	e599      	b.n	4043e6 <_svfprintf_r+0xa0e>
  4048b2:	9c0f      	ldr	r4, [sp, #60]	; 0x3c
  4048b4:	3407      	adds	r4, #7
  4048b6:	f024 0407 	bic.w	r4, r4, #7
  4048ba:	f104 0108 	add.w	r1, r4, #8
  4048be:	e9d4 2300 	ldrd	r2, r3, [r4]
  4048c2:	910f      	str	r1, [sp, #60]	; 0x3c
  4048c4:	4614      	mov	r4, r2
  4048c6:	461d      	mov	r5, r3
  4048c8:	f7ff bb8f 	b.w	403fea <_svfprintf_r+0x612>
  4048cc:	464e      	mov	r6, r9
  4048ce:	f7ff b99f 	b.w	403c10 <_svfprintf_r+0x238>
  4048d2:	bf00      	nop
  4048d4:	004081a4 	.word	0x004081a4
  4048d8:	aa25      	add	r2, sp, #148	; 0x94
  4048da:	990b      	ldr	r1, [sp, #44]	; 0x2c
  4048dc:	980c      	ldr	r0, [sp, #48]	; 0x30
  4048de:	f002 fc59 	bl	407194 <__ssprint_r>
  4048e2:	2800      	cmp	r0, #0
  4048e4:	f47f a955 	bne.w	403b92 <_svfprintf_r+0x1ba>
  4048e8:	46c8      	mov	r8, r9
  4048ea:	9c27      	ldr	r4, [sp, #156]	; 0x9c
  4048ec:	f7ff ba16 	b.w	403d1c <_svfprintf_r+0x344>
  4048f0:	9c15      	ldr	r4, [sp, #84]	; 0x54
  4048f2:	4622      	mov	r2, r4
  4048f4:	4620      	mov	r0, r4
  4048f6:	9c14      	ldr	r4, [sp, #80]	; 0x50
  4048f8:	4623      	mov	r3, r4
  4048fa:	4621      	mov	r1, r4
  4048fc:	f003 f9b8 	bl	407c70 <__aeabi_dcmpun>
  404900:	2800      	cmp	r0, #0
  404902:	f040 8273 	bne.w	404dec <_svfprintf_r+0x1414>
  404906:	9b0a      	ldr	r3, [sp, #40]	; 0x28
  404908:	3301      	adds	r3, #1
  40490a:	9b11      	ldr	r3, [sp, #68]	; 0x44
  40490c:	f023 0320 	bic.w	r3, r3, #32
  404910:	930e      	str	r3, [sp, #56]	; 0x38
  404912:	f000 819c 	beq.w	404c4e <_svfprintf_r+0x1276>
  404916:	2b47      	cmp	r3, #71	; 0x47
  404918:	f000 80d6 	beq.w	404ac8 <_svfprintf_r+0x10f0>
  40491c:	f44b 7380 	orr.w	r3, fp, #256	; 0x100
  404920:	9307      	str	r3, [sp, #28]
  404922:	9b14      	ldr	r3, [sp, #80]	; 0x50
  404924:	1e1f      	subs	r7, r3, #0
  404926:	9b15      	ldr	r3, [sp, #84]	; 0x54
  404928:	9308      	str	r3, [sp, #32]
  40492a:	bfb7      	itett	lt
  40492c:	463b      	movlt	r3, r7
  40492e:	2300      	movge	r3, #0
  404930:	f103 4700 	addlt.w	r7, r3, #2147483648	; 0x80000000
  404934:	232d      	movlt	r3, #45	; 0x2d
  404936:	9310      	str	r3, [sp, #64]	; 0x40
  404938:	9b11      	ldr	r3, [sp, #68]	; 0x44
  40493a:	2b66      	cmp	r3, #102	; 0x66
  40493c:	f000 8190 	beq.w	404c60 <_svfprintf_r+0x1288>
  404940:	2b46      	cmp	r3, #70	; 0x46
  404942:	f000 80a4 	beq.w	404a8e <_svfprintf_r+0x10b6>
  404946:	2002      	movs	r0, #2
  404948:	9b0e      	ldr	r3, [sp, #56]	; 0x38
  40494a:	a923      	add	r1, sp, #140	; 0x8c
  40494c:	2b45      	cmp	r3, #69	; 0x45
  40494e:	bf0a      	itet	eq
  404950:	9b0a      	ldreq	r3, [sp, #40]	; 0x28
  404952:	9d0a      	ldrne	r5, [sp, #40]	; 0x28
  404954:	1c5d      	addeq	r5, r3, #1
  404956:	e88d 0021 	stmia.w	sp, {r0, r5}
  40495a:	9104      	str	r1, [sp, #16]
  40495c:	a820      	add	r0, sp, #128	; 0x80
  40495e:	a91f      	add	r1, sp, #124	; 0x7c
  404960:	463b      	mov	r3, r7
  404962:	9003      	str	r0, [sp, #12]
  404964:	9a08      	ldr	r2, [sp, #32]
  404966:	9102      	str	r1, [sp, #8]
  404968:	980c      	ldr	r0, [sp, #48]	; 0x30
  40496a:	f000 fb59 	bl	405020 <_dtoa_r>
  40496e:	9b11      	ldr	r3, [sp, #68]	; 0x44
  404970:	4606      	mov	r6, r0
  404972:	2b67      	cmp	r3, #103	; 0x67
  404974:	f040 81ba 	bne.w	404cec <_svfprintf_r+0x1314>
  404978:	f01b 0f01 	tst.w	fp, #1
  40497c:	f000 8223 	beq.w	404dc6 <_svfprintf_r+0x13ee>
  404980:	1974      	adds	r4, r6, r5
  404982:	9a16      	ldr	r2, [sp, #88]	; 0x58
  404984:	9808      	ldr	r0, [sp, #32]
  404986:	9b17      	ldr	r3, [sp, #92]	; 0x5c
  404988:	4639      	mov	r1, r7
  40498a:	f003 f93f 	bl	407c0c <__aeabi_dcmpeq>
  40498e:	2800      	cmp	r0, #0
  404990:	f040 8124 	bne.w	404bdc <_svfprintf_r+0x1204>
  404994:	9b23      	ldr	r3, [sp, #140]	; 0x8c
  404996:	42a3      	cmp	r3, r4
  404998:	d206      	bcs.n	4049a8 <_svfprintf_r+0xfd0>
  40499a:	2130      	movs	r1, #48	; 0x30
  40499c:	1c5a      	adds	r2, r3, #1
  40499e:	9223      	str	r2, [sp, #140]	; 0x8c
  4049a0:	7019      	strb	r1, [r3, #0]
  4049a2:	9b23      	ldr	r3, [sp, #140]	; 0x8c
  4049a4:	429c      	cmp	r4, r3
  4049a6:	d8f9      	bhi.n	40499c <_svfprintf_r+0xfc4>
  4049a8:	1b9b      	subs	r3, r3, r6
  4049aa:	9313      	str	r3, [sp, #76]	; 0x4c
  4049ac:	9b0e      	ldr	r3, [sp, #56]	; 0x38
  4049ae:	2b47      	cmp	r3, #71	; 0x47
  4049b0:	f000 80a2 	beq.w	404af8 <_svfprintf_r+0x1120>
  4049b4:	9b11      	ldr	r3, [sp, #68]	; 0x44
  4049b6:	2b65      	cmp	r3, #101	; 0x65
  4049b8:	f340 81a7 	ble.w	404d0a <_svfprintf_r+0x1332>
  4049bc:	9b11      	ldr	r3, [sp, #68]	; 0x44
  4049be:	2b66      	cmp	r3, #102	; 0x66
  4049c0:	9b1f      	ldr	r3, [sp, #124]	; 0x7c
  4049c2:	9312      	str	r3, [sp, #72]	; 0x48
  4049c4:	f000 8171 	beq.w	404caa <_svfprintf_r+0x12d2>
  4049c8:	9b13      	ldr	r3, [sp, #76]	; 0x4c
  4049ca:	9a12      	ldr	r2, [sp, #72]	; 0x48
  4049cc:	4619      	mov	r1, r3
  4049ce:	4291      	cmp	r1, r2
  4049d0:	f300 815d 	bgt.w	404c8e <_svfprintf_r+0x12b6>
  4049d4:	f01b 0f01 	tst.w	fp, #1
  4049d8:	f040 81f0 	bne.w	404dbc <_svfprintf_r+0x13e4>
  4049dc:	ea22 73e2 	bic.w	r3, r2, r2, asr #31
  4049e0:	9308      	str	r3, [sp, #32]
  4049e2:	2367      	movs	r3, #103	; 0x67
  4049e4:	920e      	str	r2, [sp, #56]	; 0x38
  4049e6:	9311      	str	r3, [sp, #68]	; 0x44
  4049e8:	9b10      	ldr	r3, [sp, #64]	; 0x40
  4049ea:	2b00      	cmp	r3, #0
  4049ec:	d17d      	bne.n	404aea <_svfprintf_r+0x1112>
  4049ee:	930a      	str	r3, [sp, #40]	; 0x28
  4049f0:	f89d 7077 	ldrb.w	r7, [sp, #119]	; 0x77
  4049f4:	f7ff b914 	b.w	403c20 <_svfprintf_r+0x248>
  4049f8:	f024 0407 	bic.w	r4, r4, #7
  4049fc:	6823      	ldr	r3, [r4, #0]
  4049fe:	9315      	str	r3, [sp, #84]	; 0x54
  404a00:	6863      	ldr	r3, [r4, #4]
  404a02:	9314      	str	r3, [sp, #80]	; 0x50
  404a04:	f104 0308 	add.w	r3, r4, #8
  404a08:	930f      	str	r3, [sp, #60]	; 0x3c
  404a0a:	f7ff bb2f 	b.w	40406c <_svfprintf_r+0x694>
  404a0e:	9a0f      	ldr	r2, [sp, #60]	; 0x3c
  404a10:	6813      	ldr	r3, [r2, #0]
  404a12:	3204      	adds	r2, #4
  404a14:	920f      	str	r2, [sp, #60]	; 0x3c
  404a16:	9a09      	ldr	r2, [sp, #36]	; 0x24
  404a18:	601a      	str	r2, [r3, #0]
  404a1a:	f7ff b804 	b.w	403a26 <_svfprintf_r+0x4e>
  404a1e:	9b26      	ldr	r3, [sp, #152]	; 0x98
  404a20:	4daf      	ldr	r5, [pc, #700]	; (404ce0 <_svfprintf_r+0x1308>)
  404a22:	f7ff b9ad 	b.w	403d80 <_svfprintf_r+0x3a8>
  404a26:	aa25      	add	r2, sp, #148	; 0x94
  404a28:	990b      	ldr	r1, [sp, #44]	; 0x2c
  404a2a:	980c      	ldr	r0, [sp, #48]	; 0x30
  404a2c:	f002 fbb2 	bl	407194 <__ssprint_r>
  404a30:	2800      	cmp	r0, #0
  404a32:	f47f a8ae 	bne.w	403b92 <_svfprintf_r+0x1ba>
  404a36:	46c8      	mov	r8, r9
  404a38:	e431      	b.n	40429e <_svfprintf_r+0x8c6>
  404a3a:	9a0f      	ldr	r2, [sp, #60]	; 0x3c
  404a3c:	4613      	mov	r3, r2
  404a3e:	3304      	adds	r3, #4
  404a40:	930f      	str	r3, [sp, #60]	; 0x3c
  404a42:	9b09      	ldr	r3, [sp, #36]	; 0x24
  404a44:	6811      	ldr	r1, [r2, #0]
  404a46:	17dd      	asrs	r5, r3, #31
  404a48:	461a      	mov	r2, r3
  404a4a:	462b      	mov	r3, r5
  404a4c:	e9c1 2300 	strd	r2, r3, [r1]
  404a50:	f7fe bfe9 	b.w	403a26 <_svfprintf_r+0x4e>
  404a54:	aa25      	add	r2, sp, #148	; 0x94
  404a56:	990b      	ldr	r1, [sp, #44]	; 0x2c
  404a58:	980c      	ldr	r0, [sp, #48]	; 0x30
  404a5a:	f002 fb9b 	bl	407194 <__ssprint_r>
  404a5e:	2800      	cmp	r0, #0
  404a60:	f47f a897 	bne.w	403b92 <_svfprintf_r+0x1ba>
  404a64:	46c8      	mov	r8, r9
  404a66:	9c27      	ldr	r4, [sp, #156]	; 0x9c
  404a68:	e432      	b.n	4042d0 <_svfprintf_r+0x8f8>
  404a6a:	f108 0808 	add.w	r8, r8, #8
  404a6e:	e52f      	b.n	4044d0 <_svfprintf_r+0xaf8>
  404a70:	2140      	movs	r1, #64	; 0x40
  404a72:	980c      	ldr	r0, [sp, #48]	; 0x30
  404a74:	f001 fb5c 	bl	406130 <_malloc_r>
  404a78:	9a0b      	ldr	r2, [sp, #44]	; 0x2c
  404a7a:	6010      	str	r0, [r2, #0]
  404a7c:	6110      	str	r0, [r2, #16]
  404a7e:	2800      	cmp	r0, #0
  404a80:	f000 8214 	beq.w	404eac <_svfprintf_r+0x14d4>
  404a84:	2340      	movs	r3, #64	; 0x40
  404a86:	9a0b      	ldr	r2, [sp, #44]	; 0x2c
  404a88:	6153      	str	r3, [r2, #20]
  404a8a:	f7fe bfbc 	b.w	403a06 <_svfprintf_r+0x2e>
  404a8e:	2003      	movs	r0, #3
  404a90:	9c0a      	ldr	r4, [sp, #40]	; 0x28
  404a92:	a923      	add	r1, sp, #140	; 0x8c
  404a94:	e88d 0011 	stmia.w	sp, {r0, r4}
  404a98:	9104      	str	r1, [sp, #16]
  404a9a:	a820      	add	r0, sp, #128	; 0x80
  404a9c:	a91f      	add	r1, sp, #124	; 0x7c
  404a9e:	9003      	str	r0, [sp, #12]
  404aa0:	9a08      	ldr	r2, [sp, #32]
  404aa2:	463b      	mov	r3, r7
  404aa4:	9102      	str	r1, [sp, #8]
  404aa6:	980c      	ldr	r0, [sp, #48]	; 0x30
  404aa8:	f000 faba 	bl	405020 <_dtoa_r>
  404aac:	4625      	mov	r5, r4
  404aae:	4606      	mov	r6, r0
  404ab0:	9b11      	ldr	r3, [sp, #68]	; 0x44
  404ab2:	1974      	adds	r4, r6, r5
  404ab4:	2b46      	cmp	r3, #70	; 0x46
  404ab6:	f47f af64 	bne.w	404982 <_svfprintf_r+0xfaa>
  404aba:	7833      	ldrb	r3, [r6, #0]
  404abc:	2b30      	cmp	r3, #48	; 0x30
  404abe:	f000 8187 	beq.w	404dd0 <_svfprintf_r+0x13f8>
  404ac2:	9d1f      	ldr	r5, [sp, #124]	; 0x7c
  404ac4:	442c      	add	r4, r5
  404ac6:	e75c      	b.n	404982 <_svfprintf_r+0xfaa>
  404ac8:	9b0a      	ldr	r3, [sp, #40]	; 0x28
  404aca:	2b00      	cmp	r3, #0
  404acc:	bf08      	it	eq
  404ace:	2301      	moveq	r3, #1
  404ad0:	930a      	str	r3, [sp, #40]	; 0x28
  404ad2:	e723      	b.n	40491c <_svfprintf_r+0xf44>
  404ad4:	4630      	mov	r0, r6
  404ad6:	950a      	str	r5, [sp, #40]	; 0x28
  404ad8:	f7fe fea6 	bl	403828 <strlen>
  404adc:	940f      	str	r4, [sp, #60]	; 0x3c
  404ade:	900e      	str	r0, [sp, #56]	; 0x38
  404ae0:	f8cd b01c 	str.w	fp, [sp, #28]
  404ae4:	4603      	mov	r3, r0
  404ae6:	f7ff b9e7 	b.w	403eb8 <_svfprintf_r+0x4e0>
  404aea:	272d      	movs	r7, #45	; 0x2d
  404aec:	2300      	movs	r3, #0
  404aee:	f88d 7077 	strb.w	r7, [sp, #119]	; 0x77
  404af2:	930a      	str	r3, [sp, #40]	; 0x28
  404af4:	f7ff b895 	b.w	403c22 <_svfprintf_r+0x24a>
  404af8:	9b1f      	ldr	r3, [sp, #124]	; 0x7c
  404afa:	461a      	mov	r2, r3
  404afc:	9312      	str	r3, [sp, #72]	; 0x48
  404afe:	3303      	adds	r3, #3
  404b00:	db04      	blt.n	404b0c <_svfprintf_r+0x1134>
  404b02:	9b0a      	ldr	r3, [sp, #40]	; 0x28
  404b04:	4619      	mov	r1, r3
  404b06:	4291      	cmp	r1, r2
  404b08:	f6bf af5e 	bge.w	4049c8 <_svfprintf_r+0xff0>
  404b0c:	9b11      	ldr	r3, [sp, #68]	; 0x44
  404b0e:	3b02      	subs	r3, #2
  404b10:	9311      	str	r3, [sp, #68]	; 0x44
  404b12:	9b12      	ldr	r3, [sp, #72]	; 0x48
  404b14:	f89d 2044 	ldrb.w	r2, [sp, #68]	; 0x44
  404b18:	3b01      	subs	r3, #1
  404b1a:	2b00      	cmp	r3, #0
  404b1c:	f88d 2084 	strb.w	r2, [sp, #132]	; 0x84
  404b20:	bfb4      	ite	lt
  404b22:	222d      	movlt	r2, #45	; 0x2d
  404b24:	222b      	movge	r2, #43	; 0x2b
  404b26:	931f      	str	r3, [sp, #124]	; 0x7c
  404b28:	bfb8      	it	lt
  404b2a:	9b12      	ldrlt	r3, [sp, #72]	; 0x48
  404b2c:	f88d 2085 	strb.w	r2, [sp, #133]	; 0x85
  404b30:	bfb8      	it	lt
  404b32:	f1c3 0301 	rsblt	r3, r3, #1
  404b36:	2b09      	cmp	r3, #9
  404b38:	f340 811f 	ble.w	404d7a <_svfprintf_r+0x13a2>
  404b3c:	f10d 0093 	add.w	r0, sp, #147	; 0x93
  404b40:	4601      	mov	r1, r0
  404b42:	4c68      	ldr	r4, [pc, #416]	; (404ce4 <_svfprintf_r+0x130c>)
  404b44:	e000      	b.n	404b48 <_svfprintf_r+0x1170>
  404b46:	4611      	mov	r1, r2
  404b48:	fb84 5203 	smull	r5, r2, r4, r3
  404b4c:	17dd      	asrs	r5, r3, #31
  404b4e:	ebc5 05a2 	rsb	r5, r5, r2, asr #2
  404b52:	eb05 0285 	add.w	r2, r5, r5, lsl #2
  404b56:	eba3 0242 	sub.w	r2, r3, r2, lsl #1
  404b5a:	3230      	adds	r2, #48	; 0x30
  404b5c:	2d09      	cmp	r5, #9
  404b5e:	f801 2c01 	strb.w	r2, [r1, #-1]
  404b62:	462b      	mov	r3, r5
  404b64:	f101 32ff 	add.w	r2, r1, #4294967295
  404b68:	dced      	bgt.n	404b46 <_svfprintf_r+0x116e>
  404b6a:	3330      	adds	r3, #48	; 0x30
  404b6c:	3902      	subs	r1, #2
  404b6e:	b2dc      	uxtb	r4, r3
  404b70:	4288      	cmp	r0, r1
  404b72:	f802 4c01 	strb.w	r4, [r2, #-1]
  404b76:	f240 8192 	bls.w	404e9e <_svfprintf_r+0x14c6>
  404b7a:	f10d 0186 	add.w	r1, sp, #134	; 0x86
  404b7e:	4613      	mov	r3, r2
  404b80:	e001      	b.n	404b86 <_svfprintf_r+0x11ae>
  404b82:	f813 4b01 	ldrb.w	r4, [r3], #1
  404b86:	4283      	cmp	r3, r0
  404b88:	f801 4b01 	strb.w	r4, [r1], #1
  404b8c:	d1f9      	bne.n	404b82 <_svfprintf_r+0x11aa>
  404b8e:	3301      	adds	r3, #1
  404b90:	1a9b      	subs	r3, r3, r2
  404b92:	f10d 0286 	add.w	r2, sp, #134	; 0x86
  404b96:	4413      	add	r3, r2
  404b98:	aa21      	add	r2, sp, #132	; 0x84
  404b9a:	1a9b      	subs	r3, r3, r2
  404b9c:	9a13      	ldr	r2, [sp, #76]	; 0x4c
  404b9e:	931b      	str	r3, [sp, #108]	; 0x6c
  404ba0:	2a01      	cmp	r2, #1
  404ba2:	4413      	add	r3, r2
  404ba4:	930e      	str	r3, [sp, #56]	; 0x38
  404ba6:	f340 8148 	ble.w	404e3a <_svfprintf_r+0x1462>
  404baa:	9b0e      	ldr	r3, [sp, #56]	; 0x38
  404bac:	9a19      	ldr	r2, [sp, #100]	; 0x64
  404bae:	4413      	add	r3, r2
  404bb0:	930e      	str	r3, [sp, #56]	; 0x38
  404bb2:	ea23 73e3 	bic.w	r3, r3, r3, asr #31
  404bb6:	9308      	str	r3, [sp, #32]
  404bb8:	2300      	movs	r3, #0
  404bba:	9312      	str	r3, [sp, #72]	; 0x48
  404bbc:	e714      	b.n	4049e8 <_svfprintf_r+0x1010>
  404bbe:	9c27      	ldr	r4, [sp, #156]	; 0x9c
  404bc0:	9a26      	ldr	r2, [sp, #152]	; 0x98
  404bc2:	f7ff b876 	b.w	403cb2 <_svfprintf_r+0x2da>
  404bc6:	aa25      	add	r2, sp, #148	; 0x94
  404bc8:	990b      	ldr	r1, [sp, #44]	; 0x2c
  404bca:	980c      	ldr	r0, [sp, #48]	; 0x30
  404bcc:	f002 fae2 	bl	407194 <__ssprint_r>
  404bd0:	2800      	cmp	r0, #0
  404bd2:	f47e afde 	bne.w	403b92 <_svfprintf_r+0x1ba>
  404bd6:	46c8      	mov	r8, r9
  404bd8:	9c27      	ldr	r4, [sp, #156]	; 0x9c
  404bda:	e4fb      	b.n	4045d4 <_svfprintf_r+0xbfc>
  404bdc:	4623      	mov	r3, r4
  404bde:	e6e3      	b.n	4049a8 <_svfprintf_r+0xfd0>
  404be0:	aa25      	add	r2, sp, #148	; 0x94
  404be2:	990b      	ldr	r1, [sp, #44]	; 0x2c
  404be4:	980c      	ldr	r0, [sp, #48]	; 0x30
  404be6:	f002 fad5 	bl	407194 <__ssprint_r>
  404bea:	2800      	cmp	r0, #0
  404bec:	f47e afd1 	bne.w	403b92 <_svfprintf_r+0x1ba>
  404bf0:	46c8      	mov	r8, r9
  404bf2:	9a1f      	ldr	r2, [sp, #124]	; 0x7c
  404bf4:	9c27      	ldr	r4, [sp, #156]	; 0x9c
  404bf6:	e5d3      	b.n	4047a0 <_svfprintf_r+0xdc8>
  404bf8:	aa25      	add	r2, sp, #148	; 0x94
  404bfa:	990b      	ldr	r1, [sp, #44]	; 0x2c
  404bfc:	980c      	ldr	r0, [sp, #48]	; 0x30
  404bfe:	f002 fac9 	bl	407194 <__ssprint_r>
  404c02:	2800      	cmp	r0, #0
  404c04:	f47e afc5 	bne.w	403b92 <_svfprintf_r+0x1ba>
  404c08:	9a1f      	ldr	r2, [sp, #124]	; 0x7c
  404c0a:	9b13      	ldr	r3, [sp, #76]	; 0x4c
  404c0c:	46c8      	mov	r8, r9
  404c0e:	9c27      	ldr	r4, [sp, #156]	; 0x9c
  404c10:	1a9a      	subs	r2, r3, r2
  404c12:	e5dd      	b.n	4047d0 <_svfprintf_r+0xdf8>
  404c14:	9b26      	ldr	r3, [sp, #152]	; 0x98
  404c16:	f7ff b8fe 	b.w	403e16 <_svfprintf_r+0x43e>
  404c1a:	aa25      	add	r2, sp, #148	; 0x94
  404c1c:	990b      	ldr	r1, [sp, #44]	; 0x2c
  404c1e:	980c      	ldr	r0, [sp, #48]	; 0x30
  404c20:	f002 fab8 	bl	407194 <__ssprint_r>
  404c24:	2800      	cmp	r0, #0
  404c26:	f47e afb4 	bne.w	403b92 <_svfprintf_r+0x1ba>
  404c2a:	46c8      	mov	r8, r9
  404c2c:	9c27      	ldr	r4, [sp, #156]	; 0x9c
  404c2e:	e5b0      	b.n	404792 <_svfprintf_r+0xdba>
  404c30:	9b0a      	ldr	r3, [sp, #40]	; 0x28
  404c32:	4637      	mov	r7, r6
  404c34:	2b06      	cmp	r3, #6
  404c36:	bf28      	it	cs
  404c38:	2306      	movcs	r3, #6
  404c3a:	960a      	str	r6, [sp, #40]	; 0x28
  404c3c:	9612      	str	r6, [sp, #72]	; 0x48
  404c3e:	9308      	str	r3, [sp, #32]
  404c40:	940f      	str	r4, [sp, #60]	; 0x3c
  404c42:	f8cd b01c 	str.w	fp, [sp, #28]
  404c46:	930e      	str	r3, [sp, #56]	; 0x38
  404c48:	4e27      	ldr	r6, [pc, #156]	; (404ce8 <_svfprintf_r+0x1310>)
  404c4a:	f7fe bfe9 	b.w	403c20 <_svfprintf_r+0x248>
  404c4e:	2306      	movs	r3, #6
  404c50:	930a      	str	r3, [sp, #40]	; 0x28
  404c52:	e663      	b.n	40491c <_svfprintf_r+0xf44>
  404c54:	232d      	movs	r3, #45	; 0x2d
  404c56:	461f      	mov	r7, r3
  404c58:	f88d 3077 	strb.w	r3, [sp, #119]	; 0x77
  404c5c:	f7ff ba28 	b.w	4040b0 <_svfprintf_r+0x6d8>
  404c60:	2003      	movs	r0, #3
  404c62:	9c0a      	ldr	r4, [sp, #40]	; 0x28
  404c64:	a923      	add	r1, sp, #140	; 0x8c
  404c66:	e88d 0011 	stmia.w	sp, {r0, r4}
  404c6a:	9104      	str	r1, [sp, #16]
  404c6c:	a820      	add	r0, sp, #128	; 0x80
  404c6e:	a91f      	add	r1, sp, #124	; 0x7c
  404c70:	9003      	str	r0, [sp, #12]
  404c72:	9a08      	ldr	r2, [sp, #32]
  404c74:	463b      	mov	r3, r7
  404c76:	9102      	str	r1, [sp, #8]
  404c78:	980c      	ldr	r0, [sp, #48]	; 0x30
  404c7a:	f000 f9d1 	bl	405020 <_dtoa_r>
  404c7e:	4625      	mov	r5, r4
  404c80:	4606      	mov	r6, r0
  404c82:	1904      	adds	r4, r0, r4
  404c84:	e719      	b.n	404aba <_svfprintf_r+0x10e2>
  404c86:	9b26      	ldr	r3, [sp, #152]	; 0x98
  404c88:	4d15      	ldr	r5, [pc, #84]	; (404ce0 <_svfprintf_r+0x1308>)
  404c8a:	f7ff bb7e 	b.w	40438a <_svfprintf_r+0x9b2>
  404c8e:	9a19      	ldr	r2, [sp, #100]	; 0x64
  404c90:	9b13      	ldr	r3, [sp, #76]	; 0x4c
  404c92:	4413      	add	r3, r2
  404c94:	9a12      	ldr	r2, [sp, #72]	; 0x48
  404c96:	930e      	str	r3, [sp, #56]	; 0x38
  404c98:	2a00      	cmp	r2, #0
  404c9a:	f340 80c7 	ble.w	404e2c <_svfprintf_r+0x1454>
  404c9e:	ea23 73e3 	bic.w	r3, r3, r3, asr #31
  404ca2:	9308      	str	r3, [sp, #32]
  404ca4:	2367      	movs	r3, #103	; 0x67
  404ca6:	9311      	str	r3, [sp, #68]	; 0x44
  404ca8:	e69e      	b.n	4049e8 <_svfprintf_r+0x1010>
  404caa:	2b00      	cmp	r3, #0
  404cac:	f340 80e1 	ble.w	404e72 <_svfprintf_r+0x149a>
  404cb0:	9a0a      	ldr	r2, [sp, #40]	; 0x28
  404cb2:	2a00      	cmp	r2, #0
  404cb4:	f040 80b0 	bne.w	404e18 <_svfprintf_r+0x1440>
  404cb8:	f01b 0f01 	tst.w	fp, #1
  404cbc:	f040 80ac 	bne.w	404e18 <_svfprintf_r+0x1440>
  404cc0:	9308      	str	r3, [sp, #32]
  404cc2:	930e      	str	r3, [sp, #56]	; 0x38
  404cc4:	e690      	b.n	4049e8 <_svfprintf_r+0x1010>
  404cc6:	9b0a      	ldr	r3, [sp, #40]	; 0x28
  404cc8:	940f      	str	r4, [sp, #60]	; 0x3c
  404cca:	9308      	str	r3, [sp, #32]
  404ccc:	930e      	str	r3, [sp, #56]	; 0x38
  404cce:	900a      	str	r0, [sp, #40]	; 0x28
  404cd0:	f8cd b01c 	str.w	fp, [sp, #28]
  404cd4:	9012      	str	r0, [sp, #72]	; 0x48
  404cd6:	f89d 7077 	ldrb.w	r7, [sp, #119]	; 0x77
  404cda:	f7fe bfa1 	b.w	403c20 <_svfprintf_r+0x248>
  404cde:	bf00      	nop
  404ce0:	004081a4 	.word	0x004081a4
  404ce4:	66666667 	.word	0x66666667
  404ce8:	00408188 	.word	0x00408188
  404cec:	9b11      	ldr	r3, [sp, #68]	; 0x44
  404cee:	2b47      	cmp	r3, #71	; 0x47
  404cf0:	f47f ae46 	bne.w	404980 <_svfprintf_r+0xfa8>
  404cf4:	f01b 0f01 	tst.w	fp, #1
  404cf8:	f47f aeda 	bne.w	404ab0 <_svfprintf_r+0x10d8>
  404cfc:	9b23      	ldr	r3, [sp, #140]	; 0x8c
  404cfe:	1b9b      	subs	r3, r3, r6
  404d00:	9313      	str	r3, [sp, #76]	; 0x4c
  404d02:	9b0e      	ldr	r3, [sp, #56]	; 0x38
  404d04:	2b47      	cmp	r3, #71	; 0x47
  404d06:	f43f aef7 	beq.w	404af8 <_svfprintf_r+0x1120>
  404d0a:	9b1f      	ldr	r3, [sp, #124]	; 0x7c
  404d0c:	9312      	str	r3, [sp, #72]	; 0x48
  404d0e:	e700      	b.n	404b12 <_svfprintf_r+0x113a>
  404d10:	2000      	movs	r0, #0
  404d12:	900a      	str	r0, [sp, #40]	; 0x28
  404d14:	f7fe bebc 	b.w	403a90 <_svfprintf_r+0xb8>
  404d18:	424f      	negs	r7, r1
  404d1a:	3110      	adds	r1, #16
  404d1c:	da35      	bge.n	404d8a <_svfprintf_r+0x13b2>
  404d1e:	2410      	movs	r4, #16
  404d20:	4d6a      	ldr	r5, [pc, #424]	; (404ecc <_svfprintf_r+0x14f4>)
  404d22:	f8dd b030 	ldr.w	fp, [sp, #48]	; 0x30
  404d26:	e004      	b.n	404d32 <_svfprintf_r+0x135a>
  404d28:	f108 0808 	add.w	r8, r8, #8
  404d2c:	3f10      	subs	r7, #16
  404d2e:	2f10      	cmp	r7, #16
  404d30:	dd2c      	ble.n	404d8c <_svfprintf_r+0x13b4>
  404d32:	3301      	adds	r3, #1
  404d34:	3210      	adds	r2, #16
  404d36:	2b07      	cmp	r3, #7
  404d38:	9227      	str	r2, [sp, #156]	; 0x9c
  404d3a:	9326      	str	r3, [sp, #152]	; 0x98
  404d3c:	f8c8 5000 	str.w	r5, [r8]
  404d40:	f8c8 4004 	str.w	r4, [r8, #4]
  404d44:	ddf0      	ble.n	404d28 <_svfprintf_r+0x1350>
  404d46:	aa25      	add	r2, sp, #148	; 0x94
  404d48:	990b      	ldr	r1, [sp, #44]	; 0x2c
  404d4a:	4658      	mov	r0, fp
  404d4c:	f002 fa22 	bl	407194 <__ssprint_r>
  404d50:	2800      	cmp	r0, #0
  404d52:	f47e af1e 	bne.w	403b92 <_svfprintf_r+0x1ba>
  404d56:	46c8      	mov	r8, r9
  404d58:	9a27      	ldr	r2, [sp, #156]	; 0x9c
  404d5a:	9b26      	ldr	r3, [sp, #152]	; 0x98
  404d5c:	e7e6      	b.n	404d2c <_svfprintf_r+0x1354>
  404d5e:	aa25      	add	r2, sp, #148	; 0x94
  404d60:	990b      	ldr	r1, [sp, #44]	; 0x2c
  404d62:	980c      	ldr	r0, [sp, #48]	; 0x30
  404d64:	f002 fa16 	bl	407194 <__ssprint_r>
  404d68:	2800      	cmp	r0, #0
  404d6a:	f47e af12 	bne.w	403b92 <_svfprintf_r+0x1ba>
  404d6e:	46c8      	mov	r8, r9
  404d70:	991f      	ldr	r1, [sp, #124]	; 0x7c
  404d72:	9a27      	ldr	r2, [sp, #156]	; 0x9c
  404d74:	9b26      	ldr	r3, [sp, #152]	; 0x98
  404d76:	f7ff bbc3 	b.w	404500 <_svfprintf_r+0xb28>
  404d7a:	2230      	movs	r2, #48	; 0x30
  404d7c:	4413      	add	r3, r2
  404d7e:	f88d 3087 	strb.w	r3, [sp, #135]	; 0x87
  404d82:	f88d 2086 	strb.w	r2, [sp, #134]	; 0x86
  404d86:	ab22      	add	r3, sp, #136	; 0x88
  404d88:	e706      	b.n	404b98 <_svfprintf_r+0x11c0>
  404d8a:	4d50      	ldr	r5, [pc, #320]	; (404ecc <_svfprintf_r+0x14f4>)
  404d8c:	3301      	adds	r3, #1
  404d8e:	443a      	add	r2, r7
  404d90:	2b07      	cmp	r3, #7
  404d92:	e888 00a0 	stmia.w	r8, {r5, r7}
  404d96:	9227      	str	r2, [sp, #156]	; 0x9c
  404d98:	9326      	str	r3, [sp, #152]	; 0x98
  404d9a:	f108 0808 	add.w	r8, r8, #8
  404d9e:	f77f abb2 	ble.w	404506 <_svfprintf_r+0xb2e>
  404da2:	aa25      	add	r2, sp, #148	; 0x94
  404da4:	990b      	ldr	r1, [sp, #44]	; 0x2c
  404da6:	980c      	ldr	r0, [sp, #48]	; 0x30
  404da8:	f002 f9f4 	bl	407194 <__ssprint_r>
  404dac:	2800      	cmp	r0, #0
  404dae:	f47e aef0 	bne.w	403b92 <_svfprintf_r+0x1ba>
  404db2:	46c8      	mov	r8, r9
  404db4:	9a27      	ldr	r2, [sp, #156]	; 0x9c
  404db6:	9b26      	ldr	r3, [sp, #152]	; 0x98
  404db8:	f7ff bba5 	b.w	404506 <_svfprintf_r+0xb2e>
  404dbc:	9b12      	ldr	r3, [sp, #72]	; 0x48
  404dbe:	9a19      	ldr	r2, [sp, #100]	; 0x64
  404dc0:	4413      	add	r3, r2
  404dc2:	930e      	str	r3, [sp, #56]	; 0x38
  404dc4:	e76b      	b.n	404c9e <_svfprintf_r+0x12c6>
  404dc6:	9b23      	ldr	r3, [sp, #140]	; 0x8c
  404dc8:	e5ee      	b.n	4049a8 <_svfprintf_r+0xfd0>
  404dca:	9b26      	ldr	r3, [sp, #152]	; 0x98
  404dcc:	4d3f      	ldr	r5, [pc, #252]	; (404ecc <_svfprintf_r+0x14f4>)
  404dce:	e4bb      	b.n	404748 <_svfprintf_r+0xd70>
  404dd0:	9a16      	ldr	r2, [sp, #88]	; 0x58
  404dd2:	9808      	ldr	r0, [sp, #32]
  404dd4:	9b17      	ldr	r3, [sp, #92]	; 0x5c
  404dd6:	4639      	mov	r1, r7
  404dd8:	f002 ff18 	bl	407c0c <__aeabi_dcmpeq>
  404ddc:	2800      	cmp	r0, #0
  404dde:	f47f ae70 	bne.w	404ac2 <_svfprintf_r+0x10ea>
  404de2:	f1c5 0501 	rsb	r5, r5, #1
  404de6:	951f      	str	r5, [sp, #124]	; 0x7c
  404de8:	442c      	add	r4, r5
  404dea:	e5ca      	b.n	404982 <_svfprintf_r+0xfaa>
  404dec:	9b14      	ldr	r3, [sp, #80]	; 0x50
  404dee:	4e38      	ldr	r6, [pc, #224]	; (404ed0 <_svfprintf_r+0x14f8>)
  404df0:	2b00      	cmp	r3, #0
  404df2:	bfbe      	ittt	lt
  404df4:	232d      	movlt	r3, #45	; 0x2d
  404df6:	461f      	movlt	r7, r3
  404df8:	f88d 3077 	strblt.w	r3, [sp, #119]	; 0x77
  404dfc:	f04f 0303 	mov.w	r3, #3
  404e00:	461a      	mov	r2, r3
  404e02:	9308      	str	r3, [sp, #32]
  404e04:	f04f 0300 	mov.w	r3, #0
  404e08:	bfa8      	it	ge
  404e0a:	f89d 7077 	ldrbge.w	r7, [sp, #119]	; 0x77
  404e0e:	4619      	mov	r1, r3
  404e10:	930a      	str	r3, [sp, #40]	; 0x28
  404e12:	4b30      	ldr	r3, [pc, #192]	; (404ed4 <_svfprintf_r+0x14fc>)
  404e14:	f7ff b954 	b.w	4040c0 <_svfprintf_r+0x6e8>
  404e18:	9b12      	ldr	r3, [sp, #72]	; 0x48
  404e1a:	9a19      	ldr	r2, [sp, #100]	; 0x64
  404e1c:	4413      	add	r3, r2
  404e1e:	9a0a      	ldr	r2, [sp, #40]	; 0x28
  404e20:	441a      	add	r2, r3
  404e22:	ea22 73e2 	bic.w	r3, r2, r2, asr #31
  404e26:	920e      	str	r2, [sp, #56]	; 0x38
  404e28:	9308      	str	r3, [sp, #32]
  404e2a:	e5dd      	b.n	4049e8 <_svfprintf_r+0x1010>
  404e2c:	9b12      	ldr	r3, [sp, #72]	; 0x48
  404e2e:	9a0e      	ldr	r2, [sp, #56]	; 0x38
  404e30:	f1c3 0301 	rsb	r3, r3, #1
  404e34:	441a      	add	r2, r3
  404e36:	4613      	mov	r3, r2
  404e38:	e7c3      	b.n	404dc2 <_svfprintf_r+0x13ea>
  404e3a:	f01b 0301 	ands.w	r3, fp, #1
  404e3e:	9312      	str	r3, [sp, #72]	; 0x48
  404e40:	f47f aeb3 	bne.w	404baa <_svfprintf_r+0x11d2>
  404e44:	9b0e      	ldr	r3, [sp, #56]	; 0x38
  404e46:	ea23 73e3 	bic.w	r3, r3, r3, asr #31
  404e4a:	9308      	str	r3, [sp, #32]
  404e4c:	e5cc      	b.n	4049e8 <_svfprintf_r+0x1010>
  404e4e:	4d1f      	ldr	r5, [pc, #124]	; (404ecc <_svfprintf_r+0x14f4>)
  404e50:	e43c      	b.n	4046cc <_svfprintf_r+0xcf4>
  404e52:	9b26      	ldr	r3, [sp, #152]	; 0x98
  404e54:	4d1d      	ldr	r5, [pc, #116]	; (404ecc <_svfprintf_r+0x14f4>)
  404e56:	e491      	b.n	40477c <_svfprintf_r+0xda4>
  404e58:	9d0f      	ldr	r5, [sp, #60]	; 0x3c
  404e5a:	f89a 3001 	ldrb.w	r3, [sl, #1]
  404e5e:	6828      	ldr	r0, [r5, #0]
  404e60:	46a2      	mov	sl, r4
  404e62:	ea40 70e0 	orr.w	r0, r0, r0, asr #31
  404e66:	900a      	str	r0, [sp, #40]	; 0x28
  404e68:	4628      	mov	r0, r5
  404e6a:	3004      	adds	r0, #4
  404e6c:	900f      	str	r0, [sp, #60]	; 0x3c
  404e6e:	f7fe be0d 	b.w	403a8c <_svfprintf_r+0xb4>
  404e72:	9b0a      	ldr	r3, [sp, #40]	; 0x28
  404e74:	b913      	cbnz	r3, 404e7c <_svfprintf_r+0x14a4>
  404e76:	f01b 0f01 	tst.w	fp, #1
  404e7a:	d002      	beq.n	404e82 <_svfprintf_r+0x14aa>
  404e7c:	9b19      	ldr	r3, [sp, #100]	; 0x64
  404e7e:	3301      	adds	r3, #1
  404e80:	e7cd      	b.n	404e1e <_svfprintf_r+0x1446>
  404e82:	2301      	movs	r3, #1
  404e84:	e71c      	b.n	404cc0 <_svfprintf_r+0x12e8>
  404e86:	f88d 1077 	strb.w	r1, [sp, #119]	; 0x77
  404e8a:	f7ff b980 	b.w	40418e <_svfprintf_r+0x7b6>
  404e8e:	f88d 1077 	strb.w	r1, [sp, #119]	; 0x77
  404e92:	f7ff b93a 	b.w	40410a <_svfprintf_r+0x732>
  404e96:	f88d 1077 	strb.w	r1, [sp, #119]	; 0x77
  404e9a:	f7ff b84f 	b.w	403f3c <_svfprintf_r+0x564>
  404e9e:	f10d 0386 	add.w	r3, sp, #134	; 0x86
  404ea2:	e679      	b.n	404b98 <_svfprintf_r+0x11c0>
  404ea4:	f88d 1077 	strb.w	r1, [sp, #119]	; 0x77
  404ea8:	f7ff b9b2 	b.w	404210 <_svfprintf_r+0x838>
  404eac:	f04f 32ff 	mov.w	r2, #4294967295
  404eb0:	230c      	movs	r3, #12
  404eb2:	9209      	str	r2, [sp, #36]	; 0x24
  404eb4:	9a0c      	ldr	r2, [sp, #48]	; 0x30
  404eb6:	6013      	str	r3, [r2, #0]
  404eb8:	f7fe be74 	b.w	403ba4 <_svfprintf_r+0x1cc>
  404ebc:	f88d 1077 	strb.w	r1, [sp, #119]	; 0x77
  404ec0:	f7ff b8c4 	b.w	40404c <_svfprintf_r+0x674>
  404ec4:	f88d 1077 	strb.w	r1, [sp, #119]	; 0x77
  404ec8:	f7ff b878 	b.w	403fbc <_svfprintf_r+0x5e4>
  404ecc:	004081a4 	.word	0x004081a4
  404ed0:	0040815c 	.word	0x0040815c
  404ed4:	00408158 	.word	0x00408158

00404ed8 <register_fini>:
  404ed8:	4b02      	ldr	r3, [pc, #8]	; (404ee4 <register_fini+0xc>)
  404eda:	b113      	cbz	r3, 404ee2 <register_fini+0xa>
  404edc:	4802      	ldr	r0, [pc, #8]	; (404ee8 <register_fini+0x10>)
  404ede:	f000 b805 	b.w	404eec <atexit>
  404ee2:	4770      	bx	lr
  404ee4:	00000000 	.word	0x00000000
  404ee8:	00405e65 	.word	0x00405e65

00404eec <atexit>:
  404eec:	2300      	movs	r3, #0
  404eee:	4601      	mov	r1, r0
  404ef0:	461a      	mov	r2, r3
  404ef2:	4618      	mov	r0, r3
  404ef4:	f002 b9d8 	b.w	4072a8 <__register_exitproc>

00404ef8 <quorem>:
  404ef8:	e92d 4ff0 	stmdb	sp!, {r4, r5, r6, r7, r8, r9, sl, fp, lr}
  404efc:	6903      	ldr	r3, [r0, #16]
  404efe:	690f      	ldr	r7, [r1, #16]
  404f00:	b083      	sub	sp, #12
  404f02:	429f      	cmp	r7, r3
  404f04:	f300 8088 	bgt.w	405018 <quorem+0x120>
  404f08:	3f01      	subs	r7, #1
  404f0a:	f101 0614 	add.w	r6, r1, #20
  404f0e:	f100 0a14 	add.w	sl, r0, #20
  404f12:	f856 3027 	ldr.w	r3, [r6, r7, lsl #2]
  404f16:	f85a 2027 	ldr.w	r2, [sl, r7, lsl #2]
  404f1a:	3301      	adds	r3, #1
  404f1c:	fbb2 f8f3 	udiv	r8, r2, r3
  404f20:	00bb      	lsls	r3, r7, #2
  404f22:	9300      	str	r3, [sp, #0]
  404f24:	eb06 0903 	add.w	r9, r6, r3
  404f28:	4453      	add	r3, sl
  404f2a:	9301      	str	r3, [sp, #4]
  404f2c:	f1b8 0f00 	cmp.w	r8, #0
  404f30:	d03b      	beq.n	404faa <quorem+0xb2>
  404f32:	2300      	movs	r3, #0
  404f34:	46b4      	mov	ip, r6
  404f36:	461c      	mov	r4, r3
  404f38:	46d6      	mov	lr, sl
  404f3a:	f85c 2b04 	ldr.w	r2, [ip], #4
  404f3e:	f8de 5000 	ldr.w	r5, [lr]
  404f42:	fa1f fb82 	uxth.w	fp, r2
  404f46:	fb08 330b 	mla	r3, r8, fp, r3
  404f4a:	0c12      	lsrs	r2, r2, #16
  404f4c:	ea4f 4b13 	mov.w	fp, r3, lsr #16
  404f50:	fb08 bb02 	mla	fp, r8, r2, fp
  404f54:	b29a      	uxth	r2, r3
  404f56:	1aa2      	subs	r2, r4, r2
  404f58:	b2ab      	uxth	r3, r5
  404f5a:	fa1f f48b 	uxth.w	r4, fp
  404f5e:	441a      	add	r2, r3
  404f60:	ebc4 4415 	rsb	r4, r4, r5, lsr #16
  404f64:	eb04 4422 	add.w	r4, r4, r2, asr #16
  404f68:	b292      	uxth	r2, r2
  404f6a:	ea42 4204 	orr.w	r2, r2, r4, lsl #16
  404f6e:	45e1      	cmp	r9, ip
  404f70:	f84e 2b04 	str.w	r2, [lr], #4
  404f74:	ea4f 4424 	mov.w	r4, r4, asr #16
  404f78:	ea4f 431b 	mov.w	r3, fp, lsr #16
  404f7c:	d2dd      	bcs.n	404f3a <quorem+0x42>
  404f7e:	9b00      	ldr	r3, [sp, #0]
  404f80:	f85a 3003 	ldr.w	r3, [sl, r3]
  404f84:	b98b      	cbnz	r3, 404faa <quorem+0xb2>
  404f86:	9c01      	ldr	r4, [sp, #4]
  404f88:	1f23      	subs	r3, r4, #4
  404f8a:	459a      	cmp	sl, r3
  404f8c:	d20c      	bcs.n	404fa8 <quorem+0xb0>
  404f8e:	f854 3c04 	ldr.w	r3, [r4, #-4]
  404f92:	b94b      	cbnz	r3, 404fa8 <quorem+0xb0>
  404f94:	f1a4 0308 	sub.w	r3, r4, #8
  404f98:	e002      	b.n	404fa0 <quorem+0xa8>
  404f9a:	681a      	ldr	r2, [r3, #0]
  404f9c:	3b04      	subs	r3, #4
  404f9e:	b91a      	cbnz	r2, 404fa8 <quorem+0xb0>
  404fa0:	459a      	cmp	sl, r3
  404fa2:	f107 37ff 	add.w	r7, r7, #4294967295
  404fa6:	d3f8      	bcc.n	404f9a <quorem+0xa2>
  404fa8:	6107      	str	r7, [r0, #16]
  404faa:	4604      	mov	r4, r0
  404fac:	f001 fe2c 	bl	406c08 <__mcmp>
  404fb0:	2800      	cmp	r0, #0
  404fb2:	db2d      	blt.n	405010 <quorem+0x118>
  404fb4:	4655      	mov	r5, sl
  404fb6:	2300      	movs	r3, #0
  404fb8:	f108 0801 	add.w	r8, r8, #1
  404fbc:	f856 1b04 	ldr.w	r1, [r6], #4
  404fc0:	6828      	ldr	r0, [r5, #0]
  404fc2:	b28a      	uxth	r2, r1
  404fc4:	1a9a      	subs	r2, r3, r2
  404fc6:	0c0b      	lsrs	r3, r1, #16
  404fc8:	b281      	uxth	r1, r0
  404fca:	440a      	add	r2, r1
  404fcc:	ebc3 4310 	rsb	r3, r3, r0, lsr #16
  404fd0:	eb03 4322 	add.w	r3, r3, r2, asr #16
  404fd4:	b292      	uxth	r2, r2
  404fd6:	ea42 4203 	orr.w	r2, r2, r3, lsl #16
  404fda:	45b1      	cmp	r9, r6
  404fdc:	f845 2b04 	str.w	r2, [r5], #4
  404fe0:	ea4f 4323 	mov.w	r3, r3, asr #16
  404fe4:	d2ea      	bcs.n	404fbc <quorem+0xc4>
  404fe6:	f85a 2027 	ldr.w	r2, [sl, r7, lsl #2]
  404fea:	eb0a 0387 	add.w	r3, sl, r7, lsl #2
  404fee:	b97a      	cbnz	r2, 405010 <quorem+0x118>
  404ff0:	1f1a      	subs	r2, r3, #4
  404ff2:	4592      	cmp	sl, r2
  404ff4:	d20b      	bcs.n	40500e <quorem+0x116>
  404ff6:	f853 2c04 	ldr.w	r2, [r3, #-4]
  404ffa:	b942      	cbnz	r2, 40500e <quorem+0x116>
  404ffc:	3b08      	subs	r3, #8
  404ffe:	e002      	b.n	405006 <quorem+0x10e>
  405000:	681a      	ldr	r2, [r3, #0]
  405002:	3b04      	subs	r3, #4
  405004:	b91a      	cbnz	r2, 40500e <quorem+0x116>
  405006:	459a      	cmp	sl, r3
  405008:	f107 37ff 	add.w	r7, r7, #4294967295
  40500c:	d3f8      	bcc.n	405000 <quorem+0x108>
  40500e:	6127      	str	r7, [r4, #16]
  405010:	4640      	mov	r0, r8
  405012:	b003      	add	sp, #12
  405014:	e8bd 8ff0 	ldmia.w	sp!, {r4, r5, r6, r7, r8, r9, sl, fp, pc}
  405018:	2000      	movs	r0, #0
  40501a:	b003      	add	sp, #12
  40501c:	e8bd 8ff0 	ldmia.w	sp!, {r4, r5, r6, r7, r8, r9, sl, fp, pc}

00405020 <_dtoa_r>:
  405020:	e92d 4ff0 	stmdb	sp!, {r4, r5, r6, r7, r8, r9, sl, fp, lr}
  405024:	6c05      	ldr	r5, [r0, #64]	; 0x40
  405026:	b09b      	sub	sp, #108	; 0x6c
  405028:	4604      	mov	r4, r0
  40502a:	4692      	mov	sl, r2
  40502c:	469b      	mov	fp, r3
  40502e:	9e27      	ldr	r6, [sp, #156]	; 0x9c
  405030:	b14d      	cbz	r5, 405046 <_dtoa_r+0x26>
  405032:	2301      	movs	r3, #1
  405034:	6c42      	ldr	r2, [r0, #68]	; 0x44
  405036:	4629      	mov	r1, r5
  405038:	4093      	lsls	r3, r2
  40503a:	60ab      	str	r3, [r5, #8]
  40503c:	606a      	str	r2, [r5, #4]
  40503e:	f001 fc0b 	bl	406858 <_Bfree>
  405042:	2300      	movs	r3, #0
  405044:	6423      	str	r3, [r4, #64]	; 0x40
  405046:	f1bb 0f00 	cmp.w	fp, #0
  40504a:	465d      	mov	r5, fp
  40504c:	db35      	blt.n	4050ba <_dtoa_r+0x9a>
  40504e:	2300      	movs	r3, #0
  405050:	6033      	str	r3, [r6, #0]
  405052:	4b9d      	ldr	r3, [pc, #628]	; (4052c8 <_dtoa_r+0x2a8>)
  405054:	43ab      	bics	r3, r5
  405056:	d015      	beq.n	405084 <_dtoa_r+0x64>
  405058:	2200      	movs	r2, #0
  40505a:	2300      	movs	r3, #0
  40505c:	4650      	mov	r0, sl
  40505e:	4659      	mov	r1, fp
  405060:	f002 fdd4 	bl	407c0c <__aeabi_dcmpeq>
  405064:	4680      	mov	r8, r0
  405066:	2800      	cmp	r0, #0
  405068:	d02d      	beq.n	4050c6 <_dtoa_r+0xa6>
  40506a:	2301      	movs	r3, #1
  40506c:	9a26      	ldr	r2, [sp, #152]	; 0x98
  40506e:	6013      	str	r3, [r2, #0]
  405070:	9b28      	ldr	r3, [sp, #160]	; 0xa0
  405072:	2b00      	cmp	r3, #0
  405074:	f000 80bd 	beq.w	4051f2 <_dtoa_r+0x1d2>
  405078:	4894      	ldr	r0, [pc, #592]	; (4052cc <_dtoa_r+0x2ac>)
  40507a:	6018      	str	r0, [r3, #0]
  40507c:	3801      	subs	r0, #1
  40507e:	b01b      	add	sp, #108	; 0x6c
  405080:	e8bd 8ff0 	ldmia.w	sp!, {r4, r5, r6, r7, r8, r9, sl, fp, pc}
  405084:	f242 730f 	movw	r3, #9999	; 0x270f
  405088:	9a26      	ldr	r2, [sp, #152]	; 0x98
  40508a:	6013      	str	r3, [r2, #0]
  40508c:	f1ba 0f00 	cmp.w	sl, #0
  405090:	d10d      	bne.n	4050ae <_dtoa_r+0x8e>
  405092:	f3c5 0513 	ubfx	r5, r5, #0, #20
  405096:	b955      	cbnz	r5, 4050ae <_dtoa_r+0x8e>
  405098:	9b28      	ldr	r3, [sp, #160]	; 0xa0
  40509a:	488d      	ldr	r0, [pc, #564]	; (4052d0 <_dtoa_r+0x2b0>)
  40509c:	2b00      	cmp	r3, #0
  40509e:	d0ee      	beq.n	40507e <_dtoa_r+0x5e>
  4050a0:	f100 0308 	add.w	r3, r0, #8
  4050a4:	9a28      	ldr	r2, [sp, #160]	; 0xa0
  4050a6:	6013      	str	r3, [r2, #0]
  4050a8:	b01b      	add	sp, #108	; 0x6c
  4050aa:	e8bd 8ff0 	ldmia.w	sp!, {r4, r5, r6, r7, r8, r9, sl, fp, pc}
  4050ae:	9b28      	ldr	r3, [sp, #160]	; 0xa0
  4050b0:	4888      	ldr	r0, [pc, #544]	; (4052d4 <_dtoa_r+0x2b4>)
  4050b2:	2b00      	cmp	r3, #0
  4050b4:	d0e3      	beq.n	40507e <_dtoa_r+0x5e>
  4050b6:	1cc3      	adds	r3, r0, #3
  4050b8:	e7f4      	b.n	4050a4 <_dtoa_r+0x84>
  4050ba:	2301      	movs	r3, #1
  4050bc:	f02b 4500 	bic.w	r5, fp, #2147483648	; 0x80000000
  4050c0:	6033      	str	r3, [r6, #0]
  4050c2:	46ab      	mov	fp, r5
  4050c4:	e7c5      	b.n	405052 <_dtoa_r+0x32>
  4050c6:	aa18      	add	r2, sp, #96	; 0x60
  4050c8:	ab19      	add	r3, sp, #100	; 0x64
  4050ca:	9201      	str	r2, [sp, #4]
  4050cc:	9300      	str	r3, [sp, #0]
  4050ce:	4652      	mov	r2, sl
  4050d0:	465b      	mov	r3, fp
  4050d2:	4620      	mov	r0, r4
  4050d4:	f001 fe42 	bl	406d5c <__d2b>
  4050d8:	0d2b      	lsrs	r3, r5, #20
  4050da:	4681      	mov	r9, r0
  4050dc:	d071      	beq.n	4051c2 <_dtoa_r+0x1a2>
  4050de:	4650      	mov	r0, sl
  4050e0:	f3cb 0213 	ubfx	r2, fp, #0, #20
  4050e4:	f042 517f 	orr.w	r1, r2, #1069547520	; 0x3fc00000
  4050e8:	9f18      	ldr	r7, [sp, #96]	; 0x60
  4050ea:	f2a3 36ff 	subw	r6, r3, #1023	; 0x3ff
  4050ee:	f8cd 8050 	str.w	r8, [sp, #80]	; 0x50
  4050f2:	f441 1140 	orr.w	r1, r1, #3145728	; 0x300000
  4050f6:	2200      	movs	r2, #0
  4050f8:	4b77      	ldr	r3, [pc, #476]	; (4052d8 <_dtoa_r+0x2b8>)
  4050fa:	f002 f96b 	bl	4073d4 <__aeabi_dsub>
  4050fe:	a36c      	add	r3, pc, #432	; (adr r3, 4052b0 <_dtoa_r+0x290>)
  405100:	e9d3 2300 	ldrd	r2, r3, [r3]
  405104:	f002 fb1a 	bl	40773c <__aeabi_dmul>
  405108:	a36b      	add	r3, pc, #428	; (adr r3, 4052b8 <_dtoa_r+0x298>)
  40510a:	e9d3 2300 	ldrd	r2, r3, [r3]
  40510e:	f002 f963 	bl	4073d8 <__adddf3>
  405112:	e9cd 0102 	strd	r0, r1, [sp, #8]
  405116:	4630      	mov	r0, r6
  405118:	f002 faaa 	bl	407670 <__aeabi_i2d>
  40511c:	a368      	add	r3, pc, #416	; (adr r3, 4052c0 <_dtoa_r+0x2a0>)
  40511e:	e9d3 2300 	ldrd	r2, r3, [r3]
  405122:	f002 fb0b 	bl	40773c <__aeabi_dmul>
  405126:	4602      	mov	r2, r0
  405128:	460b      	mov	r3, r1
  40512a:	e9dd 0102 	ldrd	r0, r1, [sp, #8]
  40512e:	f002 f953 	bl	4073d8 <__adddf3>
  405132:	e9cd 0104 	strd	r0, r1, [sp, #16]
  405136:	f002 fdb1 	bl	407c9c <__aeabi_d2iz>
  40513a:	2200      	movs	r2, #0
  40513c:	9002      	str	r0, [sp, #8]
  40513e:	2300      	movs	r3, #0
  405140:	e9dd 0104 	ldrd	r0, r1, [sp, #16]
  405144:	f002 fd6c 	bl	407c20 <__aeabi_dcmplt>
  405148:	2800      	cmp	r0, #0
  40514a:	f040 816d 	bne.w	405428 <_dtoa_r+0x408>
  40514e:	9d02      	ldr	r5, [sp, #8]
  405150:	2d16      	cmp	r5, #22
  405152:	f200 8157 	bhi.w	405404 <_dtoa_r+0x3e4>
  405156:	4961      	ldr	r1, [pc, #388]	; (4052dc <_dtoa_r+0x2bc>)
  405158:	4652      	mov	r2, sl
  40515a:	eb01 01c5 	add.w	r1, r1, r5, lsl #3
  40515e:	465b      	mov	r3, fp
  405160:	e9d1 0100 	ldrd	r0, r1, [r1]
  405164:	f002 fd7a 	bl	407c5c <__aeabi_dcmpgt>
  405168:	2800      	cmp	r0, #0
  40516a:	f000 81be 	beq.w	4054ea <_dtoa_r+0x4ca>
  40516e:	1e6b      	subs	r3, r5, #1
  405170:	9302      	str	r3, [sp, #8]
  405172:	2300      	movs	r3, #0
  405174:	930e      	str	r3, [sp, #56]	; 0x38
  405176:	1bbf      	subs	r7, r7, r6
  405178:	1e7b      	subs	r3, r7, #1
  40517a:	9308      	str	r3, [sp, #32]
  40517c:	f100 814e 	bmi.w	40541c <_dtoa_r+0x3fc>
  405180:	2300      	movs	r3, #0
  405182:	930a      	str	r3, [sp, #40]	; 0x28
  405184:	9b02      	ldr	r3, [sp, #8]
  405186:	2b00      	cmp	r3, #0
  405188:	f2c0 813f 	blt.w	40540a <_dtoa_r+0x3ea>
  40518c:	9a08      	ldr	r2, [sp, #32]
  40518e:	930d      	str	r3, [sp, #52]	; 0x34
  405190:	4611      	mov	r1, r2
  405192:	4419      	add	r1, r3
  405194:	2300      	movs	r3, #0
  405196:	9108      	str	r1, [sp, #32]
  405198:	930c      	str	r3, [sp, #48]	; 0x30
  40519a:	9b24      	ldr	r3, [sp, #144]	; 0x90
  40519c:	2b09      	cmp	r3, #9
  40519e:	d82a      	bhi.n	4051f6 <_dtoa_r+0x1d6>
  4051a0:	2b05      	cmp	r3, #5
  4051a2:	f340 8658 	ble.w	405e56 <_dtoa_r+0xe36>
  4051a6:	2500      	movs	r5, #0
  4051a8:	3b04      	subs	r3, #4
  4051aa:	9324      	str	r3, [sp, #144]	; 0x90
  4051ac:	9b24      	ldr	r3, [sp, #144]	; 0x90
  4051ae:	3b02      	subs	r3, #2
  4051b0:	2b03      	cmp	r3, #3
  4051b2:	f200 863f 	bhi.w	405e34 <_dtoa_r+0xe14>
  4051b6:	e8df f013 	tbh	[pc, r3, lsl #1]
  4051ba:	03ce      	.short	0x03ce
  4051bc:	03d902c3 	.word	0x03d902c3
  4051c0:	045b      	.short	0x045b
  4051c2:	9f18      	ldr	r7, [sp, #96]	; 0x60
  4051c4:	9e19      	ldr	r6, [sp, #100]	; 0x64
  4051c6:	443e      	add	r6, r7
  4051c8:	f206 4332 	addw	r3, r6, #1074	; 0x432
  4051cc:	2b20      	cmp	r3, #32
  4051ce:	f340 8187 	ble.w	4054e0 <_dtoa_r+0x4c0>
  4051d2:	f1c3 0340 	rsb	r3, r3, #64	; 0x40
  4051d6:	f206 4012 	addw	r0, r6, #1042	; 0x412
  4051da:	409d      	lsls	r5, r3
  4051dc:	fa2a f000 	lsr.w	r0, sl, r0
  4051e0:	4328      	orrs	r0, r5
  4051e2:	f002 fa35 	bl	407650 <__aeabi_ui2d>
  4051e6:	2301      	movs	r3, #1
  4051e8:	3e01      	subs	r6, #1
  4051ea:	9314      	str	r3, [sp, #80]	; 0x50
  4051ec:	f1a1 71f8 	sub.w	r1, r1, #32505856	; 0x1f00000
  4051f0:	e781      	b.n	4050f6 <_dtoa_r+0xd6>
  4051f2:	483b      	ldr	r0, [pc, #236]	; (4052e0 <_dtoa_r+0x2c0>)
  4051f4:	e743      	b.n	40507e <_dtoa_r+0x5e>
  4051f6:	2100      	movs	r1, #0
  4051f8:	4620      	mov	r0, r4
  4051fa:	6461      	str	r1, [r4, #68]	; 0x44
  4051fc:	9125      	str	r1, [sp, #148]	; 0x94
  4051fe:	f001 fb05 	bl	40680c <_Balloc>
  405202:	f04f 33ff 	mov.w	r3, #4294967295
  405206:	9307      	str	r3, [sp, #28]
  405208:	930f      	str	r3, [sp, #60]	; 0x3c
  40520a:	2301      	movs	r3, #1
  40520c:	9a25      	ldr	r2, [sp, #148]	; 0x94
  40520e:	9004      	str	r0, [sp, #16]
  405210:	6420      	str	r0, [r4, #64]	; 0x40
  405212:	9224      	str	r2, [sp, #144]	; 0x90
  405214:	930b      	str	r3, [sp, #44]	; 0x2c
  405216:	9b19      	ldr	r3, [sp, #100]	; 0x64
  405218:	2b00      	cmp	r3, #0
  40521a:	f2c0 80d3 	blt.w	4053c4 <_dtoa_r+0x3a4>
  40521e:	9a02      	ldr	r2, [sp, #8]
  405220:	2a0e      	cmp	r2, #14
  405222:	f300 80cf 	bgt.w	4053c4 <_dtoa_r+0x3a4>
  405226:	4b2d      	ldr	r3, [pc, #180]	; (4052dc <_dtoa_r+0x2bc>)
  405228:	eb03 03c2 	add.w	r3, r3, r2, lsl #3
  40522c:	e9d3 2300 	ldrd	r2, r3, [r3]
  405230:	e9cd 2308 	strd	r2, r3, [sp, #32]
  405234:	9b25      	ldr	r3, [sp, #148]	; 0x94
  405236:	2b00      	cmp	r3, #0
  405238:	f2c0 83b4 	blt.w	4059a4 <_dtoa_r+0x984>
  40523c:	e9dd 5608 	ldrd	r5, r6, [sp, #32]
  405240:	4650      	mov	r0, sl
  405242:	462a      	mov	r2, r5
  405244:	4633      	mov	r3, r6
  405246:	4659      	mov	r1, fp
  405248:	f002 fba2 	bl	407990 <__aeabi_ddiv>
  40524c:	f002 fd26 	bl	407c9c <__aeabi_d2iz>
  405250:	4680      	mov	r8, r0
  405252:	f002 fa0d 	bl	407670 <__aeabi_i2d>
  405256:	462a      	mov	r2, r5
  405258:	4633      	mov	r3, r6
  40525a:	f002 fa6f 	bl	40773c <__aeabi_dmul>
  40525e:	4602      	mov	r2, r0
  405260:	460b      	mov	r3, r1
  405262:	4650      	mov	r0, sl
  405264:	4659      	mov	r1, fp
  405266:	f002 f8b5 	bl	4073d4 <__aeabi_dsub>
  40526a:	9e07      	ldr	r6, [sp, #28]
  40526c:	9f04      	ldr	r7, [sp, #16]
  40526e:	f108 0530 	add.w	r5, r8, #48	; 0x30
  405272:	2e01      	cmp	r6, #1
  405274:	703d      	strb	r5, [r7, #0]
  405276:	4602      	mov	r2, r0
  405278:	460b      	mov	r3, r1
  40527a:	f107 0501 	add.w	r5, r7, #1
  40527e:	d064      	beq.n	40534a <_dtoa_r+0x32a>
  405280:	2200      	movs	r2, #0
  405282:	4b18      	ldr	r3, [pc, #96]	; (4052e4 <_dtoa_r+0x2c4>)
  405284:	f002 fa5a 	bl	40773c <__aeabi_dmul>
  405288:	2200      	movs	r2, #0
  40528a:	2300      	movs	r3, #0
  40528c:	4606      	mov	r6, r0
  40528e:	460f      	mov	r7, r1
  405290:	f002 fcbc 	bl	407c0c <__aeabi_dcmpeq>
  405294:	2800      	cmp	r0, #0
  405296:	f040 8082 	bne.w	40539e <_dtoa_r+0x37e>
  40529a:	f8cd 9028 	str.w	r9, [sp, #40]	; 0x28
  40529e:	f04f 0a00 	mov.w	sl, #0
  4052a2:	e9dd 8908 	ldrd	r8, r9, [sp, #32]
  4052a6:	f04f 0b00 	mov.w	fp, #0
  4052aa:	940b      	str	r4, [sp, #44]	; 0x2c
  4052ac:	e029      	b.n	405302 <_dtoa_r+0x2e2>
  4052ae:	bf00      	nop
  4052b0:	636f4361 	.word	0x636f4361
  4052b4:	3fd287a7 	.word	0x3fd287a7
  4052b8:	8b60c8b3 	.word	0x8b60c8b3
  4052bc:	3fc68a28 	.word	0x3fc68a28
  4052c0:	509f79fb 	.word	0x509f79fb
  4052c4:	3fd34413 	.word	0x3fd34413
  4052c8:	7ff00000 	.word	0x7ff00000
  4052cc:	00408191 	.word	0x00408191
  4052d0:	004081b4 	.word	0x004081b4
  4052d4:	004081c0 	.word	0x004081c0
  4052d8:	3ff80000 	.word	0x3ff80000
  4052dc:	00408200 	.word	0x00408200
  4052e0:	00408190 	.word	0x00408190
  4052e4:	40240000 	.word	0x40240000
  4052e8:	2200      	movs	r2, #0
  4052ea:	4b81      	ldr	r3, [pc, #516]	; (4054f0 <_dtoa_r+0x4d0>)
  4052ec:	f002 fa26 	bl	40773c <__aeabi_dmul>
  4052f0:	4652      	mov	r2, sl
  4052f2:	465b      	mov	r3, fp
  4052f4:	4606      	mov	r6, r0
  4052f6:	460f      	mov	r7, r1
  4052f8:	f002 fc88 	bl	407c0c <__aeabi_dcmpeq>
  4052fc:	2800      	cmp	r0, #0
  4052fe:	f040 83ba 	bne.w	405a76 <_dtoa_r+0xa56>
  405302:	4642      	mov	r2, r8
  405304:	464b      	mov	r3, r9
  405306:	4630      	mov	r0, r6
  405308:	4639      	mov	r1, r7
  40530a:	f002 fb41 	bl	407990 <__aeabi_ddiv>
  40530e:	f002 fcc5 	bl	407c9c <__aeabi_d2iz>
  405312:	4604      	mov	r4, r0
  405314:	f002 f9ac 	bl	407670 <__aeabi_i2d>
  405318:	4642      	mov	r2, r8
  40531a:	464b      	mov	r3, r9
  40531c:	f002 fa0e 	bl	40773c <__aeabi_dmul>
  405320:	4602      	mov	r2, r0
  405322:	460b      	mov	r3, r1
  405324:	4630      	mov	r0, r6
  405326:	4639      	mov	r1, r7
  405328:	f002 f854 	bl	4073d4 <__aeabi_dsub>
  40532c:	f104 0630 	add.w	r6, r4, #48	; 0x30
  405330:	f805 6b01 	strb.w	r6, [r5], #1
  405334:	9e04      	ldr	r6, [sp, #16]
  405336:	9f07      	ldr	r7, [sp, #28]
  405338:	1bae      	subs	r6, r5, r6
  40533a:	42be      	cmp	r6, r7
  40533c:	4602      	mov	r2, r0
  40533e:	460b      	mov	r3, r1
  405340:	d1d2      	bne.n	4052e8 <_dtoa_r+0x2c8>
  405342:	46a0      	mov	r8, r4
  405344:	f8dd 9028 	ldr.w	r9, [sp, #40]	; 0x28
  405348:	9c0b      	ldr	r4, [sp, #44]	; 0x2c
  40534a:	4610      	mov	r0, r2
  40534c:	4619      	mov	r1, r3
  40534e:	f002 f843 	bl	4073d8 <__adddf3>
  405352:	4606      	mov	r6, r0
  405354:	460f      	mov	r7, r1
  405356:	4602      	mov	r2, r0
  405358:	460b      	mov	r3, r1
  40535a:	e9dd 0108 	ldrd	r0, r1, [sp, #32]
  40535e:	f002 fc5f 	bl	407c20 <__aeabi_dcmplt>
  405362:	b948      	cbnz	r0, 405378 <_dtoa_r+0x358>
  405364:	e9dd 0108 	ldrd	r0, r1, [sp, #32]
  405368:	4632      	mov	r2, r6
  40536a:	463b      	mov	r3, r7
  40536c:	f002 fc4e 	bl	407c0c <__aeabi_dcmpeq>
  405370:	b1a8      	cbz	r0, 40539e <_dtoa_r+0x37e>
  405372:	f018 0f01 	tst.w	r8, #1
  405376:	d012      	beq.n	40539e <_dtoa_r+0x37e>
  405378:	f815 8c01 	ldrb.w	r8, [r5, #-1]
  40537c:	1e6b      	subs	r3, r5, #1
  40537e:	9a04      	ldr	r2, [sp, #16]
  405380:	e004      	b.n	40538c <_dtoa_r+0x36c>
  405382:	429a      	cmp	r2, r3
  405384:	f000 8402 	beq.w	405b8c <_dtoa_r+0xb6c>
  405388:	f813 8d01 	ldrb.w	r8, [r3, #-1]!
  40538c:	f1b8 0f39 	cmp.w	r8, #57	; 0x39
  405390:	f103 0501 	add.w	r5, r3, #1
  405394:	d0f5      	beq.n	405382 <_dtoa_r+0x362>
  405396:	f108 0801 	add.w	r8, r8, #1
  40539a:	f883 8000 	strb.w	r8, [r3]
  40539e:	4649      	mov	r1, r9
  4053a0:	4620      	mov	r0, r4
  4053a2:	f001 fa59 	bl	406858 <_Bfree>
  4053a6:	2200      	movs	r2, #0
  4053a8:	9b02      	ldr	r3, [sp, #8]
  4053aa:	702a      	strb	r2, [r5, #0]
  4053ac:	9a26      	ldr	r2, [sp, #152]	; 0x98
  4053ae:	3301      	adds	r3, #1
  4053b0:	6013      	str	r3, [r2, #0]
  4053b2:	9b28      	ldr	r3, [sp, #160]	; 0xa0
  4053b4:	2b00      	cmp	r3, #0
  4053b6:	f000 839f 	beq.w	405af8 <_dtoa_r+0xad8>
  4053ba:	9804      	ldr	r0, [sp, #16]
  4053bc:	601d      	str	r5, [r3, #0]
  4053be:	b01b      	add	sp, #108	; 0x6c
  4053c0:	e8bd 8ff0 	ldmia.w	sp!, {r4, r5, r6, r7, r8, r9, sl, fp, pc}
  4053c4:	9a0b      	ldr	r2, [sp, #44]	; 0x2c
  4053c6:	2a00      	cmp	r2, #0
  4053c8:	d03e      	beq.n	405448 <_dtoa_r+0x428>
  4053ca:	9a24      	ldr	r2, [sp, #144]	; 0x90
  4053cc:	2a01      	cmp	r2, #1
  4053ce:	f340 8311 	ble.w	4059f4 <_dtoa_r+0x9d4>
  4053d2:	9b07      	ldr	r3, [sp, #28]
  4053d4:	9a0c      	ldr	r2, [sp, #48]	; 0x30
  4053d6:	1e5f      	subs	r7, r3, #1
  4053d8:	42ba      	cmp	r2, r7
  4053da:	f2c0 8390 	blt.w	405afe <_dtoa_r+0xade>
  4053de:	1bd7      	subs	r7, r2, r7
  4053e0:	9b07      	ldr	r3, [sp, #28]
  4053e2:	2b00      	cmp	r3, #0
  4053e4:	f2c0 848c 	blt.w	405d00 <_dtoa_r+0xce0>
  4053e8:	9d0a      	ldr	r5, [sp, #40]	; 0x28
  4053ea:	9b07      	ldr	r3, [sp, #28]
  4053ec:	9a0a      	ldr	r2, [sp, #40]	; 0x28
  4053ee:	2101      	movs	r1, #1
  4053f0:	441a      	add	r2, r3
  4053f2:	920a      	str	r2, [sp, #40]	; 0x28
  4053f4:	9a08      	ldr	r2, [sp, #32]
  4053f6:	4620      	mov	r0, r4
  4053f8:	441a      	add	r2, r3
  4053fa:	9208      	str	r2, [sp, #32]
  4053fc:	f001 fac8 	bl	406990 <__i2b>
  405400:	4606      	mov	r6, r0
  405402:	e023      	b.n	40544c <_dtoa_r+0x42c>
  405404:	2301      	movs	r3, #1
  405406:	930e      	str	r3, [sp, #56]	; 0x38
  405408:	e6b5      	b.n	405176 <_dtoa_r+0x156>
  40540a:	2300      	movs	r3, #0
  40540c:	9a0a      	ldr	r2, [sp, #40]	; 0x28
  40540e:	930d      	str	r3, [sp, #52]	; 0x34
  405410:	9b02      	ldr	r3, [sp, #8]
  405412:	1ad2      	subs	r2, r2, r3
  405414:	425b      	negs	r3, r3
  405416:	920a      	str	r2, [sp, #40]	; 0x28
  405418:	930c      	str	r3, [sp, #48]	; 0x30
  40541a:	e6be      	b.n	40519a <_dtoa_r+0x17a>
  40541c:	f1c7 0301 	rsb	r3, r7, #1
  405420:	930a      	str	r3, [sp, #40]	; 0x28
  405422:	2300      	movs	r3, #0
  405424:	9308      	str	r3, [sp, #32]
  405426:	e6ad      	b.n	405184 <_dtoa_r+0x164>
  405428:	9d02      	ldr	r5, [sp, #8]
  40542a:	4628      	mov	r0, r5
  40542c:	f002 f920 	bl	407670 <__aeabi_i2d>
  405430:	4602      	mov	r2, r0
  405432:	460b      	mov	r3, r1
  405434:	e9dd 0104 	ldrd	r0, r1, [sp, #16]
  405438:	f002 fbe8 	bl	407c0c <__aeabi_dcmpeq>
  40543c:	2800      	cmp	r0, #0
  40543e:	f47f ae86 	bne.w	40514e <_dtoa_r+0x12e>
  405442:	1e6b      	subs	r3, r5, #1
  405444:	9302      	str	r3, [sp, #8]
  405446:	e682      	b.n	40514e <_dtoa_r+0x12e>
  405448:	ad0a      	add	r5, sp, #40	; 0x28
  40544a:	cde0      	ldmia	r5, {r5, r6, r7}
  40544c:	2d00      	cmp	r5, #0
  40544e:	dd0c      	ble.n	40546a <_dtoa_r+0x44a>
  405450:	9908      	ldr	r1, [sp, #32]
  405452:	2900      	cmp	r1, #0
  405454:	460b      	mov	r3, r1
  405456:	dd08      	ble.n	40546a <_dtoa_r+0x44a>
  405458:	42a9      	cmp	r1, r5
  40545a:	bfa8      	it	ge
  40545c:	462b      	movge	r3, r5
  40545e:	9a0a      	ldr	r2, [sp, #40]	; 0x28
  405460:	1aed      	subs	r5, r5, r3
  405462:	1ad2      	subs	r2, r2, r3
  405464:	1acb      	subs	r3, r1, r3
  405466:	920a      	str	r2, [sp, #40]	; 0x28
  405468:	9308      	str	r3, [sp, #32]
  40546a:	9b0c      	ldr	r3, [sp, #48]	; 0x30
  40546c:	b1d3      	cbz	r3, 4054a4 <_dtoa_r+0x484>
  40546e:	9b0b      	ldr	r3, [sp, #44]	; 0x2c
  405470:	2b00      	cmp	r3, #0
  405472:	f000 82b8 	beq.w	4059e6 <_dtoa_r+0x9c6>
  405476:	2f00      	cmp	r7, #0
  405478:	dd10      	ble.n	40549c <_dtoa_r+0x47c>
  40547a:	4631      	mov	r1, r6
  40547c:	463a      	mov	r2, r7
  40547e:	4620      	mov	r0, r4
  405480:	f001 fb22 	bl	406ac8 <__pow5mult>
  405484:	464a      	mov	r2, r9
  405486:	4601      	mov	r1, r0
  405488:	4606      	mov	r6, r0
  40548a:	4620      	mov	r0, r4
  40548c:	f001 fa8a 	bl	4069a4 <__multiply>
  405490:	4603      	mov	r3, r0
  405492:	4649      	mov	r1, r9
  405494:	4620      	mov	r0, r4
  405496:	4699      	mov	r9, r3
  405498:	f001 f9de 	bl	406858 <_Bfree>
  40549c:	9b0c      	ldr	r3, [sp, #48]	; 0x30
  40549e:	1bda      	subs	r2, r3, r7
  4054a0:	f040 82a2 	bne.w	4059e8 <_dtoa_r+0x9c8>
  4054a4:	2101      	movs	r1, #1
  4054a6:	4620      	mov	r0, r4
  4054a8:	f001 fa72 	bl	406990 <__i2b>
  4054ac:	9b0d      	ldr	r3, [sp, #52]	; 0x34
  4054ae:	4680      	mov	r8, r0
  4054b0:	2b00      	cmp	r3, #0
  4054b2:	dd1f      	ble.n	4054f4 <_dtoa_r+0x4d4>
  4054b4:	4601      	mov	r1, r0
  4054b6:	461a      	mov	r2, r3
  4054b8:	4620      	mov	r0, r4
  4054ba:	f001 fb05 	bl	406ac8 <__pow5mult>
  4054be:	9b24      	ldr	r3, [sp, #144]	; 0x90
  4054c0:	4680      	mov	r8, r0
  4054c2:	2b01      	cmp	r3, #1
  4054c4:	f340 8255 	ble.w	405972 <_dtoa_r+0x952>
  4054c8:	2300      	movs	r3, #0
  4054ca:	930c      	str	r3, [sp, #48]	; 0x30
  4054cc:	f8d8 3010 	ldr.w	r3, [r8, #16]
  4054d0:	eb08 0383 	add.w	r3, r8, r3, lsl #2
  4054d4:	6918      	ldr	r0, [r3, #16]
  4054d6:	f001 fa0b 	bl	4068f0 <__hi0bits>
  4054da:	f1c0 0020 	rsb	r0, r0, #32
  4054de:	e013      	b.n	405508 <_dtoa_r+0x4e8>
  4054e0:	f1c3 0520 	rsb	r5, r3, #32
  4054e4:	fa0a f005 	lsl.w	r0, sl, r5
  4054e8:	e67b      	b.n	4051e2 <_dtoa_r+0x1c2>
  4054ea:	900e      	str	r0, [sp, #56]	; 0x38
  4054ec:	e643      	b.n	405176 <_dtoa_r+0x156>
  4054ee:	bf00      	nop
  4054f0:	40240000 	.word	0x40240000
  4054f4:	9b24      	ldr	r3, [sp, #144]	; 0x90
  4054f6:	2b01      	cmp	r3, #1
  4054f8:	f340 8285 	ble.w	405a06 <_dtoa_r+0x9e6>
  4054fc:	2300      	movs	r3, #0
  4054fe:	930c      	str	r3, [sp, #48]	; 0x30
  405500:	9b0d      	ldr	r3, [sp, #52]	; 0x34
  405502:	2001      	movs	r0, #1
  405504:	2b00      	cmp	r3, #0
  405506:	d1e1      	bne.n	4054cc <_dtoa_r+0x4ac>
  405508:	9a08      	ldr	r2, [sp, #32]
  40550a:	4410      	add	r0, r2
  40550c:	f010 001f 	ands.w	r0, r0, #31
  405510:	f000 80a1 	beq.w	405656 <_dtoa_r+0x636>
  405514:	f1c0 0320 	rsb	r3, r0, #32
  405518:	2b04      	cmp	r3, #4
  40551a:	f340 8486 	ble.w	405e2a <_dtoa_r+0xe0a>
  40551e:	9b0a      	ldr	r3, [sp, #40]	; 0x28
  405520:	f1c0 001c 	rsb	r0, r0, #28
  405524:	4403      	add	r3, r0
  405526:	930a      	str	r3, [sp, #40]	; 0x28
  405528:	4613      	mov	r3, r2
  40552a:	4403      	add	r3, r0
  40552c:	4405      	add	r5, r0
  40552e:	9308      	str	r3, [sp, #32]
  405530:	9b0a      	ldr	r3, [sp, #40]	; 0x28
  405532:	2b00      	cmp	r3, #0
  405534:	dd05      	ble.n	405542 <_dtoa_r+0x522>
  405536:	4649      	mov	r1, r9
  405538:	461a      	mov	r2, r3
  40553a:	4620      	mov	r0, r4
  40553c:	f001 fb14 	bl	406b68 <__lshift>
  405540:	4681      	mov	r9, r0
  405542:	9b08      	ldr	r3, [sp, #32]
  405544:	2b00      	cmp	r3, #0
  405546:	dd05      	ble.n	405554 <_dtoa_r+0x534>
  405548:	4641      	mov	r1, r8
  40554a:	461a      	mov	r2, r3
  40554c:	4620      	mov	r0, r4
  40554e:	f001 fb0b 	bl	406b68 <__lshift>
  405552:	4680      	mov	r8, r0
  405554:	9b0e      	ldr	r3, [sp, #56]	; 0x38
  405556:	2b00      	cmp	r3, #0
  405558:	f040 8086 	bne.w	405668 <_dtoa_r+0x648>
  40555c:	9b07      	ldr	r3, [sp, #28]
  40555e:	2b00      	cmp	r3, #0
  405560:	f340 8264 	ble.w	405a2c <_dtoa_r+0xa0c>
  405564:	9b0b      	ldr	r3, [sp, #44]	; 0x2c
  405566:	2b00      	cmp	r3, #0
  405568:	f000 8098 	beq.w	40569c <_dtoa_r+0x67c>
  40556c:	2d00      	cmp	r5, #0
  40556e:	dd05      	ble.n	40557c <_dtoa_r+0x55c>
  405570:	4631      	mov	r1, r6
  405572:	462a      	mov	r2, r5
  405574:	4620      	mov	r0, r4
  405576:	f001 faf7 	bl	406b68 <__lshift>
  40557a:	4606      	mov	r6, r0
  40557c:	9b0c      	ldr	r3, [sp, #48]	; 0x30
  40557e:	2b00      	cmp	r3, #0
  405580:	f040 8336 	bne.w	405bf0 <_dtoa_r+0xbd0>
  405584:	9608      	str	r6, [sp, #32]
  405586:	9b07      	ldr	r3, [sp, #28]
  405588:	9a04      	ldr	r2, [sp, #16]
  40558a:	3b01      	subs	r3, #1
  40558c:	18d3      	adds	r3, r2, r3
  40558e:	930b      	str	r3, [sp, #44]	; 0x2c
  405590:	4617      	mov	r7, r2
  405592:	f00a 0301 	and.w	r3, sl, #1
  405596:	46c2      	mov	sl, r8
  405598:	f8dd b020 	ldr.w	fp, [sp, #32]
  40559c:	930c      	str	r3, [sp, #48]	; 0x30
  40559e:	4651      	mov	r1, sl
  4055a0:	4648      	mov	r0, r9
  4055a2:	f7ff fca9 	bl	404ef8 <quorem>
  4055a6:	4631      	mov	r1, r6
  4055a8:	4605      	mov	r5, r0
  4055aa:	4648      	mov	r0, r9
  4055ac:	f001 fb2c 	bl	406c08 <__mcmp>
  4055b0:	465a      	mov	r2, fp
  4055b2:	9007      	str	r0, [sp, #28]
  4055b4:	4651      	mov	r1, sl
  4055b6:	4620      	mov	r0, r4
  4055b8:	f001 fb42 	bl	406c40 <__mdiff>
  4055bc:	68c2      	ldr	r2, [r0, #12]
  4055be:	4680      	mov	r8, r0
  4055c0:	f105 0330 	add.w	r3, r5, #48	; 0x30
  4055c4:	2a00      	cmp	r2, #0
  4055c6:	f040 8229 	bne.w	405a1c <_dtoa_r+0x9fc>
  4055ca:	4601      	mov	r1, r0
  4055cc:	4648      	mov	r0, r9
  4055ce:	930a      	str	r3, [sp, #40]	; 0x28
  4055d0:	f001 fb1a 	bl	406c08 <__mcmp>
  4055d4:	4641      	mov	r1, r8
  4055d6:	9008      	str	r0, [sp, #32]
  4055d8:	4620      	mov	r0, r4
  4055da:	f001 f93d 	bl	406858 <_Bfree>
  4055de:	9a08      	ldr	r2, [sp, #32]
  4055e0:	9b0a      	ldr	r3, [sp, #40]	; 0x28
  4055e2:	b932      	cbnz	r2, 4055f2 <_dtoa_r+0x5d2>
  4055e4:	9924      	ldr	r1, [sp, #144]	; 0x90
  4055e6:	b921      	cbnz	r1, 4055f2 <_dtoa_r+0x5d2>
  4055e8:	9a0c      	ldr	r2, [sp, #48]	; 0x30
  4055ea:	2a00      	cmp	r2, #0
  4055ec:	f000 83ee 	beq.w	405dcc <_dtoa_r+0xdac>
  4055f0:	9a24      	ldr	r2, [sp, #144]	; 0x90
  4055f2:	9907      	ldr	r1, [sp, #28]
  4055f4:	2900      	cmp	r1, #0
  4055f6:	f2c0 829f 	blt.w	405b38 <_dtoa_r+0xb18>
  4055fa:	d105      	bne.n	405608 <_dtoa_r+0x5e8>
  4055fc:	9924      	ldr	r1, [sp, #144]	; 0x90
  4055fe:	b919      	cbnz	r1, 405608 <_dtoa_r+0x5e8>
  405600:	990c      	ldr	r1, [sp, #48]	; 0x30
  405602:	2900      	cmp	r1, #0
  405604:	f000 8298 	beq.w	405b38 <_dtoa_r+0xb18>
  405608:	2a00      	cmp	r2, #0
  40560a:	f300 8305 	bgt.w	405c18 <_dtoa_r+0xbf8>
  40560e:	9a0b      	ldr	r2, [sp, #44]	; 0x2c
  405610:	f107 0801 	add.w	r8, r7, #1
  405614:	4297      	cmp	r7, r2
  405616:	703b      	strb	r3, [r7, #0]
  405618:	4645      	mov	r5, r8
  40561a:	f000 830b 	beq.w	405c34 <_dtoa_r+0xc14>
  40561e:	4649      	mov	r1, r9
  405620:	2300      	movs	r3, #0
  405622:	220a      	movs	r2, #10
  405624:	4620      	mov	r0, r4
  405626:	f001 f921 	bl	40686c <__multadd>
  40562a:	455e      	cmp	r6, fp
  40562c:	4681      	mov	r9, r0
  40562e:	4631      	mov	r1, r6
  405630:	f04f 0300 	mov.w	r3, #0
  405634:	f04f 020a 	mov.w	r2, #10
  405638:	4620      	mov	r0, r4
  40563a:	f000 81e9 	beq.w	405a10 <_dtoa_r+0x9f0>
  40563e:	f001 f915 	bl	40686c <__multadd>
  405642:	4659      	mov	r1, fp
  405644:	4606      	mov	r6, r0
  405646:	2300      	movs	r3, #0
  405648:	220a      	movs	r2, #10
  40564a:	4620      	mov	r0, r4
  40564c:	f001 f90e 	bl	40686c <__multadd>
  405650:	4647      	mov	r7, r8
  405652:	4683      	mov	fp, r0
  405654:	e7a3      	b.n	40559e <_dtoa_r+0x57e>
  405656:	201c      	movs	r0, #28
  405658:	9b0a      	ldr	r3, [sp, #40]	; 0x28
  40565a:	4405      	add	r5, r0
  40565c:	4403      	add	r3, r0
  40565e:	930a      	str	r3, [sp, #40]	; 0x28
  405660:	9b08      	ldr	r3, [sp, #32]
  405662:	4403      	add	r3, r0
  405664:	9308      	str	r3, [sp, #32]
  405666:	e763      	b.n	405530 <_dtoa_r+0x510>
  405668:	4641      	mov	r1, r8
  40566a:	4648      	mov	r0, r9
  40566c:	f001 facc 	bl	406c08 <__mcmp>
  405670:	2800      	cmp	r0, #0
  405672:	f6bf af73 	bge.w	40555c <_dtoa_r+0x53c>
  405676:	9f02      	ldr	r7, [sp, #8]
  405678:	4649      	mov	r1, r9
  40567a:	2300      	movs	r3, #0
  40567c:	220a      	movs	r2, #10
  40567e:	4620      	mov	r0, r4
  405680:	3f01      	subs	r7, #1
  405682:	9702      	str	r7, [sp, #8]
  405684:	f001 f8f2 	bl	40686c <__multadd>
  405688:	9b0b      	ldr	r3, [sp, #44]	; 0x2c
  40568a:	4681      	mov	r9, r0
  40568c:	2b00      	cmp	r3, #0
  40568e:	f040 83b5 	bne.w	405dfc <_dtoa_r+0xddc>
  405692:	9b0f      	ldr	r3, [sp, #60]	; 0x3c
  405694:	2b00      	cmp	r3, #0
  405696:	f340 83be 	ble.w	405e16 <_dtoa_r+0xdf6>
  40569a:	9307      	str	r3, [sp, #28]
  40569c:	f8dd a010 	ldr.w	sl, [sp, #16]
  4056a0:	9f07      	ldr	r7, [sp, #28]
  4056a2:	4655      	mov	r5, sl
  4056a4:	e006      	b.n	4056b4 <_dtoa_r+0x694>
  4056a6:	4649      	mov	r1, r9
  4056a8:	2300      	movs	r3, #0
  4056aa:	220a      	movs	r2, #10
  4056ac:	4620      	mov	r0, r4
  4056ae:	f001 f8dd 	bl	40686c <__multadd>
  4056b2:	4681      	mov	r9, r0
  4056b4:	4641      	mov	r1, r8
  4056b6:	4648      	mov	r0, r9
  4056b8:	f7ff fc1e 	bl	404ef8 <quorem>
  4056bc:	3030      	adds	r0, #48	; 0x30
  4056be:	f805 0b01 	strb.w	r0, [r5], #1
  4056c2:	eba5 030a 	sub.w	r3, r5, sl
  4056c6:	42bb      	cmp	r3, r7
  4056c8:	dbed      	blt.n	4056a6 <_dtoa_r+0x686>
  4056ca:	9b04      	ldr	r3, [sp, #16]
  4056cc:	9a07      	ldr	r2, [sp, #28]
  4056ce:	4682      	mov	sl, r0
  4056d0:	2a01      	cmp	r2, #1
  4056d2:	bfac      	ite	ge
  4056d4:	189b      	addge	r3, r3, r2
  4056d6:	3301      	addlt	r3, #1
  4056d8:	f04f 0b00 	mov.w	fp, #0
  4056dc:	461d      	mov	r5, r3
  4056de:	4649      	mov	r1, r9
  4056e0:	2201      	movs	r2, #1
  4056e2:	4620      	mov	r0, r4
  4056e4:	f001 fa40 	bl	406b68 <__lshift>
  4056e8:	4641      	mov	r1, r8
  4056ea:	4681      	mov	r9, r0
  4056ec:	f001 fa8c 	bl	406c08 <__mcmp>
  4056f0:	2800      	cmp	r0, #0
  4056f2:	f340 823f 	ble.w	405b74 <_dtoa_r+0xb54>
  4056f6:	f815 2c01 	ldrb.w	r2, [r5, #-1]
  4056fa:	1e6b      	subs	r3, r5, #1
  4056fc:	9904      	ldr	r1, [sp, #16]
  4056fe:	e004      	b.n	40570a <_dtoa_r+0x6ea>
  405700:	428b      	cmp	r3, r1
  405702:	f000 81ae 	beq.w	405a62 <_dtoa_r+0xa42>
  405706:	f813 2d01 	ldrb.w	r2, [r3, #-1]!
  40570a:	2a39      	cmp	r2, #57	; 0x39
  40570c:	f103 0501 	add.w	r5, r3, #1
  405710:	d0f6      	beq.n	405700 <_dtoa_r+0x6e0>
  405712:	3201      	adds	r2, #1
  405714:	701a      	strb	r2, [r3, #0]
  405716:	4641      	mov	r1, r8
  405718:	4620      	mov	r0, r4
  40571a:	f001 f89d 	bl	406858 <_Bfree>
  40571e:	2e00      	cmp	r6, #0
  405720:	f43f ae3d 	beq.w	40539e <_dtoa_r+0x37e>
  405724:	f1bb 0f00 	cmp.w	fp, #0
  405728:	d005      	beq.n	405736 <_dtoa_r+0x716>
  40572a:	45b3      	cmp	fp, r6
  40572c:	d003      	beq.n	405736 <_dtoa_r+0x716>
  40572e:	4659      	mov	r1, fp
  405730:	4620      	mov	r0, r4
  405732:	f001 f891 	bl	406858 <_Bfree>
  405736:	4631      	mov	r1, r6
  405738:	4620      	mov	r0, r4
  40573a:	f001 f88d 	bl	406858 <_Bfree>
  40573e:	e62e      	b.n	40539e <_dtoa_r+0x37e>
  405740:	2300      	movs	r3, #0
  405742:	930b      	str	r3, [sp, #44]	; 0x2c
  405744:	9b02      	ldr	r3, [sp, #8]
  405746:	9a25      	ldr	r2, [sp, #148]	; 0x94
  405748:	4413      	add	r3, r2
  40574a:	930f      	str	r3, [sp, #60]	; 0x3c
  40574c:	3301      	adds	r3, #1
  40574e:	2b01      	cmp	r3, #1
  405750:	461f      	mov	r7, r3
  405752:	461e      	mov	r6, r3
  405754:	bfb8      	it	lt
  405756:	2701      	movlt	r7, #1
  405758:	9307      	str	r3, [sp, #28]
  40575a:	2100      	movs	r1, #0
  40575c:	2f17      	cmp	r7, #23
  40575e:	6461      	str	r1, [r4, #68]	; 0x44
  405760:	d90a      	bls.n	405778 <_dtoa_r+0x758>
  405762:	2201      	movs	r2, #1
  405764:	2304      	movs	r3, #4
  405766:	005b      	lsls	r3, r3, #1
  405768:	f103 0014 	add.w	r0, r3, #20
  40576c:	4287      	cmp	r7, r0
  40576e:	4611      	mov	r1, r2
  405770:	f102 0201 	add.w	r2, r2, #1
  405774:	d2f7      	bcs.n	405766 <_dtoa_r+0x746>
  405776:	6461      	str	r1, [r4, #68]	; 0x44
  405778:	4620      	mov	r0, r4
  40577a:	f001 f847 	bl	40680c <_Balloc>
  40577e:	2e0e      	cmp	r6, #14
  405780:	9004      	str	r0, [sp, #16]
  405782:	6420      	str	r0, [r4, #64]	; 0x40
  405784:	f63f ad47 	bhi.w	405216 <_dtoa_r+0x1f6>
  405788:	2d00      	cmp	r5, #0
  40578a:	f43f ad44 	beq.w	405216 <_dtoa_r+0x1f6>
  40578e:	9902      	ldr	r1, [sp, #8]
  405790:	e9cd ab10 	strd	sl, fp, [sp, #64]	; 0x40
  405794:	2900      	cmp	r1, #0
  405796:	f340 8203 	ble.w	405ba0 <_dtoa_r+0xb80>
  40579a:	4bb9      	ldr	r3, [pc, #740]	; (405a80 <_dtoa_r+0xa60>)
  40579c:	f001 020f 	and.w	r2, r1, #15
  4057a0:	110d      	asrs	r5, r1, #4
  4057a2:	eb03 03c2 	add.w	r3, r3, r2, lsl #3
  4057a6:	06e9      	lsls	r1, r5, #27
  4057a8:	e9d3 6700 	ldrd	r6, r7, [r3]
  4057ac:	f140 81af 	bpl.w	405b0e <_dtoa_r+0xaee>
  4057b0:	4bb4      	ldr	r3, [pc, #720]	; (405a84 <_dtoa_r+0xa64>)
  4057b2:	4650      	mov	r0, sl
  4057b4:	e9d3 2308 	ldrd	r2, r3, [r3, #32]
  4057b8:	4659      	mov	r1, fp
  4057ba:	f002 f8e9 	bl	407990 <__aeabi_ddiv>
  4057be:	f04f 0a03 	mov.w	sl, #3
  4057c2:	e9cd 0112 	strd	r0, r1, [sp, #72]	; 0x48
  4057c6:	f005 050f 	and.w	r5, r5, #15
  4057ca:	b18d      	cbz	r5, 4057f0 <_dtoa_r+0x7d0>
  4057cc:	f8df 82b4 	ldr.w	r8, [pc, #692]	; 405a84 <_dtoa_r+0xa64>
  4057d0:	07ea      	lsls	r2, r5, #31
  4057d2:	d509      	bpl.n	4057e8 <_dtoa_r+0x7c8>
  4057d4:	e9d8 2300 	ldrd	r2, r3, [r8]
  4057d8:	4630      	mov	r0, r6
  4057da:	4639      	mov	r1, r7
  4057dc:	f001 ffae 	bl	40773c <__aeabi_dmul>
  4057e0:	4606      	mov	r6, r0
  4057e2:	460f      	mov	r7, r1
  4057e4:	f10a 0a01 	add.w	sl, sl, #1
  4057e8:	106d      	asrs	r5, r5, #1
  4057ea:	f108 0808 	add.w	r8, r8, #8
  4057ee:	d1ef      	bne.n	4057d0 <_dtoa_r+0x7b0>
  4057f0:	463b      	mov	r3, r7
  4057f2:	e9dd 0112 	ldrd	r0, r1, [sp, #72]	; 0x48
  4057f6:	4632      	mov	r2, r6
  4057f8:	f002 f8ca 	bl	407990 <__aeabi_ddiv>
  4057fc:	4607      	mov	r7, r0
  4057fe:	4688      	mov	r8, r1
  405800:	9b0e      	ldr	r3, [sp, #56]	; 0x38
  405802:	b143      	cbz	r3, 405816 <_dtoa_r+0x7f6>
  405804:	2200      	movs	r2, #0
  405806:	4ba0      	ldr	r3, [pc, #640]	; (405a88 <_dtoa_r+0xa68>)
  405808:	4638      	mov	r0, r7
  40580a:	4641      	mov	r1, r8
  40580c:	f002 fa08 	bl	407c20 <__aeabi_dcmplt>
  405810:	2800      	cmp	r0, #0
  405812:	f040 8287 	bne.w	405d24 <_dtoa_r+0xd04>
  405816:	4650      	mov	r0, sl
  405818:	f001 ff2a 	bl	407670 <__aeabi_i2d>
  40581c:	463a      	mov	r2, r7
  40581e:	4643      	mov	r3, r8
  405820:	f001 ff8c 	bl	40773c <__aeabi_dmul>
  405824:	4b99      	ldr	r3, [pc, #612]	; (405a8c <_dtoa_r+0xa6c>)
  405826:	2200      	movs	r2, #0
  405828:	f001 fdd6 	bl	4073d8 <__adddf3>
  40582c:	9b07      	ldr	r3, [sp, #28]
  40582e:	4605      	mov	r5, r0
  405830:	f1a1 7650 	sub.w	r6, r1, #54525952	; 0x3400000
  405834:	2b00      	cmp	r3, #0
  405836:	f000 813f 	beq.w	405ab8 <_dtoa_r+0xa98>
  40583a:	9b02      	ldr	r3, [sp, #8]
  40583c:	9315      	str	r3, [sp, #84]	; 0x54
  40583e:	9b07      	ldr	r3, [sp, #28]
  405840:	9312      	str	r3, [sp, #72]	; 0x48
  405842:	9b0b      	ldr	r3, [sp, #44]	; 0x2c
  405844:	2b00      	cmp	r3, #0
  405846:	f000 81fb 	beq.w	405c40 <_dtoa_r+0xc20>
  40584a:	9a12      	ldr	r2, [sp, #72]	; 0x48
  40584c:	4b8c      	ldr	r3, [pc, #560]	; (405a80 <_dtoa_r+0xa60>)
  40584e:	2000      	movs	r0, #0
  405850:	eb03 03c2 	add.w	r3, r3, r2, lsl #3
  405854:	e953 2302 	ldrd	r2, r3, [r3, #-8]
  405858:	498d      	ldr	r1, [pc, #564]	; (405a90 <_dtoa_r+0xa70>)
  40585a:	f002 f899 	bl	407990 <__aeabi_ddiv>
  40585e:	462a      	mov	r2, r5
  405860:	4633      	mov	r3, r6
  405862:	f001 fdb7 	bl	4073d4 <__aeabi_dsub>
  405866:	4682      	mov	sl, r0
  405868:	468b      	mov	fp, r1
  40586a:	4638      	mov	r0, r7
  40586c:	4641      	mov	r1, r8
  40586e:	f002 fa15 	bl	407c9c <__aeabi_d2iz>
  405872:	4605      	mov	r5, r0
  405874:	f001 fefc 	bl	407670 <__aeabi_i2d>
  405878:	4602      	mov	r2, r0
  40587a:	460b      	mov	r3, r1
  40587c:	4638      	mov	r0, r7
  40587e:	4641      	mov	r1, r8
  405880:	f001 fda8 	bl	4073d4 <__aeabi_dsub>
  405884:	3530      	adds	r5, #48	; 0x30
  405886:	fa5f f885 	uxtb.w	r8, r5
  40588a:	9d04      	ldr	r5, [sp, #16]
  40588c:	4606      	mov	r6, r0
  40588e:	460f      	mov	r7, r1
  405890:	f885 8000 	strb.w	r8, [r5]
  405894:	4602      	mov	r2, r0
  405896:	460b      	mov	r3, r1
  405898:	4650      	mov	r0, sl
  40589a:	4659      	mov	r1, fp
  40589c:	3501      	adds	r5, #1
  40589e:	f002 f9dd 	bl	407c5c <__aeabi_dcmpgt>
  4058a2:	2800      	cmp	r0, #0
  4058a4:	d154      	bne.n	405950 <_dtoa_r+0x930>
  4058a6:	4632      	mov	r2, r6
  4058a8:	463b      	mov	r3, r7
  4058aa:	2000      	movs	r0, #0
  4058ac:	4976      	ldr	r1, [pc, #472]	; (405a88 <_dtoa_r+0xa68>)
  4058ae:	f001 fd91 	bl	4073d4 <__aeabi_dsub>
  4058b2:	4602      	mov	r2, r0
  4058b4:	460b      	mov	r3, r1
  4058b6:	4650      	mov	r0, sl
  4058b8:	4659      	mov	r1, fp
  4058ba:	f002 f9cf 	bl	407c5c <__aeabi_dcmpgt>
  4058be:	2800      	cmp	r0, #0
  4058c0:	f040 8270 	bne.w	405da4 <_dtoa_r+0xd84>
  4058c4:	9a12      	ldr	r2, [sp, #72]	; 0x48
  4058c6:	2a01      	cmp	r2, #1
  4058c8:	f000 8112 	beq.w	405af0 <_dtoa_r+0xad0>
  4058cc:	9b12      	ldr	r3, [sp, #72]	; 0x48
  4058ce:	9a04      	ldr	r2, [sp, #16]
  4058d0:	f8cd 9048 	str.w	r9, [sp, #72]	; 0x48
  4058d4:	4413      	add	r3, r2
  4058d6:	4699      	mov	r9, r3
  4058d8:	e00f      	b.n	4058fa <_dtoa_r+0x8da>
  4058da:	4632      	mov	r2, r6
  4058dc:	463b      	mov	r3, r7
  4058de:	2000      	movs	r0, #0
  4058e0:	4969      	ldr	r1, [pc, #420]	; (405a88 <_dtoa_r+0xa68>)
  4058e2:	f001 fd77 	bl	4073d4 <__aeabi_dsub>
  4058e6:	4652      	mov	r2, sl
  4058e8:	465b      	mov	r3, fp
  4058ea:	f002 f999 	bl	407c20 <__aeabi_dcmplt>
  4058ee:	2800      	cmp	r0, #0
  4058f0:	f040 8256 	bne.w	405da0 <_dtoa_r+0xd80>
  4058f4:	454d      	cmp	r5, r9
  4058f6:	f000 80f9 	beq.w	405aec <_dtoa_r+0xacc>
  4058fa:	4650      	mov	r0, sl
  4058fc:	4659      	mov	r1, fp
  4058fe:	2200      	movs	r2, #0
  405900:	4b64      	ldr	r3, [pc, #400]	; (405a94 <_dtoa_r+0xa74>)
  405902:	f001 ff1b 	bl	40773c <__aeabi_dmul>
  405906:	2200      	movs	r2, #0
  405908:	4b62      	ldr	r3, [pc, #392]	; (405a94 <_dtoa_r+0xa74>)
  40590a:	4682      	mov	sl, r0
  40590c:	468b      	mov	fp, r1
  40590e:	4630      	mov	r0, r6
  405910:	4639      	mov	r1, r7
  405912:	f001 ff13 	bl	40773c <__aeabi_dmul>
  405916:	460f      	mov	r7, r1
  405918:	4606      	mov	r6, r0
  40591a:	f002 f9bf 	bl	407c9c <__aeabi_d2iz>
  40591e:	4680      	mov	r8, r0
  405920:	f001 fea6 	bl	407670 <__aeabi_i2d>
  405924:	4602      	mov	r2, r0
  405926:	460b      	mov	r3, r1
  405928:	4630      	mov	r0, r6
  40592a:	4639      	mov	r1, r7
  40592c:	f001 fd52 	bl	4073d4 <__aeabi_dsub>
  405930:	f108 0830 	add.w	r8, r8, #48	; 0x30
  405934:	fa5f f888 	uxtb.w	r8, r8
  405938:	f805 8b01 	strb.w	r8, [r5], #1
  40593c:	4652      	mov	r2, sl
  40593e:	465b      	mov	r3, fp
  405940:	4606      	mov	r6, r0
  405942:	460f      	mov	r7, r1
  405944:	f002 f96c 	bl	407c20 <__aeabi_dcmplt>
  405948:	2800      	cmp	r0, #0
  40594a:	d0c6      	beq.n	4058da <_dtoa_r+0x8ba>
  40594c:	f8dd 9048 	ldr.w	r9, [sp, #72]	; 0x48
  405950:	9b15      	ldr	r3, [sp, #84]	; 0x54
  405952:	9302      	str	r3, [sp, #8]
  405954:	e523      	b.n	40539e <_dtoa_r+0x37e>
  405956:	2300      	movs	r3, #0
  405958:	930b      	str	r3, [sp, #44]	; 0x2c
  40595a:	9b25      	ldr	r3, [sp, #148]	; 0x94
  40595c:	2b00      	cmp	r3, #0
  40595e:	f340 80dd 	ble.w	405b1c <_dtoa_r+0xafc>
  405962:	461f      	mov	r7, r3
  405964:	461e      	mov	r6, r3
  405966:	930f      	str	r3, [sp, #60]	; 0x3c
  405968:	9307      	str	r3, [sp, #28]
  40596a:	e6f6      	b.n	40575a <_dtoa_r+0x73a>
  40596c:	2301      	movs	r3, #1
  40596e:	930b      	str	r3, [sp, #44]	; 0x2c
  405970:	e7f3      	b.n	40595a <_dtoa_r+0x93a>
  405972:	f1ba 0f00 	cmp.w	sl, #0
  405976:	f47f ada7 	bne.w	4054c8 <_dtoa_r+0x4a8>
  40597a:	f3cb 0313 	ubfx	r3, fp, #0, #20
  40597e:	2b00      	cmp	r3, #0
  405980:	f47f adbc 	bne.w	4054fc <_dtoa_r+0x4dc>
  405984:	f02b 4700 	bic.w	r7, fp, #2147483648	; 0x80000000
  405988:	0d3f      	lsrs	r7, r7, #20
  40598a:	053f      	lsls	r7, r7, #20
  40598c:	2f00      	cmp	r7, #0
  40598e:	f000 820d 	beq.w	405dac <_dtoa_r+0xd8c>
  405992:	9b0a      	ldr	r3, [sp, #40]	; 0x28
  405994:	3301      	adds	r3, #1
  405996:	930a      	str	r3, [sp, #40]	; 0x28
  405998:	9b08      	ldr	r3, [sp, #32]
  40599a:	3301      	adds	r3, #1
  40599c:	9308      	str	r3, [sp, #32]
  40599e:	2301      	movs	r3, #1
  4059a0:	930c      	str	r3, [sp, #48]	; 0x30
  4059a2:	e5ad      	b.n	405500 <_dtoa_r+0x4e0>
  4059a4:	9b07      	ldr	r3, [sp, #28]
  4059a6:	2b00      	cmp	r3, #0
  4059a8:	f73f ac48 	bgt.w	40523c <_dtoa_r+0x21c>
  4059ac:	f040 8222 	bne.w	405df4 <_dtoa_r+0xdd4>
  4059b0:	e9dd 0108 	ldrd	r0, r1, [sp, #32]
  4059b4:	2200      	movs	r2, #0
  4059b6:	4b38      	ldr	r3, [pc, #224]	; (405a98 <_dtoa_r+0xa78>)
  4059b8:	f001 fec0 	bl	40773c <__aeabi_dmul>
  4059bc:	4652      	mov	r2, sl
  4059be:	465b      	mov	r3, fp
  4059c0:	f002 f942 	bl	407c48 <__aeabi_dcmpge>
  4059c4:	f8dd 801c 	ldr.w	r8, [sp, #28]
  4059c8:	4646      	mov	r6, r8
  4059ca:	2800      	cmp	r0, #0
  4059cc:	d041      	beq.n	405a52 <_dtoa_r+0xa32>
  4059ce:	9b25      	ldr	r3, [sp, #148]	; 0x94
  4059d0:	9d04      	ldr	r5, [sp, #16]
  4059d2:	43db      	mvns	r3, r3
  4059d4:	9302      	str	r3, [sp, #8]
  4059d6:	4641      	mov	r1, r8
  4059d8:	4620      	mov	r0, r4
  4059da:	f000 ff3d 	bl	406858 <_Bfree>
  4059de:	2e00      	cmp	r6, #0
  4059e0:	f43f acdd 	beq.w	40539e <_dtoa_r+0x37e>
  4059e4:	e6a7      	b.n	405736 <_dtoa_r+0x716>
  4059e6:	9a0c      	ldr	r2, [sp, #48]	; 0x30
  4059e8:	4649      	mov	r1, r9
  4059ea:	4620      	mov	r0, r4
  4059ec:	f001 f86c 	bl	406ac8 <__pow5mult>
  4059f0:	4681      	mov	r9, r0
  4059f2:	e557      	b.n	4054a4 <_dtoa_r+0x484>
  4059f4:	9a14      	ldr	r2, [sp, #80]	; 0x50
  4059f6:	2a00      	cmp	r2, #0
  4059f8:	f000 8188 	beq.w	405d0c <_dtoa_r+0xcec>
  4059fc:	f203 4333 	addw	r3, r3, #1075	; 0x433
  405a00:	9f0c      	ldr	r7, [sp, #48]	; 0x30
  405a02:	9d0a      	ldr	r5, [sp, #40]	; 0x28
  405a04:	e4f2      	b.n	4053ec <_dtoa_r+0x3cc>
  405a06:	f1ba 0f00 	cmp.w	sl, #0
  405a0a:	f47f ad77 	bne.w	4054fc <_dtoa_r+0x4dc>
  405a0e:	e7b4      	b.n	40597a <_dtoa_r+0x95a>
  405a10:	f000 ff2c 	bl	40686c <__multadd>
  405a14:	4647      	mov	r7, r8
  405a16:	4606      	mov	r6, r0
  405a18:	4683      	mov	fp, r0
  405a1a:	e5c0      	b.n	40559e <_dtoa_r+0x57e>
  405a1c:	4601      	mov	r1, r0
  405a1e:	4620      	mov	r0, r4
  405a20:	9308      	str	r3, [sp, #32]
  405a22:	f000 ff19 	bl	406858 <_Bfree>
  405a26:	2201      	movs	r2, #1
  405a28:	9b08      	ldr	r3, [sp, #32]
  405a2a:	e5e2      	b.n	4055f2 <_dtoa_r+0x5d2>
  405a2c:	9b24      	ldr	r3, [sp, #144]	; 0x90
  405a2e:	2b02      	cmp	r3, #2
  405a30:	f77f ad98 	ble.w	405564 <_dtoa_r+0x544>
  405a34:	9b07      	ldr	r3, [sp, #28]
  405a36:	2b00      	cmp	r3, #0
  405a38:	d1c9      	bne.n	4059ce <_dtoa_r+0x9ae>
  405a3a:	4641      	mov	r1, r8
  405a3c:	2205      	movs	r2, #5
  405a3e:	4620      	mov	r0, r4
  405a40:	f000 ff14 	bl	40686c <__multadd>
  405a44:	4601      	mov	r1, r0
  405a46:	4680      	mov	r8, r0
  405a48:	4648      	mov	r0, r9
  405a4a:	f001 f8dd 	bl	406c08 <__mcmp>
  405a4e:	2800      	cmp	r0, #0
  405a50:	ddbd      	ble.n	4059ce <_dtoa_r+0x9ae>
  405a52:	2331      	movs	r3, #49	; 0x31
  405a54:	9a02      	ldr	r2, [sp, #8]
  405a56:	9904      	ldr	r1, [sp, #16]
  405a58:	3201      	adds	r2, #1
  405a5a:	9202      	str	r2, [sp, #8]
  405a5c:	700b      	strb	r3, [r1, #0]
  405a5e:	1c4d      	adds	r5, r1, #1
  405a60:	e7b9      	b.n	4059d6 <_dtoa_r+0x9b6>
  405a62:	2331      	movs	r3, #49	; 0x31
  405a64:	9a02      	ldr	r2, [sp, #8]
  405a66:	3201      	adds	r2, #1
  405a68:	9202      	str	r2, [sp, #8]
  405a6a:	9a04      	ldr	r2, [sp, #16]
  405a6c:	7013      	strb	r3, [r2, #0]
  405a6e:	e652      	b.n	405716 <_dtoa_r+0x6f6>
  405a70:	2301      	movs	r3, #1
  405a72:	930b      	str	r3, [sp, #44]	; 0x2c
  405a74:	e666      	b.n	405744 <_dtoa_r+0x724>
  405a76:	f8dd 9028 	ldr.w	r9, [sp, #40]	; 0x28
  405a7a:	9c0b      	ldr	r4, [sp, #44]	; 0x2c
  405a7c:	e48f      	b.n	40539e <_dtoa_r+0x37e>
  405a7e:	bf00      	nop
  405a80:	00408200 	.word	0x00408200
  405a84:	004081d8 	.word	0x004081d8
  405a88:	3ff00000 	.word	0x3ff00000
  405a8c:	401c0000 	.word	0x401c0000
  405a90:	3fe00000 	.word	0x3fe00000
  405a94:	40240000 	.word	0x40240000
  405a98:	40140000 	.word	0x40140000
  405a9c:	4650      	mov	r0, sl
  405a9e:	f001 fde7 	bl	407670 <__aeabi_i2d>
  405aa2:	463a      	mov	r2, r7
  405aa4:	4643      	mov	r3, r8
  405aa6:	f001 fe49 	bl	40773c <__aeabi_dmul>
  405aaa:	2200      	movs	r2, #0
  405aac:	4bc1      	ldr	r3, [pc, #772]	; (405db4 <_dtoa_r+0xd94>)
  405aae:	f001 fc93 	bl	4073d8 <__adddf3>
  405ab2:	4605      	mov	r5, r0
  405ab4:	f1a1 7650 	sub.w	r6, r1, #54525952	; 0x3400000
  405ab8:	4641      	mov	r1, r8
  405aba:	2200      	movs	r2, #0
  405abc:	4bbe      	ldr	r3, [pc, #760]	; (405db8 <_dtoa_r+0xd98>)
  405abe:	4638      	mov	r0, r7
  405ac0:	f001 fc88 	bl	4073d4 <__aeabi_dsub>
  405ac4:	462a      	mov	r2, r5
  405ac6:	4633      	mov	r3, r6
  405ac8:	4682      	mov	sl, r0
  405aca:	468b      	mov	fp, r1
  405acc:	f002 f8c6 	bl	407c5c <__aeabi_dcmpgt>
  405ad0:	4680      	mov	r8, r0
  405ad2:	2800      	cmp	r0, #0
  405ad4:	f040 8110 	bne.w	405cf8 <_dtoa_r+0xcd8>
  405ad8:	462a      	mov	r2, r5
  405ada:	f106 4300 	add.w	r3, r6, #2147483648	; 0x80000000
  405ade:	4650      	mov	r0, sl
  405ae0:	4659      	mov	r1, fp
  405ae2:	f002 f89d 	bl	407c20 <__aeabi_dcmplt>
  405ae6:	b118      	cbz	r0, 405af0 <_dtoa_r+0xad0>
  405ae8:	4646      	mov	r6, r8
  405aea:	e770      	b.n	4059ce <_dtoa_r+0x9ae>
  405aec:	f8dd 9048 	ldr.w	r9, [sp, #72]	; 0x48
  405af0:	e9dd ab10 	ldrd	sl, fp, [sp, #64]	; 0x40
  405af4:	f7ff bb8f 	b.w	405216 <_dtoa_r+0x1f6>
  405af8:	9804      	ldr	r0, [sp, #16]
  405afa:	f7ff bac0 	b.w	40507e <_dtoa_r+0x5e>
  405afe:	9b0c      	ldr	r3, [sp, #48]	; 0x30
  405b00:	9a0d      	ldr	r2, [sp, #52]	; 0x34
  405b02:	1afb      	subs	r3, r7, r3
  405b04:	441a      	add	r2, r3
  405b06:	970c      	str	r7, [sp, #48]	; 0x30
  405b08:	920d      	str	r2, [sp, #52]	; 0x34
  405b0a:	2700      	movs	r7, #0
  405b0c:	e468      	b.n	4053e0 <_dtoa_r+0x3c0>
  405b0e:	e9dd 2310 	ldrd	r2, r3, [sp, #64]	; 0x40
  405b12:	f04f 0a02 	mov.w	sl, #2
  405b16:	e9cd 2312 	strd	r2, r3, [sp, #72]	; 0x48
  405b1a:	e656      	b.n	4057ca <_dtoa_r+0x7aa>
  405b1c:	2100      	movs	r1, #0
  405b1e:	2301      	movs	r3, #1
  405b20:	4620      	mov	r0, r4
  405b22:	6461      	str	r1, [r4, #68]	; 0x44
  405b24:	9325      	str	r3, [sp, #148]	; 0x94
  405b26:	f000 fe71 	bl	40680c <_Balloc>
  405b2a:	9b25      	ldr	r3, [sp, #148]	; 0x94
  405b2c:	9004      	str	r0, [sp, #16]
  405b2e:	9307      	str	r3, [sp, #28]
  405b30:	9b25      	ldr	r3, [sp, #148]	; 0x94
  405b32:	6420      	str	r0, [r4, #64]	; 0x40
  405b34:	930f      	str	r3, [sp, #60]	; 0x3c
  405b36:	e627      	b.n	405788 <_dtoa_r+0x768>
  405b38:	2a00      	cmp	r2, #0
  405b3a:	46d0      	mov	r8, sl
  405b3c:	f8cd b020 	str.w	fp, [sp, #32]
  405b40:	469a      	mov	sl, r3
  405b42:	dd11      	ble.n	405b68 <_dtoa_r+0xb48>
  405b44:	4649      	mov	r1, r9
  405b46:	2201      	movs	r2, #1
  405b48:	4620      	mov	r0, r4
  405b4a:	f001 f80d 	bl	406b68 <__lshift>
  405b4e:	4641      	mov	r1, r8
  405b50:	4681      	mov	r9, r0
  405b52:	f001 f859 	bl	406c08 <__mcmp>
  405b56:	2800      	cmp	r0, #0
  405b58:	f340 8145 	ble.w	405de6 <_dtoa_r+0xdc6>
  405b5c:	f1ba 0f39 	cmp.w	sl, #57	; 0x39
  405b60:	f000 8105 	beq.w	405d6e <_dtoa_r+0xd4e>
  405b64:	f105 0a31 	add.w	sl, r5, #49	; 0x31
  405b68:	46b3      	mov	fp, r6
  405b6a:	f887 a000 	strb.w	sl, [r7]
  405b6e:	1c7d      	adds	r5, r7, #1
  405b70:	9e08      	ldr	r6, [sp, #32]
  405b72:	e5d0      	b.n	405716 <_dtoa_r+0x6f6>
  405b74:	d104      	bne.n	405b80 <_dtoa_r+0xb60>
  405b76:	f01a 0f01 	tst.w	sl, #1
  405b7a:	d001      	beq.n	405b80 <_dtoa_r+0xb60>
  405b7c:	e5bb      	b.n	4056f6 <_dtoa_r+0x6d6>
  405b7e:	4615      	mov	r5, r2
  405b80:	f815 3c01 	ldrb.w	r3, [r5, #-1]
  405b84:	1e6a      	subs	r2, r5, #1
  405b86:	2b30      	cmp	r3, #48	; 0x30
  405b88:	d0f9      	beq.n	405b7e <_dtoa_r+0xb5e>
  405b8a:	e5c4      	b.n	405716 <_dtoa_r+0x6f6>
  405b8c:	2230      	movs	r2, #48	; 0x30
  405b8e:	9904      	ldr	r1, [sp, #16]
  405b90:	700a      	strb	r2, [r1, #0]
  405b92:	9a02      	ldr	r2, [sp, #8]
  405b94:	f815 8c01 	ldrb.w	r8, [r5, #-1]
  405b98:	3201      	adds	r2, #1
  405b9a:	9202      	str	r2, [sp, #8]
  405b9c:	f7ff bbfb 	b.w	405396 <_dtoa_r+0x376>
  405ba0:	f000 80bb 	beq.w	405d1a <_dtoa_r+0xcfa>
  405ba4:	e9dd 0110 	ldrd	r0, r1, [sp, #64]	; 0x40
  405ba8:	9b02      	ldr	r3, [sp, #8]
  405baa:	f04f 0a02 	mov.w	sl, #2
  405bae:	425d      	negs	r5, r3
  405bb0:	4b82      	ldr	r3, [pc, #520]	; (405dbc <_dtoa_r+0xd9c>)
  405bb2:	f005 020f 	and.w	r2, r5, #15
  405bb6:	eb03 03c2 	add.w	r3, r3, r2, lsl #3
  405bba:	e9d3 2300 	ldrd	r2, r3, [r3]
  405bbe:	f001 fdbd 	bl	40773c <__aeabi_dmul>
  405bc2:	112d      	asrs	r5, r5, #4
  405bc4:	4607      	mov	r7, r0
  405bc6:	4688      	mov	r8, r1
  405bc8:	f43f ae1a 	beq.w	405800 <_dtoa_r+0x7e0>
  405bcc:	4e7c      	ldr	r6, [pc, #496]	; (405dc0 <_dtoa_r+0xda0>)
  405bce:	07eb      	lsls	r3, r5, #31
  405bd0:	d509      	bpl.n	405be6 <_dtoa_r+0xbc6>
  405bd2:	e9d6 2300 	ldrd	r2, r3, [r6]
  405bd6:	4638      	mov	r0, r7
  405bd8:	4641      	mov	r1, r8
  405bda:	f001 fdaf 	bl	40773c <__aeabi_dmul>
  405bde:	4607      	mov	r7, r0
  405be0:	4688      	mov	r8, r1
  405be2:	f10a 0a01 	add.w	sl, sl, #1
  405be6:	106d      	asrs	r5, r5, #1
  405be8:	f106 0608 	add.w	r6, r6, #8
  405bec:	d1ef      	bne.n	405bce <_dtoa_r+0xbae>
  405bee:	e607      	b.n	405800 <_dtoa_r+0x7e0>
  405bf0:	6871      	ldr	r1, [r6, #4]
  405bf2:	4620      	mov	r0, r4
  405bf4:	f000 fe0a 	bl	40680c <_Balloc>
  405bf8:	4605      	mov	r5, r0
  405bfa:	6933      	ldr	r3, [r6, #16]
  405bfc:	f106 010c 	add.w	r1, r6, #12
  405c00:	3302      	adds	r3, #2
  405c02:	009a      	lsls	r2, r3, #2
  405c04:	300c      	adds	r0, #12
  405c06:	f7fd fd25 	bl	403654 <memcpy>
  405c0a:	4629      	mov	r1, r5
  405c0c:	2201      	movs	r2, #1
  405c0e:	4620      	mov	r0, r4
  405c10:	f000 ffaa 	bl	406b68 <__lshift>
  405c14:	9008      	str	r0, [sp, #32]
  405c16:	e4b6      	b.n	405586 <_dtoa_r+0x566>
  405c18:	2b39      	cmp	r3, #57	; 0x39
  405c1a:	f8cd b020 	str.w	fp, [sp, #32]
  405c1e:	46d0      	mov	r8, sl
  405c20:	f000 80a5 	beq.w	405d6e <_dtoa_r+0xd4e>
  405c24:	f103 0a01 	add.w	sl, r3, #1
  405c28:	46b3      	mov	fp, r6
  405c2a:	f887 a000 	strb.w	sl, [r7]
  405c2e:	1c7d      	adds	r5, r7, #1
  405c30:	9e08      	ldr	r6, [sp, #32]
  405c32:	e570      	b.n	405716 <_dtoa_r+0x6f6>
  405c34:	465a      	mov	r2, fp
  405c36:	46d0      	mov	r8, sl
  405c38:	46b3      	mov	fp, r6
  405c3a:	469a      	mov	sl, r3
  405c3c:	4616      	mov	r6, r2
  405c3e:	e54e      	b.n	4056de <_dtoa_r+0x6be>
  405c40:	9812      	ldr	r0, [sp, #72]	; 0x48
  405c42:	495e      	ldr	r1, [pc, #376]	; (405dbc <_dtoa_r+0xd9c>)
  405c44:	462a      	mov	r2, r5
  405c46:	eb01 01c0 	add.w	r1, r1, r0, lsl #3
  405c4a:	4633      	mov	r3, r6
  405c4c:	e951 0102 	ldrd	r0, r1, [r1, #-8]
  405c50:	f001 fd74 	bl	40773c <__aeabi_dmul>
  405c54:	e9cd 0116 	strd	r0, r1, [sp, #88]	; 0x58
  405c58:	4638      	mov	r0, r7
  405c5a:	4641      	mov	r1, r8
  405c5c:	f002 f81e 	bl	407c9c <__aeabi_d2iz>
  405c60:	4605      	mov	r5, r0
  405c62:	f001 fd05 	bl	407670 <__aeabi_i2d>
  405c66:	4602      	mov	r2, r0
  405c68:	460b      	mov	r3, r1
  405c6a:	4638      	mov	r0, r7
  405c6c:	4641      	mov	r1, r8
  405c6e:	f001 fbb1 	bl	4073d4 <__aeabi_dsub>
  405c72:	4606      	mov	r6, r0
  405c74:	9812      	ldr	r0, [sp, #72]	; 0x48
  405c76:	9a04      	ldr	r2, [sp, #16]
  405c78:	3530      	adds	r5, #48	; 0x30
  405c7a:	2801      	cmp	r0, #1
  405c7c:	7015      	strb	r5, [r2, #0]
  405c7e:	460f      	mov	r7, r1
  405c80:	f102 0501 	add.w	r5, r2, #1
  405c84:	d026      	beq.n	405cd4 <_dtoa_r+0xcb4>
  405c86:	9b12      	ldr	r3, [sp, #72]	; 0x48
  405c88:	9a04      	ldr	r2, [sp, #16]
  405c8a:	f8cd 9048 	str.w	r9, [sp, #72]	; 0x48
  405c8e:	4413      	add	r3, r2
  405c90:	f04f 0a00 	mov.w	sl, #0
  405c94:	4699      	mov	r9, r3
  405c96:	f8df b130 	ldr.w	fp, [pc, #304]	; 405dc8 <_dtoa_r+0xda8>
  405c9a:	4652      	mov	r2, sl
  405c9c:	465b      	mov	r3, fp
  405c9e:	4630      	mov	r0, r6
  405ca0:	4639      	mov	r1, r7
  405ca2:	f001 fd4b 	bl	40773c <__aeabi_dmul>
  405ca6:	460f      	mov	r7, r1
  405ca8:	4606      	mov	r6, r0
  405caa:	f001 fff7 	bl	407c9c <__aeabi_d2iz>
  405cae:	4680      	mov	r8, r0
  405cb0:	f001 fcde 	bl	407670 <__aeabi_i2d>
  405cb4:	4602      	mov	r2, r0
  405cb6:	460b      	mov	r3, r1
  405cb8:	4630      	mov	r0, r6
  405cba:	4639      	mov	r1, r7
  405cbc:	f001 fb8a 	bl	4073d4 <__aeabi_dsub>
  405cc0:	f108 0830 	add.w	r8, r8, #48	; 0x30
  405cc4:	f805 8b01 	strb.w	r8, [r5], #1
  405cc8:	454d      	cmp	r5, r9
  405cca:	4606      	mov	r6, r0
  405ccc:	460f      	mov	r7, r1
  405cce:	d1e4      	bne.n	405c9a <_dtoa_r+0xc7a>
  405cd0:	f8dd 9048 	ldr.w	r9, [sp, #72]	; 0x48
  405cd4:	2200      	movs	r2, #0
  405cd6:	e9dd 0116 	ldrd	r0, r1, [sp, #88]	; 0x58
  405cda:	4b3a      	ldr	r3, [pc, #232]	; (405dc4 <_dtoa_r+0xda4>)
  405cdc:	f001 fb7c 	bl	4073d8 <__adddf3>
  405ce0:	4632      	mov	r2, r6
  405ce2:	463b      	mov	r3, r7
  405ce4:	f001 ff9c 	bl	407c20 <__aeabi_dcmplt>
  405ce8:	2800      	cmp	r0, #0
  405cea:	d046      	beq.n	405d7a <_dtoa_r+0xd5a>
  405cec:	9b15      	ldr	r3, [sp, #84]	; 0x54
  405cee:	9302      	str	r3, [sp, #8]
  405cf0:	f815 8c01 	ldrb.w	r8, [r5, #-1]
  405cf4:	f7ff bb42 	b.w	40537c <_dtoa_r+0x35c>
  405cf8:	f04f 0800 	mov.w	r8, #0
  405cfc:	4646      	mov	r6, r8
  405cfe:	e6a8      	b.n	405a52 <_dtoa_r+0xa32>
  405d00:	9b0a      	ldr	r3, [sp, #40]	; 0x28
  405d02:	9a07      	ldr	r2, [sp, #28]
  405d04:	1a9d      	subs	r5, r3, r2
  405d06:	2300      	movs	r3, #0
  405d08:	f7ff bb70 	b.w	4053ec <_dtoa_r+0x3cc>
  405d0c:	9b18      	ldr	r3, [sp, #96]	; 0x60
  405d0e:	9f0c      	ldr	r7, [sp, #48]	; 0x30
  405d10:	f1c3 0336 	rsb	r3, r3, #54	; 0x36
  405d14:	9d0a      	ldr	r5, [sp, #40]	; 0x28
  405d16:	f7ff bb69 	b.w	4053ec <_dtoa_r+0x3cc>
  405d1a:	e9dd 7810 	ldrd	r7, r8, [sp, #64]	; 0x40
  405d1e:	f04f 0a02 	mov.w	sl, #2
  405d22:	e56d      	b.n	405800 <_dtoa_r+0x7e0>
  405d24:	9b07      	ldr	r3, [sp, #28]
  405d26:	2b00      	cmp	r3, #0
  405d28:	f43f aeb8 	beq.w	405a9c <_dtoa_r+0xa7c>
  405d2c:	9b0f      	ldr	r3, [sp, #60]	; 0x3c
  405d2e:	2b00      	cmp	r3, #0
  405d30:	f77f aede 	ble.w	405af0 <_dtoa_r+0xad0>
  405d34:	2200      	movs	r2, #0
  405d36:	4b24      	ldr	r3, [pc, #144]	; (405dc8 <_dtoa_r+0xda8>)
  405d38:	4638      	mov	r0, r7
  405d3a:	4641      	mov	r1, r8
  405d3c:	f001 fcfe 	bl	40773c <__aeabi_dmul>
  405d40:	4607      	mov	r7, r0
  405d42:	4688      	mov	r8, r1
  405d44:	f10a 0001 	add.w	r0, sl, #1
  405d48:	f001 fc92 	bl	407670 <__aeabi_i2d>
  405d4c:	463a      	mov	r2, r7
  405d4e:	4643      	mov	r3, r8
  405d50:	f001 fcf4 	bl	40773c <__aeabi_dmul>
  405d54:	2200      	movs	r2, #0
  405d56:	4b17      	ldr	r3, [pc, #92]	; (405db4 <_dtoa_r+0xd94>)
  405d58:	f001 fb3e 	bl	4073d8 <__adddf3>
  405d5c:	9a02      	ldr	r2, [sp, #8]
  405d5e:	9b0f      	ldr	r3, [sp, #60]	; 0x3c
  405d60:	3a01      	subs	r2, #1
  405d62:	4605      	mov	r5, r0
  405d64:	9215      	str	r2, [sp, #84]	; 0x54
  405d66:	f1a1 7650 	sub.w	r6, r1, #54525952	; 0x3400000
  405d6a:	9312      	str	r3, [sp, #72]	; 0x48
  405d6c:	e569      	b.n	405842 <_dtoa_r+0x822>
  405d6e:	2239      	movs	r2, #57	; 0x39
  405d70:	46b3      	mov	fp, r6
  405d72:	703a      	strb	r2, [r7, #0]
  405d74:	9e08      	ldr	r6, [sp, #32]
  405d76:	1c7d      	adds	r5, r7, #1
  405d78:	e4bf      	b.n	4056fa <_dtoa_r+0x6da>
  405d7a:	e9dd 2316 	ldrd	r2, r3, [sp, #88]	; 0x58
  405d7e:	2000      	movs	r0, #0
  405d80:	4910      	ldr	r1, [pc, #64]	; (405dc4 <_dtoa_r+0xda4>)
  405d82:	f001 fb27 	bl	4073d4 <__aeabi_dsub>
  405d86:	4632      	mov	r2, r6
  405d88:	463b      	mov	r3, r7
  405d8a:	f001 ff67 	bl	407c5c <__aeabi_dcmpgt>
  405d8e:	b908      	cbnz	r0, 405d94 <_dtoa_r+0xd74>
  405d90:	e6ae      	b.n	405af0 <_dtoa_r+0xad0>
  405d92:	4615      	mov	r5, r2
  405d94:	f815 3c01 	ldrb.w	r3, [r5, #-1]
  405d98:	1e6a      	subs	r2, r5, #1
  405d9a:	2b30      	cmp	r3, #48	; 0x30
  405d9c:	d0f9      	beq.n	405d92 <_dtoa_r+0xd72>
  405d9e:	e5d7      	b.n	405950 <_dtoa_r+0x930>
  405da0:	f8dd 9048 	ldr.w	r9, [sp, #72]	; 0x48
  405da4:	9b15      	ldr	r3, [sp, #84]	; 0x54
  405da6:	9302      	str	r3, [sp, #8]
  405da8:	f7ff bae8 	b.w	40537c <_dtoa_r+0x35c>
  405dac:	970c      	str	r7, [sp, #48]	; 0x30
  405dae:	f7ff bba7 	b.w	405500 <_dtoa_r+0x4e0>
  405db2:	bf00      	nop
  405db4:	401c0000 	.word	0x401c0000
  405db8:	40140000 	.word	0x40140000
  405dbc:	00408200 	.word	0x00408200
  405dc0:	004081d8 	.word	0x004081d8
  405dc4:	3fe00000 	.word	0x3fe00000
  405dc8:	40240000 	.word	0x40240000
  405dcc:	2b39      	cmp	r3, #57	; 0x39
  405dce:	f8cd b020 	str.w	fp, [sp, #32]
  405dd2:	46d0      	mov	r8, sl
  405dd4:	f8dd b01c 	ldr.w	fp, [sp, #28]
  405dd8:	469a      	mov	sl, r3
  405dda:	d0c8      	beq.n	405d6e <_dtoa_r+0xd4e>
  405ddc:	f1bb 0f00 	cmp.w	fp, #0
  405de0:	f73f aec0 	bgt.w	405b64 <_dtoa_r+0xb44>
  405de4:	e6c0      	b.n	405b68 <_dtoa_r+0xb48>
  405de6:	f47f aebf 	bne.w	405b68 <_dtoa_r+0xb48>
  405dea:	f01a 0f01 	tst.w	sl, #1
  405dee:	f43f aebb 	beq.w	405b68 <_dtoa_r+0xb48>
  405df2:	e6b3      	b.n	405b5c <_dtoa_r+0xb3c>
  405df4:	f04f 0800 	mov.w	r8, #0
  405df8:	4646      	mov	r6, r8
  405dfa:	e5e8      	b.n	4059ce <_dtoa_r+0x9ae>
  405dfc:	4631      	mov	r1, r6
  405dfe:	2300      	movs	r3, #0
  405e00:	220a      	movs	r2, #10
  405e02:	4620      	mov	r0, r4
  405e04:	f000 fd32 	bl	40686c <__multadd>
  405e08:	9b0f      	ldr	r3, [sp, #60]	; 0x3c
  405e0a:	4606      	mov	r6, r0
  405e0c:	2b00      	cmp	r3, #0
  405e0e:	dd07      	ble.n	405e20 <_dtoa_r+0xe00>
  405e10:	9307      	str	r3, [sp, #28]
  405e12:	f7ff bbab 	b.w	40556c <_dtoa_r+0x54c>
  405e16:	9b24      	ldr	r3, [sp, #144]	; 0x90
  405e18:	2b02      	cmp	r3, #2
  405e1a:	dc1f      	bgt.n	405e5c <_dtoa_r+0xe3c>
  405e1c:	9b0f      	ldr	r3, [sp, #60]	; 0x3c
  405e1e:	e43c      	b.n	40569a <_dtoa_r+0x67a>
  405e20:	9b24      	ldr	r3, [sp, #144]	; 0x90
  405e22:	2b02      	cmp	r3, #2
  405e24:	dc1a      	bgt.n	405e5c <_dtoa_r+0xe3c>
  405e26:	9b0f      	ldr	r3, [sp, #60]	; 0x3c
  405e28:	e7f2      	b.n	405e10 <_dtoa_r+0xdf0>
  405e2a:	f43f ab81 	beq.w	405530 <_dtoa_r+0x510>
  405e2e:	f1c0 003c 	rsb	r0, r0, #60	; 0x3c
  405e32:	e411      	b.n	405658 <_dtoa_r+0x638>
  405e34:	2500      	movs	r5, #0
  405e36:	4620      	mov	r0, r4
  405e38:	6465      	str	r5, [r4, #68]	; 0x44
  405e3a:	4629      	mov	r1, r5
  405e3c:	f000 fce6 	bl	40680c <_Balloc>
  405e40:	f04f 33ff 	mov.w	r3, #4294967295
  405e44:	9307      	str	r3, [sp, #28]
  405e46:	930f      	str	r3, [sp, #60]	; 0x3c
  405e48:	2301      	movs	r3, #1
  405e4a:	9004      	str	r0, [sp, #16]
  405e4c:	9525      	str	r5, [sp, #148]	; 0x94
  405e4e:	6420      	str	r0, [r4, #64]	; 0x40
  405e50:	930b      	str	r3, [sp, #44]	; 0x2c
  405e52:	f7ff b9e0 	b.w	405216 <_dtoa_r+0x1f6>
  405e56:	2501      	movs	r5, #1
  405e58:	f7ff b9a8 	b.w	4051ac <_dtoa_r+0x18c>
  405e5c:	9b0f      	ldr	r3, [sp, #60]	; 0x3c
  405e5e:	9307      	str	r3, [sp, #28]
  405e60:	e5e8      	b.n	405a34 <_dtoa_r+0xa14>
  405e62:	bf00      	nop

00405e64 <__libc_fini_array>:
  405e64:	b538      	push	{r3, r4, r5, lr}
  405e66:	4c0a      	ldr	r4, [pc, #40]	; (405e90 <__libc_fini_array+0x2c>)
  405e68:	4d0a      	ldr	r5, [pc, #40]	; (405e94 <__libc_fini_array+0x30>)
  405e6a:	1b64      	subs	r4, r4, r5
  405e6c:	10a4      	asrs	r4, r4, #2
  405e6e:	d00a      	beq.n	405e86 <__libc_fini_array+0x22>
  405e70:	f104 4380 	add.w	r3, r4, #1073741824	; 0x40000000
  405e74:	3b01      	subs	r3, #1
  405e76:	eb05 0583 	add.w	r5, r5, r3, lsl #2
  405e7a:	3c01      	subs	r4, #1
  405e7c:	f855 3904 	ldr.w	r3, [r5], #-4
  405e80:	4798      	blx	r3
  405e82:	2c00      	cmp	r4, #0
  405e84:	d1f9      	bne.n	405e7a <__libc_fini_array+0x16>
  405e86:	e8bd 4038 	ldmia.w	sp!, {r3, r4, r5, lr}
  405e8a:	f002 baaf 	b.w	4083ec <_fini>
  405e8e:	bf00      	nop
  405e90:	004083fc 	.word	0x004083fc
  405e94:	004083f8 	.word	0x004083f8

00405e98 <_malloc_trim_r>:
  405e98:	b5f8      	push	{r3, r4, r5, r6, r7, lr}
  405e9a:	460c      	mov	r4, r1
  405e9c:	4f23      	ldr	r7, [pc, #140]	; (405f2c <_malloc_trim_r+0x94>)
  405e9e:	4606      	mov	r6, r0
  405ea0:	f000 fca8 	bl	4067f4 <__malloc_lock>
  405ea4:	68bb      	ldr	r3, [r7, #8]
  405ea6:	f5c4 617e 	rsb	r1, r4, #4064	; 0xfe0
  405eaa:	685d      	ldr	r5, [r3, #4]
  405eac:	310f      	adds	r1, #15
  405eae:	f025 0503 	bic.w	r5, r5, #3
  405eb2:	4429      	add	r1, r5
  405eb4:	f421 617f 	bic.w	r1, r1, #4080	; 0xff0
  405eb8:	f021 010f 	bic.w	r1, r1, #15
  405ebc:	f5a1 5480 	sub.w	r4, r1, #4096	; 0x1000
  405ec0:	f5b4 5f80 	cmp.w	r4, #4096	; 0x1000
  405ec4:	db07      	blt.n	405ed6 <_malloc_trim_r+0x3e>
  405ec6:	2100      	movs	r1, #0
  405ec8:	4630      	mov	r0, r6
  405eca:	f001 f951 	bl	407170 <_sbrk_r>
  405ece:	68bb      	ldr	r3, [r7, #8]
  405ed0:	442b      	add	r3, r5
  405ed2:	4298      	cmp	r0, r3
  405ed4:	d004      	beq.n	405ee0 <_malloc_trim_r+0x48>
  405ed6:	4630      	mov	r0, r6
  405ed8:	f000 fc92 	bl	406800 <__malloc_unlock>
  405edc:	2000      	movs	r0, #0
  405ede:	bdf8      	pop	{r3, r4, r5, r6, r7, pc}
  405ee0:	4261      	negs	r1, r4
  405ee2:	4630      	mov	r0, r6
  405ee4:	f001 f944 	bl	407170 <_sbrk_r>
  405ee8:	3001      	adds	r0, #1
  405eea:	d00d      	beq.n	405f08 <_malloc_trim_r+0x70>
  405eec:	4b10      	ldr	r3, [pc, #64]	; (405f30 <_malloc_trim_r+0x98>)
  405eee:	68ba      	ldr	r2, [r7, #8]
  405ef0:	6819      	ldr	r1, [r3, #0]
  405ef2:	1b2d      	subs	r5, r5, r4
  405ef4:	f045 0501 	orr.w	r5, r5, #1
  405ef8:	4630      	mov	r0, r6
  405efa:	1b09      	subs	r1, r1, r4
  405efc:	6055      	str	r5, [r2, #4]
  405efe:	6019      	str	r1, [r3, #0]
  405f00:	f000 fc7e 	bl	406800 <__malloc_unlock>
  405f04:	2001      	movs	r0, #1
  405f06:	bdf8      	pop	{r3, r4, r5, r6, r7, pc}
  405f08:	2100      	movs	r1, #0
  405f0a:	4630      	mov	r0, r6
  405f0c:	f001 f930 	bl	407170 <_sbrk_r>
  405f10:	68ba      	ldr	r2, [r7, #8]
  405f12:	1a83      	subs	r3, r0, r2
  405f14:	2b0f      	cmp	r3, #15
  405f16:	ddde      	ble.n	405ed6 <_malloc_trim_r+0x3e>
  405f18:	4c06      	ldr	r4, [pc, #24]	; (405f34 <_malloc_trim_r+0x9c>)
  405f1a:	4905      	ldr	r1, [pc, #20]	; (405f30 <_malloc_trim_r+0x98>)
  405f1c:	6824      	ldr	r4, [r4, #0]
  405f1e:	f043 0301 	orr.w	r3, r3, #1
  405f22:	1b00      	subs	r0, r0, r4
  405f24:	6053      	str	r3, [r2, #4]
  405f26:	6008      	str	r0, [r1, #0]
  405f28:	e7d5      	b.n	405ed6 <_malloc_trim_r+0x3e>
  405f2a:	bf00      	nop
  405f2c:	200007a8 	.word	0x200007a8
  405f30:	20000e10 	.word	0x20000e10
  405f34:	20000bb0 	.word	0x20000bb0

00405f38 <_free_r>:
  405f38:	2900      	cmp	r1, #0
  405f3a:	d044      	beq.n	405fc6 <_free_r+0x8e>
  405f3c:	e92d 41f0 	stmdb	sp!, {r4, r5, r6, r7, r8, lr}
  405f40:	460d      	mov	r5, r1
  405f42:	4680      	mov	r8, r0
  405f44:	f000 fc56 	bl	4067f4 <__malloc_lock>
  405f48:	f855 7c04 	ldr.w	r7, [r5, #-4]
  405f4c:	4969      	ldr	r1, [pc, #420]	; (4060f4 <_free_r+0x1bc>)
  405f4e:	f1a5 0408 	sub.w	r4, r5, #8
  405f52:	f027 0301 	bic.w	r3, r7, #1
  405f56:	18e2      	adds	r2, r4, r3
  405f58:	688e      	ldr	r6, [r1, #8]
  405f5a:	6850      	ldr	r0, [r2, #4]
  405f5c:	42b2      	cmp	r2, r6
  405f5e:	f020 0003 	bic.w	r0, r0, #3
  405f62:	d05e      	beq.n	406022 <_free_r+0xea>
  405f64:	07fe      	lsls	r6, r7, #31
  405f66:	6050      	str	r0, [r2, #4]
  405f68:	d40b      	bmi.n	405f82 <_free_r+0x4a>
  405f6a:	f855 7c08 	ldr.w	r7, [r5, #-8]
  405f6e:	f101 0e08 	add.w	lr, r1, #8
  405f72:	1be4      	subs	r4, r4, r7
  405f74:	68a5      	ldr	r5, [r4, #8]
  405f76:	443b      	add	r3, r7
  405f78:	4575      	cmp	r5, lr
  405f7a:	d06d      	beq.n	406058 <_free_r+0x120>
  405f7c:	68e7      	ldr	r7, [r4, #12]
  405f7e:	60ef      	str	r7, [r5, #12]
  405f80:	60bd      	str	r5, [r7, #8]
  405f82:	1815      	adds	r5, r2, r0
  405f84:	686d      	ldr	r5, [r5, #4]
  405f86:	07ed      	lsls	r5, r5, #31
  405f88:	d53e      	bpl.n	406008 <_free_r+0xd0>
  405f8a:	f043 0201 	orr.w	r2, r3, #1
  405f8e:	6062      	str	r2, [r4, #4]
  405f90:	50e3      	str	r3, [r4, r3]
  405f92:	f5b3 7f00 	cmp.w	r3, #512	; 0x200
  405f96:	d217      	bcs.n	405fc8 <_free_r+0x90>
  405f98:	2201      	movs	r2, #1
  405f9a:	08db      	lsrs	r3, r3, #3
  405f9c:	1098      	asrs	r0, r3, #2
  405f9e:	684d      	ldr	r5, [r1, #4]
  405fa0:	4413      	add	r3, r2
  405fa2:	f851 7033 	ldr.w	r7, [r1, r3, lsl #3]
  405fa6:	4082      	lsls	r2, r0
  405fa8:	eb01 00c3 	add.w	r0, r1, r3, lsl #3
  405fac:	432a      	orrs	r2, r5
  405fae:	3808      	subs	r0, #8
  405fb0:	60e0      	str	r0, [r4, #12]
  405fb2:	60a7      	str	r7, [r4, #8]
  405fb4:	604a      	str	r2, [r1, #4]
  405fb6:	f841 4033 	str.w	r4, [r1, r3, lsl #3]
  405fba:	60fc      	str	r4, [r7, #12]
  405fbc:	4640      	mov	r0, r8
  405fbe:	e8bd 41f0 	ldmia.w	sp!, {r4, r5, r6, r7, r8, lr}
  405fc2:	f000 bc1d 	b.w	406800 <__malloc_unlock>
  405fc6:	4770      	bx	lr
  405fc8:	0a5a      	lsrs	r2, r3, #9
  405fca:	2a04      	cmp	r2, #4
  405fcc:	d852      	bhi.n	406074 <_free_r+0x13c>
  405fce:	099a      	lsrs	r2, r3, #6
  405fd0:	f102 0739 	add.w	r7, r2, #57	; 0x39
  405fd4:	00ff      	lsls	r7, r7, #3
  405fd6:	f102 0538 	add.w	r5, r2, #56	; 0x38
  405fda:	19c8      	adds	r0, r1, r7
  405fdc:	59ca      	ldr	r2, [r1, r7]
  405fde:	3808      	subs	r0, #8
  405fe0:	4290      	cmp	r0, r2
  405fe2:	d04f      	beq.n	406084 <_free_r+0x14c>
  405fe4:	6851      	ldr	r1, [r2, #4]
  405fe6:	f021 0103 	bic.w	r1, r1, #3
  405fea:	428b      	cmp	r3, r1
  405fec:	d232      	bcs.n	406054 <_free_r+0x11c>
  405fee:	6892      	ldr	r2, [r2, #8]
  405ff0:	4290      	cmp	r0, r2
  405ff2:	d1f7      	bne.n	405fe4 <_free_r+0xac>
  405ff4:	68c3      	ldr	r3, [r0, #12]
  405ff6:	60a0      	str	r0, [r4, #8]
  405ff8:	60e3      	str	r3, [r4, #12]
  405ffa:	609c      	str	r4, [r3, #8]
  405ffc:	60c4      	str	r4, [r0, #12]
  405ffe:	4640      	mov	r0, r8
  406000:	e8bd 41f0 	ldmia.w	sp!, {r4, r5, r6, r7, r8, lr}
  406004:	f000 bbfc 	b.w	406800 <__malloc_unlock>
  406008:	6895      	ldr	r5, [r2, #8]
  40600a:	4f3b      	ldr	r7, [pc, #236]	; (4060f8 <_free_r+0x1c0>)
  40600c:	4403      	add	r3, r0
  40600e:	42bd      	cmp	r5, r7
  406010:	d040      	beq.n	406094 <_free_r+0x15c>
  406012:	68d0      	ldr	r0, [r2, #12]
  406014:	f043 0201 	orr.w	r2, r3, #1
  406018:	60e8      	str	r0, [r5, #12]
  40601a:	6085      	str	r5, [r0, #8]
  40601c:	6062      	str	r2, [r4, #4]
  40601e:	50e3      	str	r3, [r4, r3]
  406020:	e7b7      	b.n	405f92 <_free_r+0x5a>
  406022:	07ff      	lsls	r7, r7, #31
  406024:	4403      	add	r3, r0
  406026:	d407      	bmi.n	406038 <_free_r+0x100>
  406028:	f855 5c08 	ldr.w	r5, [r5, #-8]
  40602c:	1b64      	subs	r4, r4, r5
  40602e:	68e2      	ldr	r2, [r4, #12]
  406030:	68a0      	ldr	r0, [r4, #8]
  406032:	442b      	add	r3, r5
  406034:	60c2      	str	r2, [r0, #12]
  406036:	6090      	str	r0, [r2, #8]
  406038:	4a30      	ldr	r2, [pc, #192]	; (4060fc <_free_r+0x1c4>)
  40603a:	f043 0001 	orr.w	r0, r3, #1
  40603e:	6812      	ldr	r2, [r2, #0]
  406040:	6060      	str	r0, [r4, #4]
  406042:	4293      	cmp	r3, r2
  406044:	608c      	str	r4, [r1, #8]
  406046:	d3b9      	bcc.n	405fbc <_free_r+0x84>
  406048:	4b2d      	ldr	r3, [pc, #180]	; (406100 <_free_r+0x1c8>)
  40604a:	4640      	mov	r0, r8
  40604c:	6819      	ldr	r1, [r3, #0]
  40604e:	f7ff ff23 	bl	405e98 <_malloc_trim_r>
  406052:	e7b3      	b.n	405fbc <_free_r+0x84>
  406054:	4610      	mov	r0, r2
  406056:	e7cd      	b.n	405ff4 <_free_r+0xbc>
  406058:	1811      	adds	r1, r2, r0
  40605a:	6849      	ldr	r1, [r1, #4]
  40605c:	07c9      	lsls	r1, r1, #31
  40605e:	d444      	bmi.n	4060ea <_free_r+0x1b2>
  406060:	6891      	ldr	r1, [r2, #8]
  406062:	4403      	add	r3, r0
  406064:	68d2      	ldr	r2, [r2, #12]
  406066:	f043 0001 	orr.w	r0, r3, #1
  40606a:	60ca      	str	r2, [r1, #12]
  40606c:	6091      	str	r1, [r2, #8]
  40606e:	6060      	str	r0, [r4, #4]
  406070:	50e3      	str	r3, [r4, r3]
  406072:	e7a3      	b.n	405fbc <_free_r+0x84>
  406074:	2a14      	cmp	r2, #20
  406076:	d816      	bhi.n	4060a6 <_free_r+0x16e>
  406078:	f102 075c 	add.w	r7, r2, #92	; 0x5c
  40607c:	00ff      	lsls	r7, r7, #3
  40607e:	f102 055b 	add.w	r5, r2, #91	; 0x5b
  406082:	e7aa      	b.n	405fda <_free_r+0xa2>
  406084:	2301      	movs	r3, #1
  406086:	10aa      	asrs	r2, r5, #2
  406088:	684d      	ldr	r5, [r1, #4]
  40608a:	4093      	lsls	r3, r2
  40608c:	432b      	orrs	r3, r5
  40608e:	604b      	str	r3, [r1, #4]
  406090:	4603      	mov	r3, r0
  406092:	e7b0      	b.n	405ff6 <_free_r+0xbe>
  406094:	f043 0201 	orr.w	r2, r3, #1
  406098:	614c      	str	r4, [r1, #20]
  40609a:	610c      	str	r4, [r1, #16]
  40609c:	60e5      	str	r5, [r4, #12]
  40609e:	60a5      	str	r5, [r4, #8]
  4060a0:	6062      	str	r2, [r4, #4]
  4060a2:	50e3      	str	r3, [r4, r3]
  4060a4:	e78a      	b.n	405fbc <_free_r+0x84>
  4060a6:	2a54      	cmp	r2, #84	; 0x54
  4060a8:	d806      	bhi.n	4060b8 <_free_r+0x180>
  4060aa:	0b1a      	lsrs	r2, r3, #12
  4060ac:	f102 076f 	add.w	r7, r2, #111	; 0x6f
  4060b0:	00ff      	lsls	r7, r7, #3
  4060b2:	f102 056e 	add.w	r5, r2, #110	; 0x6e
  4060b6:	e790      	b.n	405fda <_free_r+0xa2>
  4060b8:	f5b2 7faa 	cmp.w	r2, #340	; 0x154
  4060bc:	d806      	bhi.n	4060cc <_free_r+0x194>
  4060be:	0bda      	lsrs	r2, r3, #15
  4060c0:	f102 0778 	add.w	r7, r2, #120	; 0x78
  4060c4:	00ff      	lsls	r7, r7, #3
  4060c6:	f102 0577 	add.w	r5, r2, #119	; 0x77
  4060ca:	e786      	b.n	405fda <_free_r+0xa2>
  4060cc:	f240 5054 	movw	r0, #1364	; 0x554
  4060d0:	4282      	cmp	r2, r0
  4060d2:	d806      	bhi.n	4060e2 <_free_r+0x1aa>
  4060d4:	0c9a      	lsrs	r2, r3, #18
  4060d6:	f102 077d 	add.w	r7, r2, #125	; 0x7d
  4060da:	00ff      	lsls	r7, r7, #3
  4060dc:	f102 057c 	add.w	r5, r2, #124	; 0x7c
  4060e0:	e77b      	b.n	405fda <_free_r+0xa2>
  4060e2:	f44f 777e 	mov.w	r7, #1016	; 0x3f8
  4060e6:	257e      	movs	r5, #126	; 0x7e
  4060e8:	e777      	b.n	405fda <_free_r+0xa2>
  4060ea:	f043 0101 	orr.w	r1, r3, #1
  4060ee:	6061      	str	r1, [r4, #4]
  4060f0:	6013      	str	r3, [r2, #0]
  4060f2:	e763      	b.n	405fbc <_free_r+0x84>
  4060f4:	200007a8 	.word	0x200007a8
  4060f8:	200007b0 	.word	0x200007b0
  4060fc:	20000bb4 	.word	0x20000bb4
  406100:	20000e40 	.word	0x20000e40

00406104 <__locale_ctype_ptr_l>:
  406104:	f8d0 00ec 	ldr.w	r0, [r0, #236]	; 0xec
  406108:	4770      	bx	lr
  40610a:	bf00      	nop

0040610c <_localeconv_r>:
  40610c:	4a04      	ldr	r2, [pc, #16]	; (406120 <_localeconv_r+0x14>)
  40610e:	4b05      	ldr	r3, [pc, #20]	; (406124 <_localeconv_r+0x18>)
  406110:	6812      	ldr	r2, [r2, #0]
  406112:	6b50      	ldr	r0, [r2, #52]	; 0x34
  406114:	2800      	cmp	r0, #0
  406116:	bf08      	it	eq
  406118:	4618      	moveq	r0, r3
  40611a:	30f0      	adds	r0, #240	; 0xf0
  40611c:	4770      	bx	lr
  40611e:	bf00      	nop
  406120:	20000208 	.word	0x20000208
  406124:	2000063c 	.word	0x2000063c

00406128 <__retarget_lock_acquire_recursive>:
  406128:	4770      	bx	lr
  40612a:	bf00      	nop

0040612c <__retarget_lock_release_recursive>:
  40612c:	4770      	bx	lr
  40612e:	bf00      	nop

00406130 <_malloc_r>:
  406130:	e92d 4ff0 	stmdb	sp!, {r4, r5, r6, r7, r8, r9, sl, fp, lr}
  406134:	f101 060b 	add.w	r6, r1, #11
  406138:	2e16      	cmp	r6, #22
  40613a:	b083      	sub	sp, #12
  40613c:	4605      	mov	r5, r0
  40613e:	f240 809e 	bls.w	40627e <_malloc_r+0x14e>
  406142:	f036 0607 	bics.w	r6, r6, #7
  406146:	f100 80bd 	bmi.w	4062c4 <_malloc_r+0x194>
  40614a:	42b1      	cmp	r1, r6
  40614c:	f200 80ba 	bhi.w	4062c4 <_malloc_r+0x194>
  406150:	f000 fb50 	bl	4067f4 <__malloc_lock>
  406154:	f5b6 7ffc 	cmp.w	r6, #504	; 0x1f8
  406158:	f0c0 8285 	bcc.w	406666 <_malloc_r+0x536>
  40615c:	0a73      	lsrs	r3, r6, #9
  40615e:	f000 80b8 	beq.w	4062d2 <_malloc_r+0x1a2>
  406162:	2b04      	cmp	r3, #4
  406164:	f200 816c 	bhi.w	406440 <_malloc_r+0x310>
  406168:	09b3      	lsrs	r3, r6, #6
  40616a:	f103 0039 	add.w	r0, r3, #57	; 0x39
  40616e:	f103 0e38 	add.w	lr, r3, #56	; 0x38
  406172:	00c1      	lsls	r1, r0, #3
  406174:	4fb8      	ldr	r7, [pc, #736]	; (406458 <_malloc_r+0x328>)
  406176:	4439      	add	r1, r7
  406178:	684c      	ldr	r4, [r1, #4]
  40617a:	3908      	subs	r1, #8
  40617c:	42a1      	cmp	r1, r4
  40617e:	d106      	bne.n	40618e <_malloc_r+0x5e>
  406180:	e00c      	b.n	40619c <_malloc_r+0x6c>
  406182:	2a00      	cmp	r2, #0
  406184:	f280 80ab 	bge.w	4062de <_malloc_r+0x1ae>
  406188:	68e4      	ldr	r4, [r4, #12]
  40618a:	42a1      	cmp	r1, r4
  40618c:	d006      	beq.n	40619c <_malloc_r+0x6c>
  40618e:	6863      	ldr	r3, [r4, #4]
  406190:	f023 0303 	bic.w	r3, r3, #3
  406194:	1b9a      	subs	r2, r3, r6
  406196:	2a0f      	cmp	r2, #15
  406198:	ddf3      	ble.n	406182 <_malloc_r+0x52>
  40619a:	4670      	mov	r0, lr
  40619c:	693c      	ldr	r4, [r7, #16]
  40619e:	f8df e2cc 	ldr.w	lr, [pc, #716]	; 40646c <_malloc_r+0x33c>
  4061a2:	4574      	cmp	r4, lr
  4061a4:	f000 819e 	beq.w	4064e4 <_malloc_r+0x3b4>
  4061a8:	6863      	ldr	r3, [r4, #4]
  4061aa:	f023 0303 	bic.w	r3, r3, #3
  4061ae:	1b9a      	subs	r2, r3, r6
  4061b0:	2a0f      	cmp	r2, #15
  4061b2:	f300 8183 	bgt.w	4064bc <_malloc_r+0x38c>
  4061b6:	2a00      	cmp	r2, #0
  4061b8:	f8c7 e014 	str.w	lr, [r7, #20]
  4061bc:	f8c7 e010 	str.w	lr, [r7, #16]
  4061c0:	f280 8091 	bge.w	4062e6 <_malloc_r+0x1b6>
  4061c4:	f5b3 7f00 	cmp.w	r3, #512	; 0x200
  4061c8:	f080 8154 	bcs.w	406474 <_malloc_r+0x344>
  4061cc:	2201      	movs	r2, #1
  4061ce:	08db      	lsrs	r3, r3, #3
  4061d0:	6879      	ldr	r1, [r7, #4]
  4061d2:	ea4f 0ca3 	mov.w	ip, r3, asr #2
  4061d6:	4413      	add	r3, r2
  4061d8:	f857 8033 	ldr.w	r8, [r7, r3, lsl #3]
  4061dc:	fa02 f20c 	lsl.w	r2, r2, ip
  4061e0:	eb07 0cc3 	add.w	ip, r7, r3, lsl #3
  4061e4:	430a      	orrs	r2, r1
  4061e6:	f1ac 0108 	sub.w	r1, ip, #8
  4061ea:	60e1      	str	r1, [r4, #12]
  4061ec:	f8c4 8008 	str.w	r8, [r4, #8]
  4061f0:	607a      	str	r2, [r7, #4]
  4061f2:	f847 4033 	str.w	r4, [r7, r3, lsl #3]
  4061f6:	f8c8 400c 	str.w	r4, [r8, #12]
  4061fa:	2401      	movs	r4, #1
  4061fc:	1083      	asrs	r3, r0, #2
  4061fe:	409c      	lsls	r4, r3
  406200:	4294      	cmp	r4, r2
  406202:	d87d      	bhi.n	406300 <_malloc_r+0x1d0>
  406204:	4214      	tst	r4, r2
  406206:	d106      	bne.n	406216 <_malloc_r+0xe6>
  406208:	f020 0003 	bic.w	r0, r0, #3
  40620c:	0064      	lsls	r4, r4, #1
  40620e:	4214      	tst	r4, r2
  406210:	f100 0004 	add.w	r0, r0, #4
  406214:	d0fa      	beq.n	40620c <_malloc_r+0xdc>
  406216:	eb07 09c0 	add.w	r9, r7, r0, lsl #3
  40621a:	46cc      	mov	ip, r9
  40621c:	4680      	mov	r8, r0
  40621e:	f8dc 300c 	ldr.w	r3, [ip, #12]
  406222:	459c      	cmp	ip, r3
  406224:	d107      	bne.n	406236 <_malloc_r+0x106>
  406226:	e15f      	b.n	4064e8 <_malloc_r+0x3b8>
  406228:	2a00      	cmp	r2, #0
  40622a:	f280 816d 	bge.w	406508 <_malloc_r+0x3d8>
  40622e:	68db      	ldr	r3, [r3, #12]
  406230:	459c      	cmp	ip, r3
  406232:	f000 8159 	beq.w	4064e8 <_malloc_r+0x3b8>
  406236:	6859      	ldr	r1, [r3, #4]
  406238:	f021 0103 	bic.w	r1, r1, #3
  40623c:	1b8a      	subs	r2, r1, r6
  40623e:	2a0f      	cmp	r2, #15
  406240:	ddf2      	ble.n	406228 <_malloc_r+0xf8>
  406242:	68dc      	ldr	r4, [r3, #12]
  406244:	f8d3 c008 	ldr.w	ip, [r3, #8]
  406248:	f046 0801 	orr.w	r8, r6, #1
  40624c:	4628      	mov	r0, r5
  40624e:	441e      	add	r6, r3
  406250:	f042 0501 	orr.w	r5, r2, #1
  406254:	f8c3 8004 	str.w	r8, [r3, #4]
  406258:	f8cc 400c 	str.w	r4, [ip, #12]
  40625c:	f8c4 c008 	str.w	ip, [r4, #8]
  406260:	617e      	str	r6, [r7, #20]
  406262:	613e      	str	r6, [r7, #16]
  406264:	f8c6 e00c 	str.w	lr, [r6, #12]
  406268:	f8c6 e008 	str.w	lr, [r6, #8]
  40626c:	6075      	str	r5, [r6, #4]
  40626e:	505a      	str	r2, [r3, r1]
  406270:	9300      	str	r3, [sp, #0]
  406272:	f000 fac5 	bl	406800 <__malloc_unlock>
  406276:	9b00      	ldr	r3, [sp, #0]
  406278:	f103 0408 	add.w	r4, r3, #8
  40627c:	e01e      	b.n	4062bc <_malloc_r+0x18c>
  40627e:	2910      	cmp	r1, #16
  406280:	d820      	bhi.n	4062c4 <_malloc_r+0x194>
  406282:	f000 fab7 	bl	4067f4 <__malloc_lock>
  406286:	2610      	movs	r6, #16
  406288:	2318      	movs	r3, #24
  40628a:	2002      	movs	r0, #2
  40628c:	4f72      	ldr	r7, [pc, #456]	; (406458 <_malloc_r+0x328>)
  40628e:	443b      	add	r3, r7
  406290:	685c      	ldr	r4, [r3, #4]
  406292:	f1a3 0208 	sub.w	r2, r3, #8
  406296:	4294      	cmp	r4, r2
  406298:	f000 812f 	beq.w	4064fa <_malloc_r+0x3ca>
  40629c:	6863      	ldr	r3, [r4, #4]
  40629e:	68e1      	ldr	r1, [r4, #12]
  4062a0:	f023 0303 	bic.w	r3, r3, #3
  4062a4:	4423      	add	r3, r4
  4062a6:	685a      	ldr	r2, [r3, #4]
  4062a8:	68a6      	ldr	r6, [r4, #8]
  4062aa:	f042 0201 	orr.w	r2, r2, #1
  4062ae:	60f1      	str	r1, [r6, #12]
  4062b0:	4628      	mov	r0, r5
  4062b2:	608e      	str	r6, [r1, #8]
  4062b4:	605a      	str	r2, [r3, #4]
  4062b6:	f000 faa3 	bl	406800 <__malloc_unlock>
  4062ba:	3408      	adds	r4, #8
  4062bc:	4620      	mov	r0, r4
  4062be:	b003      	add	sp, #12
  4062c0:	e8bd 8ff0 	ldmia.w	sp!, {r4, r5, r6, r7, r8, r9, sl, fp, pc}
  4062c4:	2400      	movs	r4, #0
  4062c6:	230c      	movs	r3, #12
  4062c8:	4620      	mov	r0, r4
  4062ca:	602b      	str	r3, [r5, #0]
  4062cc:	b003      	add	sp, #12
  4062ce:	e8bd 8ff0 	ldmia.w	sp!, {r4, r5, r6, r7, r8, r9, sl, fp, pc}
  4062d2:	2040      	movs	r0, #64	; 0x40
  4062d4:	f44f 7100 	mov.w	r1, #512	; 0x200
  4062d8:	f04f 0e3f 	mov.w	lr, #63	; 0x3f
  4062dc:	e74a      	b.n	406174 <_malloc_r+0x44>
  4062de:	4423      	add	r3, r4
  4062e0:	685a      	ldr	r2, [r3, #4]
  4062e2:	68e1      	ldr	r1, [r4, #12]
  4062e4:	e7e0      	b.n	4062a8 <_malloc_r+0x178>
  4062e6:	4423      	add	r3, r4
  4062e8:	685a      	ldr	r2, [r3, #4]
  4062ea:	4628      	mov	r0, r5
  4062ec:	f042 0201 	orr.w	r2, r2, #1
  4062f0:	605a      	str	r2, [r3, #4]
  4062f2:	3408      	adds	r4, #8
  4062f4:	f000 fa84 	bl	406800 <__malloc_unlock>
  4062f8:	4620      	mov	r0, r4
  4062fa:	b003      	add	sp, #12
  4062fc:	e8bd 8ff0 	ldmia.w	sp!, {r4, r5, r6, r7, r8, r9, sl, fp, pc}
  406300:	68bc      	ldr	r4, [r7, #8]
  406302:	6863      	ldr	r3, [r4, #4]
  406304:	f023 0803 	bic.w	r8, r3, #3
  406308:	45b0      	cmp	r8, r6
  40630a:	d304      	bcc.n	406316 <_malloc_r+0x1e6>
  40630c:	eba8 0306 	sub.w	r3, r8, r6
  406310:	2b0f      	cmp	r3, #15
  406312:	f300 8085 	bgt.w	406420 <_malloc_r+0x2f0>
  406316:	f8df 9158 	ldr.w	r9, [pc, #344]	; 406470 <_malloc_r+0x340>
  40631a:	4b50      	ldr	r3, [pc, #320]	; (40645c <_malloc_r+0x32c>)
  40631c:	f8d9 2000 	ldr.w	r2, [r9]
  406320:	681b      	ldr	r3, [r3, #0]
  406322:	3201      	adds	r2, #1
  406324:	4433      	add	r3, r6
  406326:	eb04 0a08 	add.w	sl, r4, r8
  40632a:	f000 8154 	beq.w	4065d6 <_malloc_r+0x4a6>
  40632e:	f503 5380 	add.w	r3, r3, #4096	; 0x1000
  406332:	330f      	adds	r3, #15
  406334:	f423 6b7f 	bic.w	fp, r3, #4080	; 0xff0
  406338:	f02b 0b0f 	bic.w	fp, fp, #15
  40633c:	4659      	mov	r1, fp
  40633e:	4628      	mov	r0, r5
  406340:	f000 ff16 	bl	407170 <_sbrk_r>
  406344:	1c41      	adds	r1, r0, #1
  406346:	4602      	mov	r2, r0
  406348:	f000 80fb 	beq.w	406542 <_malloc_r+0x412>
  40634c:	4582      	cmp	sl, r0
  40634e:	f200 80f6 	bhi.w	40653e <_malloc_r+0x40e>
  406352:	4b43      	ldr	r3, [pc, #268]	; (406460 <_malloc_r+0x330>)
  406354:	6819      	ldr	r1, [r3, #0]
  406356:	4459      	add	r1, fp
  406358:	6019      	str	r1, [r3, #0]
  40635a:	f000 814c 	beq.w	4065f6 <_malloc_r+0x4c6>
  40635e:	f8d9 0000 	ldr.w	r0, [r9]
  406362:	3001      	adds	r0, #1
  406364:	bf1b      	ittet	ne
  406366:	eba2 0a0a 	subne.w	sl, r2, sl
  40636a:	4451      	addne	r1, sl
  40636c:	f8c9 2000 	streq.w	r2, [r9]
  406370:	6019      	strne	r1, [r3, #0]
  406372:	f012 0107 	ands.w	r1, r2, #7
  406376:	f000 8114 	beq.w	4065a2 <_malloc_r+0x472>
  40637a:	f1c1 0008 	rsb	r0, r1, #8
  40637e:	f5c1 5180 	rsb	r1, r1, #4096	; 0x1000
  406382:	4402      	add	r2, r0
  406384:	3108      	adds	r1, #8
  406386:	eb02 090b 	add.w	r9, r2, fp
  40638a:	f3c9 090b 	ubfx	r9, r9, #0, #12
  40638e:	eba1 0909 	sub.w	r9, r1, r9
  406392:	4649      	mov	r1, r9
  406394:	4628      	mov	r0, r5
  406396:	9301      	str	r3, [sp, #4]
  406398:	9200      	str	r2, [sp, #0]
  40639a:	f000 fee9 	bl	407170 <_sbrk_r>
  40639e:	1c43      	adds	r3, r0, #1
  4063a0:	e89d 000c 	ldmia.w	sp, {r2, r3}
  4063a4:	f000 8142 	beq.w	40662c <_malloc_r+0x4fc>
  4063a8:	1a80      	subs	r0, r0, r2
  4063aa:	4448      	add	r0, r9
  4063ac:	f040 0001 	orr.w	r0, r0, #1
  4063b0:	6819      	ldr	r1, [r3, #0]
  4063b2:	42bc      	cmp	r4, r7
  4063b4:	4449      	add	r1, r9
  4063b6:	60ba      	str	r2, [r7, #8]
  4063b8:	6019      	str	r1, [r3, #0]
  4063ba:	6050      	str	r0, [r2, #4]
  4063bc:	d017      	beq.n	4063ee <_malloc_r+0x2be>
  4063be:	f1b8 0f0f 	cmp.w	r8, #15
  4063c2:	f240 80fa 	bls.w	4065ba <_malloc_r+0x48a>
  4063c6:	f04f 0c05 	mov.w	ip, #5
  4063ca:	6862      	ldr	r2, [r4, #4]
  4063cc:	f1a8 000c 	sub.w	r0, r8, #12
  4063d0:	f020 0007 	bic.w	r0, r0, #7
  4063d4:	f002 0201 	and.w	r2, r2, #1
  4063d8:	eb04 0e00 	add.w	lr, r4, r0
  4063dc:	4302      	orrs	r2, r0
  4063de:	280f      	cmp	r0, #15
  4063e0:	6062      	str	r2, [r4, #4]
  4063e2:	f8ce c004 	str.w	ip, [lr, #4]
  4063e6:	f8ce c008 	str.w	ip, [lr, #8]
  4063ea:	f200 8116 	bhi.w	40661a <_malloc_r+0x4ea>
  4063ee:	4b1d      	ldr	r3, [pc, #116]	; (406464 <_malloc_r+0x334>)
  4063f0:	68bc      	ldr	r4, [r7, #8]
  4063f2:	681a      	ldr	r2, [r3, #0]
  4063f4:	4291      	cmp	r1, r2
  4063f6:	bf88      	it	hi
  4063f8:	6019      	strhi	r1, [r3, #0]
  4063fa:	4b1b      	ldr	r3, [pc, #108]	; (406468 <_malloc_r+0x338>)
  4063fc:	681a      	ldr	r2, [r3, #0]
  4063fe:	4291      	cmp	r1, r2
  406400:	6862      	ldr	r2, [r4, #4]
  406402:	bf88      	it	hi
  406404:	6019      	strhi	r1, [r3, #0]
  406406:	f022 0203 	bic.w	r2, r2, #3
  40640a:	4296      	cmp	r6, r2
  40640c:	eba2 0306 	sub.w	r3, r2, r6
  406410:	d801      	bhi.n	406416 <_malloc_r+0x2e6>
  406412:	2b0f      	cmp	r3, #15
  406414:	dc04      	bgt.n	406420 <_malloc_r+0x2f0>
  406416:	4628      	mov	r0, r5
  406418:	f000 f9f2 	bl	406800 <__malloc_unlock>
  40641c:	2400      	movs	r4, #0
  40641e:	e74d      	b.n	4062bc <_malloc_r+0x18c>
  406420:	f046 0201 	orr.w	r2, r6, #1
  406424:	f043 0301 	orr.w	r3, r3, #1
  406428:	4426      	add	r6, r4
  40642a:	6062      	str	r2, [r4, #4]
  40642c:	4628      	mov	r0, r5
  40642e:	60be      	str	r6, [r7, #8]
  406430:	3408      	adds	r4, #8
  406432:	6073      	str	r3, [r6, #4]
  406434:	f000 f9e4 	bl	406800 <__malloc_unlock>
  406438:	4620      	mov	r0, r4
  40643a:	b003      	add	sp, #12
  40643c:	e8bd 8ff0 	ldmia.w	sp!, {r4, r5, r6, r7, r8, r9, sl, fp, pc}
  406440:	2b14      	cmp	r3, #20
  406442:	d970      	bls.n	406526 <_malloc_r+0x3f6>
  406444:	2b54      	cmp	r3, #84	; 0x54
  406446:	f200 80a2 	bhi.w	40658e <_malloc_r+0x45e>
  40644a:	0b33      	lsrs	r3, r6, #12
  40644c:	f103 006f 	add.w	r0, r3, #111	; 0x6f
  406450:	f103 0e6e 	add.w	lr, r3, #110	; 0x6e
  406454:	00c1      	lsls	r1, r0, #3
  406456:	e68d      	b.n	406174 <_malloc_r+0x44>
  406458:	200007a8 	.word	0x200007a8
  40645c:	20000e40 	.word	0x20000e40
  406460:	20000e10 	.word	0x20000e10
  406464:	20000e38 	.word	0x20000e38
  406468:	20000e3c 	.word	0x20000e3c
  40646c:	200007b0 	.word	0x200007b0
  406470:	20000bb0 	.word	0x20000bb0
  406474:	0a5a      	lsrs	r2, r3, #9
  406476:	2a04      	cmp	r2, #4
  406478:	d95b      	bls.n	406532 <_malloc_r+0x402>
  40647a:	2a14      	cmp	r2, #20
  40647c:	f200 80ae 	bhi.w	4065dc <_malloc_r+0x4ac>
  406480:	f102 015c 	add.w	r1, r2, #92	; 0x5c
  406484:	00c9      	lsls	r1, r1, #3
  406486:	325b      	adds	r2, #91	; 0x5b
  406488:	eb07 0c01 	add.w	ip, r7, r1
  40648c:	5879      	ldr	r1, [r7, r1]
  40648e:	f1ac 0c08 	sub.w	ip, ip, #8
  406492:	458c      	cmp	ip, r1
  406494:	f000 8088 	beq.w	4065a8 <_malloc_r+0x478>
  406498:	684a      	ldr	r2, [r1, #4]
  40649a:	f022 0203 	bic.w	r2, r2, #3
  40649e:	4293      	cmp	r3, r2
  4064a0:	d273      	bcs.n	40658a <_malloc_r+0x45a>
  4064a2:	6889      	ldr	r1, [r1, #8]
  4064a4:	458c      	cmp	ip, r1
  4064a6:	d1f7      	bne.n	406498 <_malloc_r+0x368>
  4064a8:	f8dc 300c 	ldr.w	r3, [ip, #12]
  4064ac:	687a      	ldr	r2, [r7, #4]
  4064ae:	60e3      	str	r3, [r4, #12]
  4064b0:	f8c4 c008 	str.w	ip, [r4, #8]
  4064b4:	609c      	str	r4, [r3, #8]
  4064b6:	f8cc 400c 	str.w	r4, [ip, #12]
  4064ba:	e69e      	b.n	4061fa <_malloc_r+0xca>
  4064bc:	f046 0c01 	orr.w	ip, r6, #1
  4064c0:	f042 0101 	orr.w	r1, r2, #1
  4064c4:	4426      	add	r6, r4
  4064c6:	f8c4 c004 	str.w	ip, [r4, #4]
  4064ca:	4628      	mov	r0, r5
  4064cc:	617e      	str	r6, [r7, #20]
  4064ce:	613e      	str	r6, [r7, #16]
  4064d0:	f8c6 e00c 	str.w	lr, [r6, #12]
  4064d4:	f8c6 e008 	str.w	lr, [r6, #8]
  4064d8:	6071      	str	r1, [r6, #4]
  4064da:	50e2      	str	r2, [r4, r3]
  4064dc:	f000 f990 	bl	406800 <__malloc_unlock>
  4064e0:	3408      	adds	r4, #8
  4064e2:	e6eb      	b.n	4062bc <_malloc_r+0x18c>
  4064e4:	687a      	ldr	r2, [r7, #4]
  4064e6:	e688      	b.n	4061fa <_malloc_r+0xca>
  4064e8:	f108 0801 	add.w	r8, r8, #1
  4064ec:	f018 0f03 	tst.w	r8, #3
  4064f0:	f10c 0c08 	add.w	ip, ip, #8
  4064f4:	f47f ae93 	bne.w	40621e <_malloc_r+0xee>
  4064f8:	e02d      	b.n	406556 <_malloc_r+0x426>
  4064fa:	68dc      	ldr	r4, [r3, #12]
  4064fc:	42a3      	cmp	r3, r4
  4064fe:	bf08      	it	eq
  406500:	3002      	addeq	r0, #2
  406502:	f43f ae4b 	beq.w	40619c <_malloc_r+0x6c>
  406506:	e6c9      	b.n	40629c <_malloc_r+0x16c>
  406508:	461c      	mov	r4, r3
  40650a:	4419      	add	r1, r3
  40650c:	684a      	ldr	r2, [r1, #4]
  40650e:	68db      	ldr	r3, [r3, #12]
  406510:	f854 6f08 	ldr.w	r6, [r4, #8]!
  406514:	f042 0201 	orr.w	r2, r2, #1
  406518:	604a      	str	r2, [r1, #4]
  40651a:	4628      	mov	r0, r5
  40651c:	60f3      	str	r3, [r6, #12]
  40651e:	609e      	str	r6, [r3, #8]
  406520:	f000 f96e 	bl	406800 <__malloc_unlock>
  406524:	e6ca      	b.n	4062bc <_malloc_r+0x18c>
  406526:	f103 005c 	add.w	r0, r3, #92	; 0x5c
  40652a:	f103 0e5b 	add.w	lr, r3, #91	; 0x5b
  40652e:	00c1      	lsls	r1, r0, #3
  406530:	e620      	b.n	406174 <_malloc_r+0x44>
  406532:	099a      	lsrs	r2, r3, #6
  406534:	f102 0139 	add.w	r1, r2, #57	; 0x39
  406538:	00c9      	lsls	r1, r1, #3
  40653a:	3238      	adds	r2, #56	; 0x38
  40653c:	e7a4      	b.n	406488 <_malloc_r+0x358>
  40653e:	42bc      	cmp	r4, r7
  406540:	d054      	beq.n	4065ec <_malloc_r+0x4bc>
  406542:	68bc      	ldr	r4, [r7, #8]
  406544:	6862      	ldr	r2, [r4, #4]
  406546:	f022 0203 	bic.w	r2, r2, #3
  40654a:	e75e      	b.n	40640a <_malloc_r+0x2da>
  40654c:	f859 3908 	ldr.w	r3, [r9], #-8
  406550:	4599      	cmp	r9, r3
  406552:	f040 8086 	bne.w	406662 <_malloc_r+0x532>
  406556:	f010 0f03 	tst.w	r0, #3
  40655a:	f100 30ff 	add.w	r0, r0, #4294967295
  40655e:	d1f5      	bne.n	40654c <_malloc_r+0x41c>
  406560:	687b      	ldr	r3, [r7, #4]
  406562:	ea23 0304 	bic.w	r3, r3, r4
  406566:	607b      	str	r3, [r7, #4]
  406568:	0064      	lsls	r4, r4, #1
  40656a:	429c      	cmp	r4, r3
  40656c:	f63f aec8 	bhi.w	406300 <_malloc_r+0x1d0>
  406570:	2c00      	cmp	r4, #0
  406572:	f43f aec5 	beq.w	406300 <_malloc_r+0x1d0>
  406576:	421c      	tst	r4, r3
  406578:	4640      	mov	r0, r8
  40657a:	f47f ae4c 	bne.w	406216 <_malloc_r+0xe6>
  40657e:	0064      	lsls	r4, r4, #1
  406580:	421c      	tst	r4, r3
  406582:	f100 0004 	add.w	r0, r0, #4
  406586:	d0fa      	beq.n	40657e <_malloc_r+0x44e>
  406588:	e645      	b.n	406216 <_malloc_r+0xe6>
  40658a:	468c      	mov	ip, r1
  40658c:	e78c      	b.n	4064a8 <_malloc_r+0x378>
  40658e:	f5b3 7faa 	cmp.w	r3, #340	; 0x154
  406592:	d815      	bhi.n	4065c0 <_malloc_r+0x490>
  406594:	0bf3      	lsrs	r3, r6, #15
  406596:	f103 0078 	add.w	r0, r3, #120	; 0x78
  40659a:	f103 0e77 	add.w	lr, r3, #119	; 0x77
  40659e:	00c1      	lsls	r1, r0, #3
  4065a0:	e5e8      	b.n	406174 <_malloc_r+0x44>
  4065a2:	f44f 5180 	mov.w	r1, #4096	; 0x1000
  4065a6:	e6ee      	b.n	406386 <_malloc_r+0x256>
  4065a8:	2101      	movs	r1, #1
  4065aa:	687b      	ldr	r3, [r7, #4]
  4065ac:	1092      	asrs	r2, r2, #2
  4065ae:	fa01 f202 	lsl.w	r2, r1, r2
  4065b2:	431a      	orrs	r2, r3
  4065b4:	607a      	str	r2, [r7, #4]
  4065b6:	4663      	mov	r3, ip
  4065b8:	e779      	b.n	4064ae <_malloc_r+0x37e>
  4065ba:	2301      	movs	r3, #1
  4065bc:	6053      	str	r3, [r2, #4]
  4065be:	e72a      	b.n	406416 <_malloc_r+0x2e6>
  4065c0:	f240 5254 	movw	r2, #1364	; 0x554
  4065c4:	4293      	cmp	r3, r2
  4065c6:	d822      	bhi.n	40660e <_malloc_r+0x4de>
  4065c8:	0cb3      	lsrs	r3, r6, #18
  4065ca:	f103 007d 	add.w	r0, r3, #125	; 0x7d
  4065ce:	f103 0e7c 	add.w	lr, r3, #124	; 0x7c
  4065d2:	00c1      	lsls	r1, r0, #3
  4065d4:	e5ce      	b.n	406174 <_malloc_r+0x44>
  4065d6:	f103 0b10 	add.w	fp, r3, #16
  4065da:	e6af      	b.n	40633c <_malloc_r+0x20c>
  4065dc:	2a54      	cmp	r2, #84	; 0x54
  4065de:	d829      	bhi.n	406634 <_malloc_r+0x504>
  4065e0:	0b1a      	lsrs	r2, r3, #12
  4065e2:	f102 016f 	add.w	r1, r2, #111	; 0x6f
  4065e6:	00c9      	lsls	r1, r1, #3
  4065e8:	326e      	adds	r2, #110	; 0x6e
  4065ea:	e74d      	b.n	406488 <_malloc_r+0x358>
  4065ec:	4b20      	ldr	r3, [pc, #128]	; (406670 <_malloc_r+0x540>)
  4065ee:	6819      	ldr	r1, [r3, #0]
  4065f0:	4459      	add	r1, fp
  4065f2:	6019      	str	r1, [r3, #0]
  4065f4:	e6b3      	b.n	40635e <_malloc_r+0x22e>
  4065f6:	f3ca 000b 	ubfx	r0, sl, #0, #12
  4065fa:	2800      	cmp	r0, #0
  4065fc:	f47f aeaf 	bne.w	40635e <_malloc_r+0x22e>
  406600:	eb08 030b 	add.w	r3, r8, fp
  406604:	68ba      	ldr	r2, [r7, #8]
  406606:	f043 0301 	orr.w	r3, r3, #1
  40660a:	6053      	str	r3, [r2, #4]
  40660c:	e6ef      	b.n	4063ee <_malloc_r+0x2be>
  40660e:	207f      	movs	r0, #127	; 0x7f
  406610:	f44f 717e 	mov.w	r1, #1016	; 0x3f8
  406614:	f04f 0e7e 	mov.w	lr, #126	; 0x7e
  406618:	e5ac      	b.n	406174 <_malloc_r+0x44>
  40661a:	f104 0108 	add.w	r1, r4, #8
  40661e:	4628      	mov	r0, r5
  406620:	9300      	str	r3, [sp, #0]
  406622:	f7ff fc89 	bl	405f38 <_free_r>
  406626:	9b00      	ldr	r3, [sp, #0]
  406628:	6819      	ldr	r1, [r3, #0]
  40662a:	e6e0      	b.n	4063ee <_malloc_r+0x2be>
  40662c:	2001      	movs	r0, #1
  40662e:	f04f 0900 	mov.w	r9, #0
  406632:	e6bd      	b.n	4063b0 <_malloc_r+0x280>
  406634:	f5b2 7faa 	cmp.w	r2, #340	; 0x154
  406638:	d805      	bhi.n	406646 <_malloc_r+0x516>
  40663a:	0bda      	lsrs	r2, r3, #15
  40663c:	f102 0178 	add.w	r1, r2, #120	; 0x78
  406640:	00c9      	lsls	r1, r1, #3
  406642:	3277      	adds	r2, #119	; 0x77
  406644:	e720      	b.n	406488 <_malloc_r+0x358>
  406646:	f240 5154 	movw	r1, #1364	; 0x554
  40664a:	428a      	cmp	r2, r1
  40664c:	d805      	bhi.n	40665a <_malloc_r+0x52a>
  40664e:	0c9a      	lsrs	r2, r3, #18
  406650:	f102 017d 	add.w	r1, r2, #125	; 0x7d
  406654:	00c9      	lsls	r1, r1, #3
  406656:	327c      	adds	r2, #124	; 0x7c
  406658:	e716      	b.n	406488 <_malloc_r+0x358>
  40665a:	f44f 717e 	mov.w	r1, #1016	; 0x3f8
  40665e:	227e      	movs	r2, #126	; 0x7e
  406660:	e712      	b.n	406488 <_malloc_r+0x358>
  406662:	687b      	ldr	r3, [r7, #4]
  406664:	e780      	b.n	406568 <_malloc_r+0x438>
  406666:	08f0      	lsrs	r0, r6, #3
  406668:	f106 0308 	add.w	r3, r6, #8
  40666c:	e60e      	b.n	40628c <_malloc_r+0x15c>
  40666e:	bf00      	nop
  406670:	20000e10 	.word	0x20000e10

00406674 <__ascii_mbtowc>:
  406674:	b082      	sub	sp, #8
  406676:	b149      	cbz	r1, 40668c <__ascii_mbtowc+0x18>
  406678:	b15a      	cbz	r2, 406692 <__ascii_mbtowc+0x1e>
  40667a:	b16b      	cbz	r3, 406698 <__ascii_mbtowc+0x24>
  40667c:	7813      	ldrb	r3, [r2, #0]
  40667e:	600b      	str	r3, [r1, #0]
  406680:	7812      	ldrb	r2, [r2, #0]
  406682:	1c10      	adds	r0, r2, #0
  406684:	bf18      	it	ne
  406686:	2001      	movne	r0, #1
  406688:	b002      	add	sp, #8
  40668a:	4770      	bx	lr
  40668c:	a901      	add	r1, sp, #4
  40668e:	2a00      	cmp	r2, #0
  406690:	d1f3      	bne.n	40667a <__ascii_mbtowc+0x6>
  406692:	4610      	mov	r0, r2
  406694:	b002      	add	sp, #8
  406696:	4770      	bx	lr
  406698:	f06f 0001 	mvn.w	r0, #1
  40669c:	e7f4      	b.n	406688 <__ascii_mbtowc+0x14>
  40669e:	bf00      	nop

004066a0 <memchr>:
  4066a0:	0783      	lsls	r3, r0, #30
  4066a2:	b470      	push	{r4, r5, r6}
  4066a4:	b2cd      	uxtb	r5, r1
  4066a6:	d03d      	beq.n	406724 <memchr+0x84>
  4066a8:	1e54      	subs	r4, r2, #1
  4066aa:	b30a      	cbz	r2, 4066f0 <memchr+0x50>
  4066ac:	7803      	ldrb	r3, [r0, #0]
  4066ae:	42ab      	cmp	r3, r5
  4066b0:	d01f      	beq.n	4066f2 <memchr+0x52>
  4066b2:	1c43      	adds	r3, r0, #1
  4066b4:	e005      	b.n	4066c2 <memchr+0x22>
  4066b6:	f114 34ff 	adds.w	r4, r4, #4294967295
  4066ba:	d319      	bcc.n	4066f0 <memchr+0x50>
  4066bc:	7802      	ldrb	r2, [r0, #0]
  4066be:	42aa      	cmp	r2, r5
  4066c0:	d017      	beq.n	4066f2 <memchr+0x52>
  4066c2:	f013 0f03 	tst.w	r3, #3
  4066c6:	4618      	mov	r0, r3
  4066c8:	f103 0301 	add.w	r3, r3, #1
  4066cc:	d1f3      	bne.n	4066b6 <memchr+0x16>
  4066ce:	2c03      	cmp	r4, #3
  4066d0:	d811      	bhi.n	4066f6 <memchr+0x56>
  4066d2:	b34c      	cbz	r4, 406728 <memchr+0x88>
  4066d4:	7803      	ldrb	r3, [r0, #0]
  4066d6:	42ab      	cmp	r3, r5
  4066d8:	d00b      	beq.n	4066f2 <memchr+0x52>
  4066da:	4404      	add	r4, r0
  4066dc:	1c43      	adds	r3, r0, #1
  4066de:	e002      	b.n	4066e6 <memchr+0x46>
  4066e0:	7802      	ldrb	r2, [r0, #0]
  4066e2:	42aa      	cmp	r2, r5
  4066e4:	d005      	beq.n	4066f2 <memchr+0x52>
  4066e6:	429c      	cmp	r4, r3
  4066e8:	4618      	mov	r0, r3
  4066ea:	f103 0301 	add.w	r3, r3, #1
  4066ee:	d1f7      	bne.n	4066e0 <memchr+0x40>
  4066f0:	2000      	movs	r0, #0
  4066f2:	bc70      	pop	{r4, r5, r6}
  4066f4:	4770      	bx	lr
  4066f6:	0209      	lsls	r1, r1, #8
  4066f8:	b289      	uxth	r1, r1
  4066fa:	4329      	orrs	r1, r5
  4066fc:	ea41 4101 	orr.w	r1, r1, r1, lsl #16
  406700:	6803      	ldr	r3, [r0, #0]
  406702:	4606      	mov	r6, r0
  406704:	404b      	eors	r3, r1
  406706:	f1a3 3201 	sub.w	r2, r3, #16843009	; 0x1010101
  40670a:	ea22 0303 	bic.w	r3, r2, r3
  40670e:	f013 3f80 	tst.w	r3, #2155905152	; 0x80808080
  406712:	f100 0004 	add.w	r0, r0, #4
  406716:	d103      	bne.n	406720 <memchr+0x80>
  406718:	3c04      	subs	r4, #4
  40671a:	2c03      	cmp	r4, #3
  40671c:	d8f0      	bhi.n	406700 <memchr+0x60>
  40671e:	e7d8      	b.n	4066d2 <memchr+0x32>
  406720:	4630      	mov	r0, r6
  406722:	e7d7      	b.n	4066d4 <memchr+0x34>
  406724:	4614      	mov	r4, r2
  406726:	e7d2      	b.n	4066ce <memchr+0x2e>
  406728:	4620      	mov	r0, r4
  40672a:	e7e2      	b.n	4066f2 <memchr+0x52>

0040672c <memmove>:
  40672c:	4288      	cmp	r0, r1
  40672e:	b5f0      	push	{r4, r5, r6, r7, lr}
  406730:	d90d      	bls.n	40674e <memmove+0x22>
  406732:	188b      	adds	r3, r1, r2
  406734:	4298      	cmp	r0, r3
  406736:	d20a      	bcs.n	40674e <memmove+0x22>
  406738:	1884      	adds	r4, r0, r2
  40673a:	2a00      	cmp	r2, #0
  40673c:	d051      	beq.n	4067e2 <memmove+0xb6>
  40673e:	4622      	mov	r2, r4
  406740:	f813 4d01 	ldrb.w	r4, [r3, #-1]!
  406744:	4299      	cmp	r1, r3
  406746:	f802 4d01 	strb.w	r4, [r2, #-1]!
  40674a:	d1f9      	bne.n	406740 <memmove+0x14>
  40674c:	bdf0      	pop	{r4, r5, r6, r7, pc}
  40674e:	2a0f      	cmp	r2, #15
  406750:	d948      	bls.n	4067e4 <memmove+0xb8>
  406752:	ea41 0300 	orr.w	r3, r1, r0
  406756:	079b      	lsls	r3, r3, #30
  406758:	d146      	bne.n	4067e8 <memmove+0xbc>
  40675a:	4615      	mov	r5, r2
  40675c:	f100 0410 	add.w	r4, r0, #16
  406760:	f101 0310 	add.w	r3, r1, #16
  406764:	f853 6c10 	ldr.w	r6, [r3, #-16]
  406768:	3d10      	subs	r5, #16
  40676a:	f844 6c10 	str.w	r6, [r4, #-16]
  40676e:	f853 6c0c 	ldr.w	r6, [r3, #-12]
  406772:	2d0f      	cmp	r5, #15
  406774:	f844 6c0c 	str.w	r6, [r4, #-12]
  406778:	f853 6c08 	ldr.w	r6, [r3, #-8]
  40677c:	f104 0410 	add.w	r4, r4, #16
  406780:	f844 6c18 	str.w	r6, [r4, #-24]
  406784:	f853 6c04 	ldr.w	r6, [r3, #-4]
  406788:	f103 0310 	add.w	r3, r3, #16
  40678c:	f844 6c14 	str.w	r6, [r4, #-20]
  406790:	d8e8      	bhi.n	406764 <memmove+0x38>
  406792:	f1a2 0310 	sub.w	r3, r2, #16
  406796:	f023 030f 	bic.w	r3, r3, #15
  40679a:	f002 0e0f 	and.w	lr, r2, #15
  40679e:	3310      	adds	r3, #16
  4067a0:	f1be 0f03 	cmp.w	lr, #3
  4067a4:	4419      	add	r1, r3
  4067a6:	4403      	add	r3, r0
  4067a8:	d921      	bls.n	4067ee <memmove+0xc2>
  4067aa:	460e      	mov	r6, r1
  4067ac:	4674      	mov	r4, lr
  4067ae:	1f1d      	subs	r5, r3, #4
  4067b0:	f856 7b04 	ldr.w	r7, [r6], #4
  4067b4:	3c04      	subs	r4, #4
  4067b6:	2c03      	cmp	r4, #3
  4067b8:	f845 7f04 	str.w	r7, [r5, #4]!
  4067bc:	d8f8      	bhi.n	4067b0 <memmove+0x84>
  4067be:	f1ae 0404 	sub.w	r4, lr, #4
  4067c2:	f024 0403 	bic.w	r4, r4, #3
  4067c6:	3404      	adds	r4, #4
  4067c8:	4421      	add	r1, r4
  4067ca:	4423      	add	r3, r4
  4067cc:	f002 0203 	and.w	r2, r2, #3
  4067d0:	b162      	cbz	r2, 4067ec <memmove+0xc0>
  4067d2:	3b01      	subs	r3, #1
  4067d4:	440a      	add	r2, r1
  4067d6:	f811 4b01 	ldrb.w	r4, [r1], #1
  4067da:	428a      	cmp	r2, r1
  4067dc:	f803 4f01 	strb.w	r4, [r3, #1]!
  4067e0:	d1f9      	bne.n	4067d6 <memmove+0xaa>
  4067e2:	bdf0      	pop	{r4, r5, r6, r7, pc}
  4067e4:	4603      	mov	r3, r0
  4067e6:	e7f3      	b.n	4067d0 <memmove+0xa4>
  4067e8:	4603      	mov	r3, r0
  4067ea:	e7f2      	b.n	4067d2 <memmove+0xa6>
  4067ec:	bdf0      	pop	{r4, r5, r6, r7, pc}
  4067ee:	4672      	mov	r2, lr
  4067f0:	e7ee      	b.n	4067d0 <memmove+0xa4>
  4067f2:	bf00      	nop

004067f4 <__malloc_lock>:
  4067f4:	4801      	ldr	r0, [pc, #4]	; (4067fc <__malloc_lock+0x8>)
  4067f6:	f7ff bc97 	b.w	406128 <__retarget_lock_acquire_recursive>
  4067fa:	bf00      	nop
  4067fc:	20000ec0 	.word	0x20000ec0

00406800 <__malloc_unlock>:
  406800:	4801      	ldr	r0, [pc, #4]	; (406808 <__malloc_unlock+0x8>)
  406802:	f7ff bc93 	b.w	40612c <__retarget_lock_release_recursive>
  406806:	bf00      	nop
  406808:	20000ec0 	.word	0x20000ec0

0040680c <_Balloc>:
  40680c:	6cc3      	ldr	r3, [r0, #76]	; 0x4c
  40680e:	b570      	push	{r4, r5, r6, lr}
  406810:	4605      	mov	r5, r0
  406812:	460c      	mov	r4, r1
  406814:	b14b      	cbz	r3, 40682a <_Balloc+0x1e>
  406816:	f853 0024 	ldr.w	r0, [r3, r4, lsl #2]
  40681a:	b180      	cbz	r0, 40683e <_Balloc+0x32>
  40681c:	6802      	ldr	r2, [r0, #0]
  40681e:	f843 2024 	str.w	r2, [r3, r4, lsl #2]
  406822:	2300      	movs	r3, #0
  406824:	6103      	str	r3, [r0, #16]
  406826:	60c3      	str	r3, [r0, #12]
  406828:	bd70      	pop	{r4, r5, r6, pc}
  40682a:	2221      	movs	r2, #33	; 0x21
  40682c:	2104      	movs	r1, #4
  40682e:	f000 fd9d 	bl	40736c <_calloc_r>
  406832:	64e8      	str	r0, [r5, #76]	; 0x4c
  406834:	4603      	mov	r3, r0
  406836:	2800      	cmp	r0, #0
  406838:	d1ed      	bne.n	406816 <_Balloc+0xa>
  40683a:	2000      	movs	r0, #0
  40683c:	bd70      	pop	{r4, r5, r6, pc}
  40683e:	2101      	movs	r1, #1
  406840:	fa01 f604 	lsl.w	r6, r1, r4
  406844:	1d72      	adds	r2, r6, #5
  406846:	4628      	mov	r0, r5
  406848:	0092      	lsls	r2, r2, #2
  40684a:	f000 fd8f 	bl	40736c <_calloc_r>
  40684e:	2800      	cmp	r0, #0
  406850:	d0f3      	beq.n	40683a <_Balloc+0x2e>
  406852:	6044      	str	r4, [r0, #4]
  406854:	6086      	str	r6, [r0, #8]
  406856:	e7e4      	b.n	406822 <_Balloc+0x16>

00406858 <_Bfree>:
  406858:	b131      	cbz	r1, 406868 <_Bfree+0x10>
  40685a:	6cc3      	ldr	r3, [r0, #76]	; 0x4c
  40685c:	684a      	ldr	r2, [r1, #4]
  40685e:	f853 0022 	ldr.w	r0, [r3, r2, lsl #2]
  406862:	6008      	str	r0, [r1, #0]
  406864:	f843 1022 	str.w	r1, [r3, r2, lsl #2]
  406868:	4770      	bx	lr
  40686a:	bf00      	nop

0040686c <__multadd>:
  40686c:	b5f0      	push	{r4, r5, r6, r7, lr}
  40686e:	460c      	mov	r4, r1
  406870:	4605      	mov	r5, r0
  406872:	f04f 0e00 	mov.w	lr, #0
  406876:	690e      	ldr	r6, [r1, #16]
  406878:	b083      	sub	sp, #12
  40687a:	f101 0714 	add.w	r7, r1, #20
  40687e:	6838      	ldr	r0, [r7, #0]
  406880:	f10e 0e01 	add.w	lr, lr, #1
  406884:	b281      	uxth	r1, r0
  406886:	fb02 3301 	mla	r3, r2, r1, r3
  40688a:	0c01      	lsrs	r1, r0, #16
  40688c:	0c18      	lsrs	r0, r3, #16
  40688e:	fb02 0101 	mla	r1, r2, r1, r0
  406892:	b29b      	uxth	r3, r3
  406894:	eb03 4301 	add.w	r3, r3, r1, lsl #16
  406898:	4576      	cmp	r6, lr
  40689a:	f847 3b04 	str.w	r3, [r7], #4
  40689e:	ea4f 4311 	mov.w	r3, r1, lsr #16
  4068a2:	dcec      	bgt.n	40687e <__multadd+0x12>
  4068a4:	b13b      	cbz	r3, 4068b6 <__multadd+0x4a>
  4068a6:	68a2      	ldr	r2, [r4, #8]
  4068a8:	4296      	cmp	r6, r2
  4068aa:	da07      	bge.n	4068bc <__multadd+0x50>
  4068ac:	eb04 0286 	add.w	r2, r4, r6, lsl #2
  4068b0:	3601      	adds	r6, #1
  4068b2:	6153      	str	r3, [r2, #20]
  4068b4:	6126      	str	r6, [r4, #16]
  4068b6:	4620      	mov	r0, r4
  4068b8:	b003      	add	sp, #12
  4068ba:	bdf0      	pop	{r4, r5, r6, r7, pc}
  4068bc:	6861      	ldr	r1, [r4, #4]
  4068be:	4628      	mov	r0, r5
  4068c0:	3101      	adds	r1, #1
  4068c2:	9301      	str	r3, [sp, #4]
  4068c4:	f7ff ffa2 	bl	40680c <_Balloc>
  4068c8:	4607      	mov	r7, r0
  4068ca:	6922      	ldr	r2, [r4, #16]
  4068cc:	f104 010c 	add.w	r1, r4, #12
  4068d0:	3202      	adds	r2, #2
  4068d2:	0092      	lsls	r2, r2, #2
  4068d4:	300c      	adds	r0, #12
  4068d6:	f7fc febd 	bl	403654 <memcpy>
  4068da:	6cea      	ldr	r2, [r5, #76]	; 0x4c
  4068dc:	6861      	ldr	r1, [r4, #4]
  4068de:	9b01      	ldr	r3, [sp, #4]
  4068e0:	f852 0021 	ldr.w	r0, [r2, r1, lsl #2]
  4068e4:	6020      	str	r0, [r4, #0]
  4068e6:	f842 4021 	str.w	r4, [r2, r1, lsl #2]
  4068ea:	463c      	mov	r4, r7
  4068ec:	e7de      	b.n	4068ac <__multadd+0x40>
  4068ee:	bf00      	nop

004068f0 <__hi0bits>:
  4068f0:	0c02      	lsrs	r2, r0, #16
  4068f2:	0412      	lsls	r2, r2, #16
  4068f4:	4603      	mov	r3, r0
  4068f6:	b9b2      	cbnz	r2, 406926 <__hi0bits+0x36>
  4068f8:	0403      	lsls	r3, r0, #16
  4068fa:	2010      	movs	r0, #16
  4068fc:	f013 4f7f 	tst.w	r3, #4278190080	; 0xff000000
  406900:	bf04      	itt	eq
  406902:	021b      	lsleq	r3, r3, #8
  406904:	3008      	addeq	r0, #8
  406906:	f013 4f70 	tst.w	r3, #4026531840	; 0xf0000000
  40690a:	bf04      	itt	eq
  40690c:	011b      	lsleq	r3, r3, #4
  40690e:	3004      	addeq	r0, #4
  406910:	f013 4f40 	tst.w	r3, #3221225472	; 0xc0000000
  406914:	bf04      	itt	eq
  406916:	009b      	lsleq	r3, r3, #2
  406918:	3002      	addeq	r0, #2
  40691a:	2b00      	cmp	r3, #0
  40691c:	db02      	blt.n	406924 <__hi0bits+0x34>
  40691e:	005b      	lsls	r3, r3, #1
  406920:	d403      	bmi.n	40692a <__hi0bits+0x3a>
  406922:	2020      	movs	r0, #32
  406924:	4770      	bx	lr
  406926:	2000      	movs	r0, #0
  406928:	e7e8      	b.n	4068fc <__hi0bits+0xc>
  40692a:	3001      	adds	r0, #1
  40692c:	4770      	bx	lr
  40692e:	bf00      	nop

00406930 <__lo0bits>:
  406930:	6803      	ldr	r3, [r0, #0]
  406932:	4601      	mov	r1, r0
  406934:	f013 0207 	ands.w	r2, r3, #7
  406938:	d007      	beq.n	40694a <__lo0bits+0x1a>
  40693a:	07da      	lsls	r2, r3, #31
  40693c:	d421      	bmi.n	406982 <__lo0bits+0x52>
  40693e:	0798      	lsls	r0, r3, #30
  406940:	d421      	bmi.n	406986 <__lo0bits+0x56>
  406942:	089b      	lsrs	r3, r3, #2
  406944:	600b      	str	r3, [r1, #0]
  406946:	2002      	movs	r0, #2
  406948:	4770      	bx	lr
  40694a:	b298      	uxth	r0, r3
  40694c:	b198      	cbz	r0, 406976 <__lo0bits+0x46>
  40694e:	4610      	mov	r0, r2
  406950:	f013 0fff 	tst.w	r3, #255	; 0xff
  406954:	bf04      	itt	eq
  406956:	0a1b      	lsreq	r3, r3, #8
  406958:	3008      	addeq	r0, #8
  40695a:	071a      	lsls	r2, r3, #28
  40695c:	bf04      	itt	eq
  40695e:	091b      	lsreq	r3, r3, #4
  406960:	3004      	addeq	r0, #4
  406962:	079a      	lsls	r2, r3, #30
  406964:	bf04      	itt	eq
  406966:	089b      	lsreq	r3, r3, #2
  406968:	3002      	addeq	r0, #2
  40696a:	07da      	lsls	r2, r3, #31
  40696c:	d407      	bmi.n	40697e <__lo0bits+0x4e>
  40696e:	085b      	lsrs	r3, r3, #1
  406970:	d104      	bne.n	40697c <__lo0bits+0x4c>
  406972:	2020      	movs	r0, #32
  406974:	4770      	bx	lr
  406976:	0c1b      	lsrs	r3, r3, #16
  406978:	2010      	movs	r0, #16
  40697a:	e7e9      	b.n	406950 <__lo0bits+0x20>
  40697c:	3001      	adds	r0, #1
  40697e:	600b      	str	r3, [r1, #0]
  406980:	4770      	bx	lr
  406982:	2000      	movs	r0, #0
  406984:	4770      	bx	lr
  406986:	085b      	lsrs	r3, r3, #1
  406988:	600b      	str	r3, [r1, #0]
  40698a:	2001      	movs	r0, #1
  40698c:	4770      	bx	lr
  40698e:	bf00      	nop

00406990 <__i2b>:
  406990:	b510      	push	{r4, lr}
  406992:	460c      	mov	r4, r1
  406994:	2101      	movs	r1, #1
  406996:	f7ff ff39 	bl	40680c <_Balloc>
  40699a:	2201      	movs	r2, #1
  40699c:	6144      	str	r4, [r0, #20]
  40699e:	6102      	str	r2, [r0, #16]
  4069a0:	bd10      	pop	{r4, pc}
  4069a2:	bf00      	nop

004069a4 <__multiply>:
  4069a4:	e92d 4ff0 	stmdb	sp!, {r4, r5, r6, r7, r8, r9, sl, fp, lr}
  4069a8:	690c      	ldr	r4, [r1, #16]
  4069aa:	6915      	ldr	r5, [r2, #16]
  4069ac:	b083      	sub	sp, #12
  4069ae:	42ac      	cmp	r4, r5
  4069b0:	468b      	mov	fp, r1
  4069b2:	4616      	mov	r6, r2
  4069b4:	da04      	bge.n	4069c0 <__multiply+0x1c>
  4069b6:	4622      	mov	r2, r4
  4069b8:	46b3      	mov	fp, r6
  4069ba:	462c      	mov	r4, r5
  4069bc:	460e      	mov	r6, r1
  4069be:	4615      	mov	r5, r2
  4069c0:	f8db 3008 	ldr.w	r3, [fp, #8]
  4069c4:	eb04 0805 	add.w	r8, r4, r5
  4069c8:	f8db 1004 	ldr.w	r1, [fp, #4]
  4069cc:	4598      	cmp	r8, r3
  4069ce:	bfc8      	it	gt
  4069d0:	3101      	addgt	r1, #1
  4069d2:	f7ff ff1b 	bl	40680c <_Balloc>
  4069d6:	f100 0914 	add.w	r9, r0, #20
  4069da:	eb09 0a88 	add.w	sl, r9, r8, lsl #2
  4069de:	45d1      	cmp	r9, sl
  4069e0:	9000      	str	r0, [sp, #0]
  4069e2:	d205      	bcs.n	4069f0 <__multiply+0x4c>
  4069e4:	464b      	mov	r3, r9
  4069e6:	2100      	movs	r1, #0
  4069e8:	f843 1b04 	str.w	r1, [r3], #4
  4069ec:	459a      	cmp	sl, r3
  4069ee:	d8fb      	bhi.n	4069e8 <__multiply+0x44>
  4069f0:	f106 0c14 	add.w	ip, r6, #20
  4069f4:	eb0c 0385 	add.w	r3, ip, r5, lsl #2
  4069f8:	f10b 0b14 	add.w	fp, fp, #20
  4069fc:	459c      	cmp	ip, r3
  4069fe:	eb0b 0e84 	add.w	lr, fp, r4, lsl #2
  406a02:	d24b      	bcs.n	406a9c <__multiply+0xf8>
  406a04:	f8cd a004 	str.w	sl, [sp, #4]
  406a08:	469a      	mov	sl, r3
  406a0a:	f8dc 5000 	ldr.w	r5, [ip]
  406a0e:	b2af      	uxth	r7, r5
  406a10:	b1e7      	cbz	r7, 406a4c <__multiply+0xa8>
  406a12:	464d      	mov	r5, r9
  406a14:	465e      	mov	r6, fp
  406a16:	2100      	movs	r1, #0
  406a18:	f856 2b04 	ldr.w	r2, [r6], #4
  406a1c:	6828      	ldr	r0, [r5, #0]
  406a1e:	b293      	uxth	r3, r2
  406a20:	b284      	uxth	r4, r0
  406a22:	0c12      	lsrs	r2, r2, #16
  406a24:	fb07 4303 	mla	r3, r7, r3, r4
  406a28:	0c00      	lsrs	r0, r0, #16
  406a2a:	fb07 0202 	mla	r2, r7, r2, r0
  406a2e:	440b      	add	r3, r1
  406a30:	eb02 4113 	add.w	r1, r2, r3, lsr #16
  406a34:	b29b      	uxth	r3, r3
  406a36:	ea43 4301 	orr.w	r3, r3, r1, lsl #16
  406a3a:	45b6      	cmp	lr, r6
  406a3c:	f845 3b04 	str.w	r3, [r5], #4
  406a40:	ea4f 4111 	mov.w	r1, r1, lsr #16
  406a44:	d8e8      	bhi.n	406a18 <__multiply+0x74>
  406a46:	6029      	str	r1, [r5, #0]
  406a48:	f8dc 5000 	ldr.w	r5, [ip]
  406a4c:	0c2d      	lsrs	r5, r5, #16
  406a4e:	d01d      	beq.n	406a8c <__multiply+0xe8>
  406a50:	f8d9 3000 	ldr.w	r3, [r9]
  406a54:	4648      	mov	r0, r9
  406a56:	461c      	mov	r4, r3
  406a58:	4659      	mov	r1, fp
  406a5a:	2200      	movs	r2, #0
  406a5c:	880e      	ldrh	r6, [r1, #0]
  406a5e:	0c24      	lsrs	r4, r4, #16
  406a60:	fb05 4406 	mla	r4, r5, r6, r4
  406a64:	b29b      	uxth	r3, r3
  406a66:	4422      	add	r2, r4
  406a68:	ea43 4302 	orr.w	r3, r3, r2, lsl #16
  406a6c:	f840 3b04 	str.w	r3, [r0], #4
  406a70:	f851 3b04 	ldr.w	r3, [r1], #4
  406a74:	6804      	ldr	r4, [r0, #0]
  406a76:	0c1b      	lsrs	r3, r3, #16
  406a78:	b2a6      	uxth	r6, r4
  406a7a:	fb05 6303 	mla	r3, r5, r3, r6
  406a7e:	458e      	cmp	lr, r1
  406a80:	eb03 4312 	add.w	r3, r3, r2, lsr #16
  406a84:	ea4f 4213 	mov.w	r2, r3, lsr #16
  406a88:	d8e8      	bhi.n	406a5c <__multiply+0xb8>
  406a8a:	6003      	str	r3, [r0, #0]
  406a8c:	f10c 0c04 	add.w	ip, ip, #4
  406a90:	45e2      	cmp	sl, ip
  406a92:	f109 0904 	add.w	r9, r9, #4
  406a96:	d8b8      	bhi.n	406a0a <__multiply+0x66>
  406a98:	f8dd a004 	ldr.w	sl, [sp, #4]
  406a9c:	f1b8 0f00 	cmp.w	r8, #0
  406aa0:	dd0b      	ble.n	406aba <__multiply+0x116>
  406aa2:	f85a 3c04 	ldr.w	r3, [sl, #-4]
  406aa6:	f1aa 0a04 	sub.w	sl, sl, #4
  406aaa:	b11b      	cbz	r3, 406ab4 <__multiply+0x110>
  406aac:	e005      	b.n	406aba <__multiply+0x116>
  406aae:	f85a 3d04 	ldr.w	r3, [sl, #-4]!
  406ab2:	b913      	cbnz	r3, 406aba <__multiply+0x116>
  406ab4:	f1b8 0801 	subs.w	r8, r8, #1
  406ab8:	d1f9      	bne.n	406aae <__multiply+0x10a>
  406aba:	9800      	ldr	r0, [sp, #0]
  406abc:	f8c0 8010 	str.w	r8, [r0, #16]
  406ac0:	b003      	add	sp, #12
  406ac2:	e8bd 8ff0 	ldmia.w	sp!, {r4, r5, r6, r7, r8, r9, sl, fp, pc}
  406ac6:	bf00      	nop

00406ac8 <__pow5mult>:
  406ac8:	f012 0303 	ands.w	r3, r2, #3
  406acc:	e92d 41f0 	stmdb	sp!, {r4, r5, r6, r7, r8, lr}
  406ad0:	4614      	mov	r4, r2
  406ad2:	4607      	mov	r7, r0
  406ad4:	d12e      	bne.n	406b34 <__pow5mult+0x6c>
  406ad6:	460d      	mov	r5, r1
  406ad8:	10a4      	asrs	r4, r4, #2
  406ada:	d01c      	beq.n	406b16 <__pow5mult+0x4e>
  406adc:	6cbe      	ldr	r6, [r7, #72]	; 0x48
  406ade:	b396      	cbz	r6, 406b46 <__pow5mult+0x7e>
  406ae0:	07e3      	lsls	r3, r4, #31
  406ae2:	f04f 0800 	mov.w	r8, #0
  406ae6:	d406      	bmi.n	406af6 <__pow5mult+0x2e>
  406ae8:	1064      	asrs	r4, r4, #1
  406aea:	d014      	beq.n	406b16 <__pow5mult+0x4e>
  406aec:	6830      	ldr	r0, [r6, #0]
  406aee:	b1a8      	cbz	r0, 406b1c <__pow5mult+0x54>
  406af0:	4606      	mov	r6, r0
  406af2:	07e3      	lsls	r3, r4, #31
  406af4:	d5f8      	bpl.n	406ae8 <__pow5mult+0x20>
  406af6:	4632      	mov	r2, r6
  406af8:	4629      	mov	r1, r5
  406afa:	4638      	mov	r0, r7
  406afc:	f7ff ff52 	bl	4069a4 <__multiply>
  406b00:	b1b5      	cbz	r5, 406b30 <__pow5mult+0x68>
  406b02:	686a      	ldr	r2, [r5, #4]
  406b04:	6cfb      	ldr	r3, [r7, #76]	; 0x4c
  406b06:	1064      	asrs	r4, r4, #1
  406b08:	f853 1022 	ldr.w	r1, [r3, r2, lsl #2]
  406b0c:	6029      	str	r1, [r5, #0]
  406b0e:	f843 5022 	str.w	r5, [r3, r2, lsl #2]
  406b12:	4605      	mov	r5, r0
  406b14:	d1ea      	bne.n	406aec <__pow5mult+0x24>
  406b16:	4628      	mov	r0, r5
  406b18:	e8bd 81f0 	ldmia.w	sp!, {r4, r5, r6, r7, r8, pc}
  406b1c:	4632      	mov	r2, r6
  406b1e:	4631      	mov	r1, r6
  406b20:	4638      	mov	r0, r7
  406b22:	f7ff ff3f 	bl	4069a4 <__multiply>
  406b26:	6030      	str	r0, [r6, #0]
  406b28:	f8c0 8000 	str.w	r8, [r0]
  406b2c:	4606      	mov	r6, r0
  406b2e:	e7e0      	b.n	406af2 <__pow5mult+0x2a>
  406b30:	4605      	mov	r5, r0
  406b32:	e7d9      	b.n	406ae8 <__pow5mult+0x20>
  406b34:	4a0b      	ldr	r2, [pc, #44]	; (406b64 <__pow5mult+0x9c>)
  406b36:	3b01      	subs	r3, #1
  406b38:	f852 2023 	ldr.w	r2, [r2, r3, lsl #2]
  406b3c:	2300      	movs	r3, #0
  406b3e:	f7ff fe95 	bl	40686c <__multadd>
  406b42:	4605      	mov	r5, r0
  406b44:	e7c8      	b.n	406ad8 <__pow5mult+0x10>
  406b46:	2101      	movs	r1, #1
  406b48:	4638      	mov	r0, r7
  406b4a:	f7ff fe5f 	bl	40680c <_Balloc>
  406b4e:	f240 2171 	movw	r1, #625	; 0x271
  406b52:	2201      	movs	r2, #1
  406b54:	2300      	movs	r3, #0
  406b56:	6141      	str	r1, [r0, #20]
  406b58:	6102      	str	r2, [r0, #16]
  406b5a:	4606      	mov	r6, r0
  406b5c:	64b8      	str	r0, [r7, #72]	; 0x48
  406b5e:	6003      	str	r3, [r0, #0]
  406b60:	e7be      	b.n	406ae0 <__pow5mult+0x18>
  406b62:	bf00      	nop
  406b64:	004082c8 	.word	0x004082c8

00406b68 <__lshift>:
  406b68:	e92d 43f8 	stmdb	sp!, {r3, r4, r5, r6, r7, r8, r9, lr}
  406b6c:	690b      	ldr	r3, [r1, #16]
  406b6e:	1154      	asrs	r4, r2, #5
  406b70:	eb04 0803 	add.w	r8, r4, r3
  406b74:	688b      	ldr	r3, [r1, #8]
  406b76:	f108 0501 	add.w	r5, r8, #1
  406b7a:	429d      	cmp	r5, r3
  406b7c:	460e      	mov	r6, r1
  406b7e:	4691      	mov	r9, r2
  406b80:	4607      	mov	r7, r0
  406b82:	6849      	ldr	r1, [r1, #4]
  406b84:	dd04      	ble.n	406b90 <__lshift+0x28>
  406b86:	005b      	lsls	r3, r3, #1
  406b88:	429d      	cmp	r5, r3
  406b8a:	f101 0101 	add.w	r1, r1, #1
  406b8e:	dcfa      	bgt.n	406b86 <__lshift+0x1e>
  406b90:	4638      	mov	r0, r7
  406b92:	f7ff fe3b 	bl	40680c <_Balloc>
  406b96:	2c00      	cmp	r4, #0
  406b98:	f100 0314 	add.w	r3, r0, #20
  406b9c:	dd06      	ble.n	406bac <__lshift+0x44>
  406b9e:	2100      	movs	r1, #0
  406ba0:	eb03 0284 	add.w	r2, r3, r4, lsl #2
  406ba4:	f843 1b04 	str.w	r1, [r3], #4
  406ba8:	429a      	cmp	r2, r3
  406baa:	d1fb      	bne.n	406ba4 <__lshift+0x3c>
  406bac:	6934      	ldr	r4, [r6, #16]
  406bae:	f106 0114 	add.w	r1, r6, #20
  406bb2:	f019 091f 	ands.w	r9, r9, #31
  406bb6:	eb01 0e84 	add.w	lr, r1, r4, lsl #2
  406bba:	d01d      	beq.n	406bf8 <__lshift+0x90>
  406bbc:	2200      	movs	r2, #0
  406bbe:	f1c9 0c20 	rsb	ip, r9, #32
  406bc2:	680c      	ldr	r4, [r1, #0]
  406bc4:	fa04 f409 	lsl.w	r4, r4, r9
  406bc8:	4314      	orrs	r4, r2
  406bca:	f843 4b04 	str.w	r4, [r3], #4
  406bce:	f851 2b04 	ldr.w	r2, [r1], #4
  406bd2:	458e      	cmp	lr, r1
  406bd4:	fa22 f20c 	lsr.w	r2, r2, ip
  406bd8:	d8f3      	bhi.n	406bc2 <__lshift+0x5a>
  406bda:	601a      	str	r2, [r3, #0]
  406bdc:	b10a      	cbz	r2, 406be2 <__lshift+0x7a>
  406bde:	f108 0502 	add.w	r5, r8, #2
  406be2:	6cfb      	ldr	r3, [r7, #76]	; 0x4c
  406be4:	6872      	ldr	r2, [r6, #4]
  406be6:	3d01      	subs	r5, #1
  406be8:	f853 1022 	ldr.w	r1, [r3, r2, lsl #2]
  406bec:	6105      	str	r5, [r0, #16]
  406bee:	6031      	str	r1, [r6, #0]
  406bf0:	f843 6022 	str.w	r6, [r3, r2, lsl #2]
  406bf4:	e8bd 83f8 	ldmia.w	sp!, {r3, r4, r5, r6, r7, r8, r9, pc}
  406bf8:	3b04      	subs	r3, #4
  406bfa:	f851 2b04 	ldr.w	r2, [r1], #4
  406bfe:	458e      	cmp	lr, r1
  406c00:	f843 2f04 	str.w	r2, [r3, #4]!
  406c04:	d8f9      	bhi.n	406bfa <__lshift+0x92>
  406c06:	e7ec      	b.n	406be2 <__lshift+0x7a>

00406c08 <__mcmp>:
  406c08:	b430      	push	{r4, r5}
  406c0a:	690b      	ldr	r3, [r1, #16]
  406c0c:	4605      	mov	r5, r0
  406c0e:	6900      	ldr	r0, [r0, #16]
  406c10:	1ac0      	subs	r0, r0, r3
  406c12:	d10f      	bne.n	406c34 <__mcmp+0x2c>
  406c14:	009b      	lsls	r3, r3, #2
  406c16:	3514      	adds	r5, #20
  406c18:	3114      	adds	r1, #20
  406c1a:	4419      	add	r1, r3
  406c1c:	442b      	add	r3, r5
  406c1e:	e001      	b.n	406c24 <__mcmp+0x1c>
  406c20:	429d      	cmp	r5, r3
  406c22:	d207      	bcs.n	406c34 <__mcmp+0x2c>
  406c24:	f853 4d04 	ldr.w	r4, [r3, #-4]!
  406c28:	f851 2d04 	ldr.w	r2, [r1, #-4]!
  406c2c:	4294      	cmp	r4, r2
  406c2e:	d0f7      	beq.n	406c20 <__mcmp+0x18>
  406c30:	d302      	bcc.n	406c38 <__mcmp+0x30>
  406c32:	2001      	movs	r0, #1
  406c34:	bc30      	pop	{r4, r5}
  406c36:	4770      	bx	lr
  406c38:	f04f 30ff 	mov.w	r0, #4294967295
  406c3c:	e7fa      	b.n	406c34 <__mcmp+0x2c>
  406c3e:	bf00      	nop

00406c40 <__mdiff>:
  406c40:	e92d 4ff8 	stmdb	sp!, {r3, r4, r5, r6, r7, r8, r9, sl, fp, lr}
  406c44:	690c      	ldr	r4, [r1, #16]
  406c46:	4689      	mov	r9, r1
  406c48:	6911      	ldr	r1, [r2, #16]
  406c4a:	4692      	mov	sl, r2
  406c4c:	1a64      	subs	r4, r4, r1
  406c4e:	2c00      	cmp	r4, #0
  406c50:	d117      	bne.n	406c82 <__mdiff+0x42>
  406c52:	0089      	lsls	r1, r1, #2
  406c54:	f109 0714 	add.w	r7, r9, #20
  406c58:	f102 0614 	add.w	r6, r2, #20
  406c5c:	187b      	adds	r3, r7, r1
  406c5e:	4431      	add	r1, r6
  406c60:	e001      	b.n	406c66 <__mdiff+0x26>
  406c62:	429f      	cmp	r7, r3
  406c64:	d265      	bcs.n	406d32 <__mdiff+0xf2>
  406c66:	f853 5d04 	ldr.w	r5, [r3, #-4]!
  406c6a:	f851 2d04 	ldr.w	r2, [r1, #-4]!
  406c6e:	4295      	cmp	r5, r2
  406c70:	d0f7      	beq.n	406c62 <__mdiff+0x22>
  406c72:	d267      	bcs.n	406d44 <__mdiff+0x104>
  406c74:	464b      	mov	r3, r9
  406c76:	46bb      	mov	fp, r7
  406c78:	46d1      	mov	r9, sl
  406c7a:	4637      	mov	r7, r6
  406c7c:	469a      	mov	sl, r3
  406c7e:	2401      	movs	r4, #1
  406c80:	e005      	b.n	406c8e <__mdiff+0x4e>
  406c82:	db61      	blt.n	406d48 <__mdiff+0x108>
  406c84:	2400      	movs	r4, #0
  406c86:	f109 0714 	add.w	r7, r9, #20
  406c8a:	f10a 0b14 	add.w	fp, sl, #20
  406c8e:	f8d9 1004 	ldr.w	r1, [r9, #4]
  406c92:	f7ff fdbb 	bl	40680c <_Balloc>
  406c96:	465d      	mov	r5, fp
  406c98:	f04f 0800 	mov.w	r8, #0
  406c9c:	f8d9 e010 	ldr.w	lr, [r9, #16]
  406ca0:	f8da 3010 	ldr.w	r3, [sl, #16]
  406ca4:	463e      	mov	r6, r7
  406ca6:	60c4      	str	r4, [r0, #12]
  406ca8:	eb0b 0c83 	add.w	ip, fp, r3, lsl #2
  406cac:	eb07 078e 	add.w	r7, r7, lr, lsl #2
  406cb0:	f100 0414 	add.w	r4, r0, #20
  406cb4:	f856 9b04 	ldr.w	r9, [r6], #4
  406cb8:	f855 2b04 	ldr.w	r2, [r5], #4
  406cbc:	fa1f f389 	uxth.w	r3, r9
  406cc0:	4443      	add	r3, r8
  406cc2:	fa1f f882 	uxth.w	r8, r2
  406cc6:	0c12      	lsrs	r2, r2, #16
  406cc8:	eba3 0308 	sub.w	r3, r3, r8
  406ccc:	ebc2 4219 	rsb	r2, r2, r9, lsr #16
  406cd0:	eb02 4223 	add.w	r2, r2, r3, asr #16
  406cd4:	b29b      	uxth	r3, r3
  406cd6:	ea43 4302 	orr.w	r3, r3, r2, lsl #16
  406cda:	45ac      	cmp	ip, r5
  406cdc:	f844 3b04 	str.w	r3, [r4], #4
  406ce0:	ea4f 4822 	mov.w	r8, r2, asr #16
  406ce4:	d8e6      	bhi.n	406cb4 <__mdiff+0x74>
  406ce6:	42b7      	cmp	r7, r6
  406ce8:	d917      	bls.n	406d1a <__mdiff+0xda>
  406cea:	46a4      	mov	ip, r4
  406cec:	4635      	mov	r5, r6
  406cee:	f855 3b04 	ldr.w	r3, [r5], #4
  406cf2:	b299      	uxth	r1, r3
  406cf4:	4441      	add	r1, r8
  406cf6:	140a      	asrs	r2, r1, #16
  406cf8:	eb02 4213 	add.w	r2, r2, r3, lsr #16
  406cfc:	b289      	uxth	r1, r1
  406cfe:	ea41 4302 	orr.w	r3, r1, r2, lsl #16
  406d02:	42af      	cmp	r7, r5
  406d04:	f84c 3b04 	str.w	r3, [ip], #4
  406d08:	ea4f 4822 	mov.w	r8, r2, asr #16
  406d0c:	d8ef      	bhi.n	406cee <__mdiff+0xae>
  406d0e:	43f6      	mvns	r6, r6
  406d10:	4437      	add	r7, r6
  406d12:	f027 0703 	bic.w	r7, r7, #3
  406d16:	3704      	adds	r7, #4
  406d18:	443c      	add	r4, r7
  406d1a:	3c04      	subs	r4, #4
  406d1c:	b92b      	cbnz	r3, 406d2a <__mdiff+0xea>
  406d1e:	f854 3d04 	ldr.w	r3, [r4, #-4]!
  406d22:	f10e 3eff 	add.w	lr, lr, #4294967295
  406d26:	2b00      	cmp	r3, #0
  406d28:	d0f9      	beq.n	406d1e <__mdiff+0xde>
  406d2a:	f8c0 e010 	str.w	lr, [r0, #16]
  406d2e:	e8bd 8ff8 	ldmia.w	sp!, {r3, r4, r5, r6, r7, r8, r9, sl, fp, pc}
  406d32:	2100      	movs	r1, #0
  406d34:	f7ff fd6a 	bl	40680c <_Balloc>
  406d38:	2201      	movs	r2, #1
  406d3a:	2300      	movs	r3, #0
  406d3c:	6102      	str	r2, [r0, #16]
  406d3e:	6143      	str	r3, [r0, #20]
  406d40:	e8bd 8ff8 	ldmia.w	sp!, {r3, r4, r5, r6, r7, r8, r9, sl, fp, pc}
  406d44:	46b3      	mov	fp, r6
  406d46:	e7a2      	b.n	406c8e <__mdiff+0x4e>
  406d48:	464b      	mov	r3, r9
  406d4a:	f109 0b14 	add.w	fp, r9, #20
  406d4e:	f102 0714 	add.w	r7, r2, #20
  406d52:	4691      	mov	r9, r2
  406d54:	2401      	movs	r4, #1
  406d56:	469a      	mov	sl, r3
  406d58:	e799      	b.n	406c8e <__mdiff+0x4e>
  406d5a:	bf00      	nop

00406d5c <__d2b>:
  406d5c:	b5f0      	push	{r4, r5, r6, r7, lr}
  406d5e:	2101      	movs	r1, #1
  406d60:	b083      	sub	sp, #12
  406d62:	461c      	mov	r4, r3
  406d64:	f3c3 550a 	ubfx	r5, r3, #20, #11
  406d68:	4616      	mov	r6, r2
  406d6a:	f7ff fd4f 	bl	40680c <_Balloc>
  406d6e:	f3c4 0413 	ubfx	r4, r4, #0, #20
  406d72:	4607      	mov	r7, r0
  406d74:	b10d      	cbz	r5, 406d7a <__d2b+0x1e>
  406d76:	f444 1480 	orr.w	r4, r4, #1048576	; 0x100000
  406d7a:	9401      	str	r4, [sp, #4]
  406d7c:	b306      	cbz	r6, 406dc0 <__d2b+0x64>
  406d7e:	a802      	add	r0, sp, #8
  406d80:	f840 6d08 	str.w	r6, [r0, #-8]!
  406d84:	f7ff fdd4 	bl	406930 <__lo0bits>
  406d88:	2800      	cmp	r0, #0
  406d8a:	d130      	bne.n	406dee <__d2b+0x92>
  406d8c:	e89d 000c 	ldmia.w	sp, {r2, r3}
  406d90:	617a      	str	r2, [r7, #20]
  406d92:	2b00      	cmp	r3, #0
  406d94:	bf0c      	ite	eq
  406d96:	2101      	moveq	r1, #1
  406d98:	2102      	movne	r1, #2
  406d9a:	61bb      	str	r3, [r7, #24]
  406d9c:	6139      	str	r1, [r7, #16]
  406d9e:	b9d5      	cbnz	r5, 406dd6 <__d2b+0x7a>
  406da0:	9a08      	ldr	r2, [sp, #32]
  406da2:	eb07 0381 	add.w	r3, r7, r1, lsl #2
  406da6:	f2a0 4032 	subw	r0, r0, #1074	; 0x432
  406daa:	6010      	str	r0, [r2, #0]
  406dac:	6918      	ldr	r0, [r3, #16]
  406dae:	f7ff fd9f 	bl	4068f0 <__hi0bits>
  406db2:	9b09      	ldr	r3, [sp, #36]	; 0x24
  406db4:	ebc0 1041 	rsb	r0, r0, r1, lsl #5
  406db8:	6018      	str	r0, [r3, #0]
  406dba:	4638      	mov	r0, r7
  406dbc:	b003      	add	sp, #12
  406dbe:	bdf0      	pop	{r4, r5, r6, r7, pc}
  406dc0:	a801      	add	r0, sp, #4
  406dc2:	f7ff fdb5 	bl	406930 <__lo0bits>
  406dc6:	2201      	movs	r2, #1
  406dc8:	9b01      	ldr	r3, [sp, #4]
  406dca:	4611      	mov	r1, r2
  406dcc:	3020      	adds	r0, #32
  406dce:	613a      	str	r2, [r7, #16]
  406dd0:	617b      	str	r3, [r7, #20]
  406dd2:	2d00      	cmp	r5, #0
  406dd4:	d0e4      	beq.n	406da0 <__d2b+0x44>
  406dd6:	f2a5 4333 	subw	r3, r5, #1075	; 0x433
  406dda:	9a08      	ldr	r2, [sp, #32]
  406ddc:	4403      	add	r3, r0
  406dde:	6013      	str	r3, [r2, #0]
  406de0:	9b09      	ldr	r3, [sp, #36]	; 0x24
  406de2:	f1c0 0035 	rsb	r0, r0, #53	; 0x35
  406de6:	6018      	str	r0, [r3, #0]
  406de8:	4638      	mov	r0, r7
  406dea:	b003      	add	sp, #12
  406dec:	bdf0      	pop	{r4, r5, r6, r7, pc}
  406dee:	9b01      	ldr	r3, [sp, #4]
  406df0:	f1c0 0220 	rsb	r2, r0, #32
  406df4:	9900      	ldr	r1, [sp, #0]
  406df6:	fa03 f202 	lsl.w	r2, r3, r2
  406dfa:	430a      	orrs	r2, r1
  406dfc:	40c3      	lsrs	r3, r0
  406dfe:	9301      	str	r3, [sp, #4]
  406e00:	617a      	str	r2, [r7, #20]
  406e02:	e7c6      	b.n	406d92 <__d2b+0x36>

00406e04 <_realloc_r>:
  406e04:	2900      	cmp	r1, #0
  406e06:	f000 8094 	beq.w	406f32 <_realloc_r+0x12e>
  406e0a:	e92d 4ff0 	stmdb	sp!, {r4, r5, r6, r7, r8, r9, sl, fp, lr}
  406e0e:	460c      	mov	r4, r1
  406e10:	4615      	mov	r5, r2
  406e12:	b083      	sub	sp, #12
  406e14:	4680      	mov	r8, r0
  406e16:	f105 060b 	add.w	r6, r5, #11
  406e1a:	f7ff fceb 	bl	4067f4 <__malloc_lock>
  406e1e:	f854 ec04 	ldr.w	lr, [r4, #-4]
  406e22:	2e16      	cmp	r6, #22
  406e24:	f02e 0703 	bic.w	r7, lr, #3
  406e28:	f1a4 0908 	sub.w	r9, r4, #8
  406e2c:	d83c      	bhi.n	406ea8 <_realloc_r+0xa4>
  406e2e:	2210      	movs	r2, #16
  406e30:	4616      	mov	r6, r2
  406e32:	42b5      	cmp	r5, r6
  406e34:	d83d      	bhi.n	406eb2 <_realloc_r+0xae>
  406e36:	4297      	cmp	r7, r2
  406e38:	da43      	bge.n	406ec2 <_realloc_r+0xbe>
  406e3a:	4bc6      	ldr	r3, [pc, #792]	; (407154 <_realloc_r+0x350>)
  406e3c:	eb09 0007 	add.w	r0, r9, r7
  406e40:	6899      	ldr	r1, [r3, #8]
  406e42:	4288      	cmp	r0, r1
  406e44:	f000 80c3 	beq.w	406fce <_realloc_r+0x1ca>
  406e48:	6843      	ldr	r3, [r0, #4]
  406e4a:	f023 0101 	bic.w	r1, r3, #1
  406e4e:	4401      	add	r1, r0
  406e50:	6849      	ldr	r1, [r1, #4]
  406e52:	07c9      	lsls	r1, r1, #31
  406e54:	d54d      	bpl.n	406ef2 <_realloc_r+0xee>
  406e56:	f01e 0f01 	tst.w	lr, #1
  406e5a:	f000 809b 	beq.w	406f94 <_realloc_r+0x190>
  406e5e:	4629      	mov	r1, r5
  406e60:	4640      	mov	r0, r8
  406e62:	f7ff f965 	bl	406130 <_malloc_r>
  406e66:	4605      	mov	r5, r0
  406e68:	2800      	cmp	r0, #0
  406e6a:	d03b      	beq.n	406ee4 <_realloc_r+0xe0>
  406e6c:	f854 3c04 	ldr.w	r3, [r4, #-4]
  406e70:	f1a0 0208 	sub.w	r2, r0, #8
  406e74:	f023 0301 	bic.w	r3, r3, #1
  406e78:	444b      	add	r3, r9
  406e7a:	429a      	cmp	r2, r3
  406e7c:	f000 812b 	beq.w	4070d6 <_realloc_r+0x2d2>
  406e80:	1f3a      	subs	r2, r7, #4
  406e82:	2a24      	cmp	r2, #36	; 0x24
  406e84:	f200 8118 	bhi.w	4070b8 <_realloc_r+0x2b4>
  406e88:	2a13      	cmp	r2, #19
  406e8a:	f200 80eb 	bhi.w	407064 <_realloc_r+0x260>
  406e8e:	4603      	mov	r3, r0
  406e90:	4622      	mov	r2, r4
  406e92:	6811      	ldr	r1, [r2, #0]
  406e94:	6019      	str	r1, [r3, #0]
  406e96:	6851      	ldr	r1, [r2, #4]
  406e98:	6059      	str	r1, [r3, #4]
  406e9a:	6892      	ldr	r2, [r2, #8]
  406e9c:	609a      	str	r2, [r3, #8]
  406e9e:	4621      	mov	r1, r4
  406ea0:	4640      	mov	r0, r8
  406ea2:	f7ff f849 	bl	405f38 <_free_r>
  406ea6:	e01d      	b.n	406ee4 <_realloc_r+0xe0>
  406ea8:	f026 0607 	bic.w	r6, r6, #7
  406eac:	2e00      	cmp	r6, #0
  406eae:	4632      	mov	r2, r6
  406eb0:	dabf      	bge.n	406e32 <_realloc_r+0x2e>
  406eb2:	2500      	movs	r5, #0
  406eb4:	230c      	movs	r3, #12
  406eb6:	4628      	mov	r0, r5
  406eb8:	f8c8 3000 	str.w	r3, [r8]
  406ebc:	b003      	add	sp, #12
  406ebe:	e8bd 8ff0 	ldmia.w	sp!, {r4, r5, r6, r7, r8, r9, sl, fp, pc}
  406ec2:	4625      	mov	r5, r4
  406ec4:	1bbb      	subs	r3, r7, r6
  406ec6:	2b0f      	cmp	r3, #15
  406ec8:	f8d9 2004 	ldr.w	r2, [r9, #4]
  406ecc:	d81d      	bhi.n	406f0a <_realloc_r+0x106>
  406ece:	f002 0201 	and.w	r2, r2, #1
  406ed2:	433a      	orrs	r2, r7
  406ed4:	eb09 0107 	add.w	r1, r9, r7
  406ed8:	f8c9 2004 	str.w	r2, [r9, #4]
  406edc:	684b      	ldr	r3, [r1, #4]
  406ede:	f043 0301 	orr.w	r3, r3, #1
  406ee2:	604b      	str	r3, [r1, #4]
  406ee4:	4640      	mov	r0, r8
  406ee6:	f7ff fc8b 	bl	406800 <__malloc_unlock>
  406eea:	4628      	mov	r0, r5
  406eec:	b003      	add	sp, #12
  406eee:	e8bd 8ff0 	ldmia.w	sp!, {r4, r5, r6, r7, r8, r9, sl, fp, pc}
  406ef2:	f023 0303 	bic.w	r3, r3, #3
  406ef6:	18f9      	adds	r1, r7, r3
  406ef8:	4291      	cmp	r1, r2
  406efa:	db1d      	blt.n	406f38 <_realloc_r+0x134>
  406efc:	68c3      	ldr	r3, [r0, #12]
  406efe:	6882      	ldr	r2, [r0, #8]
  406f00:	4625      	mov	r5, r4
  406f02:	60d3      	str	r3, [r2, #12]
  406f04:	460f      	mov	r7, r1
  406f06:	609a      	str	r2, [r3, #8]
  406f08:	e7dc      	b.n	406ec4 <_realloc_r+0xc0>
  406f0a:	f002 0201 	and.w	r2, r2, #1
  406f0e:	eb09 0106 	add.w	r1, r9, r6
  406f12:	f043 0301 	orr.w	r3, r3, #1
  406f16:	4332      	orrs	r2, r6
  406f18:	f8c9 2004 	str.w	r2, [r9, #4]
  406f1c:	444f      	add	r7, r9
  406f1e:	604b      	str	r3, [r1, #4]
  406f20:	687b      	ldr	r3, [r7, #4]
  406f22:	3108      	adds	r1, #8
  406f24:	f043 0301 	orr.w	r3, r3, #1
  406f28:	607b      	str	r3, [r7, #4]
  406f2a:	4640      	mov	r0, r8
  406f2c:	f7ff f804 	bl	405f38 <_free_r>
  406f30:	e7d8      	b.n	406ee4 <_realloc_r+0xe0>
  406f32:	4611      	mov	r1, r2
  406f34:	f7ff b8fc 	b.w	406130 <_malloc_r>
  406f38:	f01e 0f01 	tst.w	lr, #1
  406f3c:	d18f      	bne.n	406e5e <_realloc_r+0x5a>
  406f3e:	f854 1c08 	ldr.w	r1, [r4, #-8]
  406f42:	eba9 0a01 	sub.w	sl, r9, r1
  406f46:	f8da 1004 	ldr.w	r1, [sl, #4]
  406f4a:	f021 0103 	bic.w	r1, r1, #3
  406f4e:	440b      	add	r3, r1
  406f50:	443b      	add	r3, r7
  406f52:	4293      	cmp	r3, r2
  406f54:	db26      	blt.n	406fa4 <_realloc_r+0x1a0>
  406f56:	4655      	mov	r5, sl
  406f58:	68c1      	ldr	r1, [r0, #12]
  406f5a:	6880      	ldr	r0, [r0, #8]
  406f5c:	1f3a      	subs	r2, r7, #4
  406f5e:	60c1      	str	r1, [r0, #12]
  406f60:	6088      	str	r0, [r1, #8]
  406f62:	f855 0f08 	ldr.w	r0, [r5, #8]!
  406f66:	f8da 100c 	ldr.w	r1, [sl, #12]
  406f6a:	2a24      	cmp	r2, #36	; 0x24
  406f6c:	60c1      	str	r1, [r0, #12]
  406f6e:	6088      	str	r0, [r1, #8]
  406f70:	d826      	bhi.n	406fc0 <_realloc_r+0x1bc>
  406f72:	2a13      	cmp	r2, #19
  406f74:	f240 8081 	bls.w	40707a <_realloc_r+0x276>
  406f78:	6821      	ldr	r1, [r4, #0]
  406f7a:	2a1b      	cmp	r2, #27
  406f7c:	f8ca 1008 	str.w	r1, [sl, #8]
  406f80:	6861      	ldr	r1, [r4, #4]
  406f82:	f8ca 100c 	str.w	r1, [sl, #12]
  406f86:	f200 80ad 	bhi.w	4070e4 <_realloc_r+0x2e0>
  406f8a:	f104 0008 	add.w	r0, r4, #8
  406f8e:	f10a 0210 	add.w	r2, sl, #16
  406f92:	e074      	b.n	40707e <_realloc_r+0x27a>
  406f94:	f854 3c08 	ldr.w	r3, [r4, #-8]
  406f98:	eba9 0a03 	sub.w	sl, r9, r3
  406f9c:	f8da 1004 	ldr.w	r1, [sl, #4]
  406fa0:	f021 0103 	bic.w	r1, r1, #3
  406fa4:	187b      	adds	r3, r7, r1
  406fa6:	4293      	cmp	r3, r2
  406fa8:	f6ff af59 	blt.w	406e5e <_realloc_r+0x5a>
  406fac:	4655      	mov	r5, sl
  406fae:	f8da 100c 	ldr.w	r1, [sl, #12]
  406fb2:	f855 0f08 	ldr.w	r0, [r5, #8]!
  406fb6:	1f3a      	subs	r2, r7, #4
  406fb8:	2a24      	cmp	r2, #36	; 0x24
  406fba:	60c1      	str	r1, [r0, #12]
  406fbc:	6088      	str	r0, [r1, #8]
  406fbe:	d9d8      	bls.n	406f72 <_realloc_r+0x16e>
  406fc0:	4621      	mov	r1, r4
  406fc2:	4628      	mov	r0, r5
  406fc4:	461f      	mov	r7, r3
  406fc6:	46d1      	mov	r9, sl
  406fc8:	f7ff fbb0 	bl	40672c <memmove>
  406fcc:	e77a      	b.n	406ec4 <_realloc_r+0xc0>
  406fce:	6841      	ldr	r1, [r0, #4]
  406fd0:	f106 0010 	add.w	r0, r6, #16
  406fd4:	f021 0b03 	bic.w	fp, r1, #3
  406fd8:	44bb      	add	fp, r7
  406fda:	4583      	cmp	fp, r0
  406fdc:	da58      	bge.n	407090 <_realloc_r+0x28c>
  406fde:	f01e 0f01 	tst.w	lr, #1
  406fe2:	f47f af3c 	bne.w	406e5e <_realloc_r+0x5a>
  406fe6:	f854 1c08 	ldr.w	r1, [r4, #-8]
  406fea:	eba9 0a01 	sub.w	sl, r9, r1
  406fee:	f8da 1004 	ldr.w	r1, [sl, #4]
  406ff2:	f021 0103 	bic.w	r1, r1, #3
  406ff6:	448b      	add	fp, r1
  406ff8:	4558      	cmp	r0, fp
  406ffa:	dcd3      	bgt.n	406fa4 <_realloc_r+0x1a0>
  406ffc:	4655      	mov	r5, sl
  406ffe:	f8da 100c 	ldr.w	r1, [sl, #12]
  407002:	f855 0f08 	ldr.w	r0, [r5, #8]!
  407006:	1f3a      	subs	r2, r7, #4
  407008:	2a24      	cmp	r2, #36	; 0x24
  40700a:	60c1      	str	r1, [r0, #12]
  40700c:	6088      	str	r0, [r1, #8]
  40700e:	f200 808d 	bhi.w	40712c <_realloc_r+0x328>
  407012:	2a13      	cmp	r2, #19
  407014:	f240 8087 	bls.w	407126 <_realloc_r+0x322>
  407018:	6821      	ldr	r1, [r4, #0]
  40701a:	2a1b      	cmp	r2, #27
  40701c:	f8ca 1008 	str.w	r1, [sl, #8]
  407020:	6861      	ldr	r1, [r4, #4]
  407022:	f8ca 100c 	str.w	r1, [sl, #12]
  407026:	f200 8088 	bhi.w	40713a <_realloc_r+0x336>
  40702a:	f104 0108 	add.w	r1, r4, #8
  40702e:	f10a 0210 	add.w	r2, sl, #16
  407032:	6808      	ldr	r0, [r1, #0]
  407034:	6010      	str	r0, [r2, #0]
  407036:	6848      	ldr	r0, [r1, #4]
  407038:	6050      	str	r0, [r2, #4]
  40703a:	6889      	ldr	r1, [r1, #8]
  40703c:	6091      	str	r1, [r2, #8]
  40703e:	ebab 0206 	sub.w	r2, fp, r6
  407042:	eb0a 0106 	add.w	r1, sl, r6
  407046:	f042 0201 	orr.w	r2, r2, #1
  40704a:	6099      	str	r1, [r3, #8]
  40704c:	604a      	str	r2, [r1, #4]
  40704e:	f8da 3004 	ldr.w	r3, [sl, #4]
  407052:	4640      	mov	r0, r8
  407054:	f003 0301 	and.w	r3, r3, #1
  407058:	431e      	orrs	r6, r3
  40705a:	f8ca 6004 	str.w	r6, [sl, #4]
  40705e:	f7ff fbcf 	bl	406800 <__malloc_unlock>
  407062:	e742      	b.n	406eea <_realloc_r+0xe6>
  407064:	6823      	ldr	r3, [r4, #0]
  407066:	2a1b      	cmp	r2, #27
  407068:	6003      	str	r3, [r0, #0]
  40706a:	6863      	ldr	r3, [r4, #4]
  40706c:	6043      	str	r3, [r0, #4]
  40706e:	d827      	bhi.n	4070c0 <_realloc_r+0x2bc>
  407070:	f100 0308 	add.w	r3, r0, #8
  407074:	f104 0208 	add.w	r2, r4, #8
  407078:	e70b      	b.n	406e92 <_realloc_r+0x8e>
  40707a:	4620      	mov	r0, r4
  40707c:	462a      	mov	r2, r5
  40707e:	6801      	ldr	r1, [r0, #0]
  407080:	461f      	mov	r7, r3
  407082:	6011      	str	r1, [r2, #0]
  407084:	6841      	ldr	r1, [r0, #4]
  407086:	46d1      	mov	r9, sl
  407088:	6051      	str	r1, [r2, #4]
  40708a:	6883      	ldr	r3, [r0, #8]
  40708c:	6093      	str	r3, [r2, #8]
  40708e:	e719      	b.n	406ec4 <_realloc_r+0xc0>
  407090:	ebab 0b06 	sub.w	fp, fp, r6
  407094:	eb09 0106 	add.w	r1, r9, r6
  407098:	f04b 0201 	orr.w	r2, fp, #1
  40709c:	6099      	str	r1, [r3, #8]
  40709e:	604a      	str	r2, [r1, #4]
  4070a0:	f854 3c04 	ldr.w	r3, [r4, #-4]
  4070a4:	4640      	mov	r0, r8
  4070a6:	f003 0301 	and.w	r3, r3, #1
  4070aa:	431e      	orrs	r6, r3
  4070ac:	f844 6c04 	str.w	r6, [r4, #-4]
  4070b0:	f7ff fba6 	bl	406800 <__malloc_unlock>
  4070b4:	4625      	mov	r5, r4
  4070b6:	e718      	b.n	406eea <_realloc_r+0xe6>
  4070b8:	4621      	mov	r1, r4
  4070ba:	f7ff fb37 	bl	40672c <memmove>
  4070be:	e6ee      	b.n	406e9e <_realloc_r+0x9a>
  4070c0:	68a3      	ldr	r3, [r4, #8]
  4070c2:	2a24      	cmp	r2, #36	; 0x24
  4070c4:	6083      	str	r3, [r0, #8]
  4070c6:	68e3      	ldr	r3, [r4, #12]
  4070c8:	60c3      	str	r3, [r0, #12]
  4070ca:	d018      	beq.n	4070fe <_realloc_r+0x2fa>
  4070cc:	f100 0310 	add.w	r3, r0, #16
  4070d0:	f104 0210 	add.w	r2, r4, #16
  4070d4:	e6dd      	b.n	406e92 <_realloc_r+0x8e>
  4070d6:	f850 3c04 	ldr.w	r3, [r0, #-4]
  4070da:	4625      	mov	r5, r4
  4070dc:	f023 0303 	bic.w	r3, r3, #3
  4070e0:	441f      	add	r7, r3
  4070e2:	e6ef      	b.n	406ec4 <_realloc_r+0xc0>
  4070e4:	68a1      	ldr	r1, [r4, #8]
  4070e6:	2a24      	cmp	r2, #36	; 0x24
  4070e8:	f8ca 1010 	str.w	r1, [sl, #16]
  4070ec:	68e1      	ldr	r1, [r4, #12]
  4070ee:	f8ca 1014 	str.w	r1, [sl, #20]
  4070f2:	d00d      	beq.n	407110 <_realloc_r+0x30c>
  4070f4:	f104 0010 	add.w	r0, r4, #16
  4070f8:	f10a 0218 	add.w	r2, sl, #24
  4070fc:	e7bf      	b.n	40707e <_realloc_r+0x27a>
  4070fe:	6922      	ldr	r2, [r4, #16]
  407100:	f100 0318 	add.w	r3, r0, #24
  407104:	6102      	str	r2, [r0, #16]
  407106:	6961      	ldr	r1, [r4, #20]
  407108:	f104 0218 	add.w	r2, r4, #24
  40710c:	6141      	str	r1, [r0, #20]
  40710e:	e6c0      	b.n	406e92 <_realloc_r+0x8e>
  407110:	6922      	ldr	r2, [r4, #16]
  407112:	f104 0018 	add.w	r0, r4, #24
  407116:	f8ca 2018 	str.w	r2, [sl, #24]
  40711a:	6961      	ldr	r1, [r4, #20]
  40711c:	f10a 0220 	add.w	r2, sl, #32
  407120:	f8ca 101c 	str.w	r1, [sl, #28]
  407124:	e7ab      	b.n	40707e <_realloc_r+0x27a>
  407126:	4621      	mov	r1, r4
  407128:	462a      	mov	r2, r5
  40712a:	e782      	b.n	407032 <_realloc_r+0x22e>
  40712c:	4621      	mov	r1, r4
  40712e:	4628      	mov	r0, r5
  407130:	9301      	str	r3, [sp, #4]
  407132:	f7ff fafb 	bl	40672c <memmove>
  407136:	9b01      	ldr	r3, [sp, #4]
  407138:	e781      	b.n	40703e <_realloc_r+0x23a>
  40713a:	68a1      	ldr	r1, [r4, #8]
  40713c:	2a24      	cmp	r2, #36	; 0x24
  40713e:	f8ca 1010 	str.w	r1, [sl, #16]
  407142:	68e1      	ldr	r1, [r4, #12]
  407144:	f8ca 1014 	str.w	r1, [sl, #20]
  407148:	d006      	beq.n	407158 <_realloc_r+0x354>
  40714a:	f104 0110 	add.w	r1, r4, #16
  40714e:	f10a 0218 	add.w	r2, sl, #24
  407152:	e76e      	b.n	407032 <_realloc_r+0x22e>
  407154:	200007a8 	.word	0x200007a8
  407158:	6922      	ldr	r2, [r4, #16]
  40715a:	f104 0118 	add.w	r1, r4, #24
  40715e:	f8ca 2018 	str.w	r2, [sl, #24]
  407162:	6960      	ldr	r0, [r4, #20]
  407164:	f10a 0220 	add.w	r2, sl, #32
  407168:	f8ca 001c 	str.w	r0, [sl, #28]
  40716c:	e761      	b.n	407032 <_realloc_r+0x22e>
  40716e:	bf00      	nop

00407170 <_sbrk_r>:
  407170:	b538      	push	{r3, r4, r5, lr}
  407172:	2300      	movs	r3, #0
  407174:	4c06      	ldr	r4, [pc, #24]	; (407190 <_sbrk_r+0x20>)
  407176:	4605      	mov	r5, r0
  407178:	4608      	mov	r0, r1
  40717a:	6023      	str	r3, [r4, #0]
  40717c:	f7fc f99e 	bl	4034bc <_sbrk>
  407180:	1c43      	adds	r3, r0, #1
  407182:	d000      	beq.n	407186 <_sbrk_r+0x16>
  407184:	bd38      	pop	{r3, r4, r5, pc}
  407186:	6823      	ldr	r3, [r4, #0]
  407188:	2b00      	cmp	r3, #0
  40718a:	d0fb      	beq.n	407184 <_sbrk_r+0x14>
  40718c:	602b      	str	r3, [r5, #0]
  40718e:	bd38      	pop	{r3, r4, r5, pc}
  407190:	20000ed4 	.word	0x20000ed4

00407194 <__ssprint_r>:
  407194:	e92d 4ff0 	stmdb	sp!, {r4, r5, r6, r7, r8, r9, sl, fp, lr}
  407198:	6893      	ldr	r3, [r2, #8]
  40719a:	b083      	sub	sp, #12
  40719c:	4690      	mov	r8, r2
  40719e:	2b00      	cmp	r3, #0
  4071a0:	d070      	beq.n	407284 <__ssprint_r+0xf0>
  4071a2:	4682      	mov	sl, r0
  4071a4:	460c      	mov	r4, r1
  4071a6:	6817      	ldr	r7, [r2, #0]
  4071a8:	688d      	ldr	r5, [r1, #8]
  4071aa:	6808      	ldr	r0, [r1, #0]
  4071ac:	e042      	b.n	407234 <__ssprint_r+0xa0>
  4071ae:	89a3      	ldrh	r3, [r4, #12]
  4071b0:	f413 6f90 	tst.w	r3, #1152	; 0x480
  4071b4:	d02e      	beq.n	407214 <__ssprint_r+0x80>
  4071b6:	6965      	ldr	r5, [r4, #20]
  4071b8:	6921      	ldr	r1, [r4, #16]
  4071ba:	eb05 0545 	add.w	r5, r5, r5, lsl #1
  4071be:	eba0 0b01 	sub.w	fp, r0, r1
  4071c2:	eb05 75d5 	add.w	r5, r5, r5, lsr #31
  4071c6:	f10b 0001 	add.w	r0, fp, #1
  4071ca:	106d      	asrs	r5, r5, #1
  4071cc:	4430      	add	r0, r6
  4071ce:	42a8      	cmp	r0, r5
  4071d0:	462a      	mov	r2, r5
  4071d2:	bf84      	itt	hi
  4071d4:	4605      	movhi	r5, r0
  4071d6:	462a      	movhi	r2, r5
  4071d8:	055b      	lsls	r3, r3, #21
  4071da:	d538      	bpl.n	40724e <__ssprint_r+0xba>
  4071dc:	4611      	mov	r1, r2
  4071de:	4650      	mov	r0, sl
  4071e0:	f7fe ffa6 	bl	406130 <_malloc_r>
  4071e4:	2800      	cmp	r0, #0
  4071e6:	d03c      	beq.n	407262 <__ssprint_r+0xce>
  4071e8:	465a      	mov	r2, fp
  4071ea:	6921      	ldr	r1, [r4, #16]
  4071ec:	9001      	str	r0, [sp, #4]
  4071ee:	f7fc fa31 	bl	403654 <memcpy>
  4071f2:	89a2      	ldrh	r2, [r4, #12]
  4071f4:	9b01      	ldr	r3, [sp, #4]
  4071f6:	f422 6290 	bic.w	r2, r2, #1152	; 0x480
  4071fa:	f042 0280 	orr.w	r2, r2, #128	; 0x80
  4071fe:	81a2      	strh	r2, [r4, #12]
  407200:	eba5 020b 	sub.w	r2, r5, fp
  407204:	eb03 000b 	add.w	r0, r3, fp
  407208:	6165      	str	r5, [r4, #20]
  40720a:	46b3      	mov	fp, r6
  40720c:	4635      	mov	r5, r6
  40720e:	6123      	str	r3, [r4, #16]
  407210:	6020      	str	r0, [r4, #0]
  407212:	60a2      	str	r2, [r4, #8]
  407214:	465a      	mov	r2, fp
  407216:	4649      	mov	r1, r9
  407218:	f7ff fa88 	bl	40672c <memmove>
  40721c:	f8d8 3008 	ldr.w	r3, [r8, #8]
  407220:	68a2      	ldr	r2, [r4, #8]
  407222:	6820      	ldr	r0, [r4, #0]
  407224:	1b55      	subs	r5, r2, r5
  407226:	4458      	add	r0, fp
  407228:	1b9e      	subs	r6, r3, r6
  40722a:	60a5      	str	r5, [r4, #8]
  40722c:	6020      	str	r0, [r4, #0]
  40722e:	f8c8 6008 	str.w	r6, [r8, #8]
  407232:	b33e      	cbz	r6, 407284 <__ssprint_r+0xf0>
  407234:	687e      	ldr	r6, [r7, #4]
  407236:	463b      	mov	r3, r7
  407238:	3708      	adds	r7, #8
  40723a:	2e00      	cmp	r6, #0
  40723c:	d0fa      	beq.n	407234 <__ssprint_r+0xa0>
  40723e:	42ae      	cmp	r6, r5
  407240:	f8d3 9000 	ldr.w	r9, [r3]
  407244:	46ab      	mov	fp, r5
  407246:	d2b2      	bcs.n	4071ae <__ssprint_r+0x1a>
  407248:	4635      	mov	r5, r6
  40724a:	46b3      	mov	fp, r6
  40724c:	e7e2      	b.n	407214 <__ssprint_r+0x80>
  40724e:	4650      	mov	r0, sl
  407250:	f7ff fdd8 	bl	406e04 <_realloc_r>
  407254:	4603      	mov	r3, r0
  407256:	2800      	cmp	r0, #0
  407258:	d1d2      	bne.n	407200 <__ssprint_r+0x6c>
  40725a:	6921      	ldr	r1, [r4, #16]
  40725c:	4650      	mov	r0, sl
  40725e:	f7fe fe6b 	bl	405f38 <_free_r>
  407262:	230c      	movs	r3, #12
  407264:	2200      	movs	r2, #0
  407266:	f04f 30ff 	mov.w	r0, #4294967295
  40726a:	f8ca 3000 	str.w	r3, [sl]
  40726e:	89a3      	ldrh	r3, [r4, #12]
  407270:	f043 0340 	orr.w	r3, r3, #64	; 0x40
  407274:	81a3      	strh	r3, [r4, #12]
  407276:	f8c8 2008 	str.w	r2, [r8, #8]
  40727a:	f8c8 2004 	str.w	r2, [r8, #4]
  40727e:	b003      	add	sp, #12
  407280:	e8bd 8ff0 	ldmia.w	sp!, {r4, r5, r6, r7, r8, r9, sl, fp, pc}
  407284:	2000      	movs	r0, #0
  407286:	f8c8 0004 	str.w	r0, [r8, #4]
  40728a:	b003      	add	sp, #12
  40728c:	e8bd 8ff0 	ldmia.w	sp!, {r4, r5, r6, r7, r8, r9, sl, fp, pc}

00407290 <__ascii_wctomb>:
  407290:	b119      	cbz	r1, 40729a <__ascii_wctomb+0xa>
  407292:	2aff      	cmp	r2, #255	; 0xff
  407294:	d803      	bhi.n	40729e <__ascii_wctomb+0xe>
  407296:	700a      	strb	r2, [r1, #0]
  407298:	2101      	movs	r1, #1
  40729a:	4608      	mov	r0, r1
  40729c:	4770      	bx	lr
  40729e:	238a      	movs	r3, #138	; 0x8a
  4072a0:	f04f 31ff 	mov.w	r1, #4294967295
  4072a4:	6003      	str	r3, [r0, #0]
  4072a6:	e7f8      	b.n	40729a <__ascii_wctomb+0xa>

004072a8 <__register_exitproc>:
  4072a8:	e92d 43f8 	stmdb	sp!, {r3, r4, r5, r6, r7, r8, r9, lr}
  4072ac:	4d2c      	ldr	r5, [pc, #176]	; (407360 <__register_exitproc+0xb8>)
  4072ae:	4606      	mov	r6, r0
  4072b0:	6828      	ldr	r0, [r5, #0]
  4072b2:	4698      	mov	r8, r3
  4072b4:	460f      	mov	r7, r1
  4072b6:	4691      	mov	r9, r2
  4072b8:	f7fe ff36 	bl	406128 <__retarget_lock_acquire_recursive>
  4072bc:	4b29      	ldr	r3, [pc, #164]	; (407364 <__register_exitproc+0xbc>)
  4072be:	681c      	ldr	r4, [r3, #0]
  4072c0:	f8d4 3148 	ldr.w	r3, [r4, #328]	; 0x148
  4072c4:	2b00      	cmp	r3, #0
  4072c6:	d03e      	beq.n	407346 <__register_exitproc+0x9e>
  4072c8:	685a      	ldr	r2, [r3, #4]
  4072ca:	2a1f      	cmp	r2, #31
  4072cc:	dc1c      	bgt.n	407308 <__register_exitproc+0x60>
  4072ce:	f102 0e01 	add.w	lr, r2, #1
  4072d2:	b176      	cbz	r6, 4072f2 <__register_exitproc+0x4a>
  4072d4:	2101      	movs	r1, #1
  4072d6:	eb03 0482 	add.w	r4, r3, r2, lsl #2
  4072da:	f8c4 9088 	str.w	r9, [r4, #136]	; 0x88
  4072de:	f8d3 0188 	ldr.w	r0, [r3, #392]	; 0x188
  4072e2:	4091      	lsls	r1, r2
  4072e4:	4308      	orrs	r0, r1
  4072e6:	2e02      	cmp	r6, #2
  4072e8:	f8c3 0188 	str.w	r0, [r3, #392]	; 0x188
  4072ec:	f8c4 8108 	str.w	r8, [r4, #264]	; 0x108
  4072f0:	d023      	beq.n	40733a <__register_exitproc+0x92>
  4072f2:	3202      	adds	r2, #2
  4072f4:	f8c3 e004 	str.w	lr, [r3, #4]
  4072f8:	6828      	ldr	r0, [r5, #0]
  4072fa:	f843 7022 	str.w	r7, [r3, r2, lsl #2]
  4072fe:	f7fe ff15 	bl	40612c <__retarget_lock_release_recursive>
  407302:	2000      	movs	r0, #0
  407304:	e8bd 83f8 	ldmia.w	sp!, {r3, r4, r5, r6, r7, r8, r9, pc}
  407308:	4b17      	ldr	r3, [pc, #92]	; (407368 <__register_exitproc+0xc0>)
  40730a:	b30b      	cbz	r3, 407350 <__register_exitproc+0xa8>
  40730c:	f44f 70c8 	mov.w	r0, #400	; 0x190
  407310:	f3af 8000 	nop.w
  407314:	4603      	mov	r3, r0
  407316:	b1d8      	cbz	r0, 407350 <__register_exitproc+0xa8>
  407318:	2000      	movs	r0, #0
  40731a:	f8d4 1148 	ldr.w	r1, [r4, #328]	; 0x148
  40731e:	f04f 0e01 	mov.w	lr, #1
  407322:	6058      	str	r0, [r3, #4]
  407324:	6019      	str	r1, [r3, #0]
  407326:	4602      	mov	r2, r0
  407328:	f8c4 3148 	str.w	r3, [r4, #328]	; 0x148
  40732c:	f8c3 0188 	str.w	r0, [r3, #392]	; 0x188
  407330:	f8c3 018c 	str.w	r0, [r3, #396]	; 0x18c
  407334:	2e00      	cmp	r6, #0
  407336:	d0dc      	beq.n	4072f2 <__register_exitproc+0x4a>
  407338:	e7cc      	b.n	4072d4 <__register_exitproc+0x2c>
  40733a:	f8d3 018c 	ldr.w	r0, [r3, #396]	; 0x18c
  40733e:	4301      	orrs	r1, r0
  407340:	f8c3 118c 	str.w	r1, [r3, #396]	; 0x18c
  407344:	e7d5      	b.n	4072f2 <__register_exitproc+0x4a>
  407346:	f504 73a6 	add.w	r3, r4, #332	; 0x14c
  40734a:	f8c4 3148 	str.w	r3, [r4, #328]	; 0x148
  40734e:	e7bb      	b.n	4072c8 <__register_exitproc+0x20>
  407350:	6828      	ldr	r0, [r5, #0]
  407352:	f7fe feeb 	bl	40612c <__retarget_lock_release_recursive>
  407356:	f04f 30ff 	mov.w	r0, #4294967295
  40735a:	e8bd 83f8 	ldmia.w	sp!, {r3, r4, r5, r6, r7, r8, r9, pc}
  40735e:	bf00      	nop
  407360:	20000638 	.word	0x20000638
  407364:	0040814c 	.word	0x0040814c
  407368:	00000000 	.word	0x00000000

0040736c <_calloc_r>:
  40736c:	b510      	push	{r4, lr}
  40736e:	fb02 f101 	mul.w	r1, r2, r1
  407372:	f7fe fedd 	bl	406130 <_malloc_r>
  407376:	4604      	mov	r4, r0
  407378:	b1d8      	cbz	r0, 4073b2 <_calloc_r+0x46>
  40737a:	f850 2c04 	ldr.w	r2, [r0, #-4]
  40737e:	f022 0203 	bic.w	r2, r2, #3
  407382:	3a04      	subs	r2, #4
  407384:	2a24      	cmp	r2, #36	; 0x24
  407386:	d818      	bhi.n	4073ba <_calloc_r+0x4e>
  407388:	2a13      	cmp	r2, #19
  40738a:	d914      	bls.n	4073b6 <_calloc_r+0x4a>
  40738c:	2300      	movs	r3, #0
  40738e:	2a1b      	cmp	r2, #27
  407390:	6003      	str	r3, [r0, #0]
  407392:	6043      	str	r3, [r0, #4]
  407394:	d916      	bls.n	4073c4 <_calloc_r+0x58>
  407396:	2a24      	cmp	r2, #36	; 0x24
  407398:	6083      	str	r3, [r0, #8]
  40739a:	60c3      	str	r3, [r0, #12]
  40739c:	bf11      	iteee	ne
  40739e:	f100 0210 	addne.w	r2, r0, #16
  4073a2:	6103      	streq	r3, [r0, #16]
  4073a4:	6143      	streq	r3, [r0, #20]
  4073a6:	f100 0218 	addeq.w	r2, r0, #24
  4073aa:	2300      	movs	r3, #0
  4073ac:	6013      	str	r3, [r2, #0]
  4073ae:	6053      	str	r3, [r2, #4]
  4073b0:	6093      	str	r3, [r2, #8]
  4073b2:	4620      	mov	r0, r4
  4073b4:	bd10      	pop	{r4, pc}
  4073b6:	4602      	mov	r2, r0
  4073b8:	e7f7      	b.n	4073aa <_calloc_r+0x3e>
  4073ba:	2100      	movs	r1, #0
  4073bc:	f7fc f9c0 	bl	403740 <memset>
  4073c0:	4620      	mov	r0, r4
  4073c2:	bd10      	pop	{r4, pc}
  4073c4:	f100 0208 	add.w	r2, r0, #8
  4073c8:	e7ef      	b.n	4073aa <_calloc_r+0x3e>
  4073ca:	bf00      	nop

004073cc <__aeabi_drsub>:
  4073cc:	f081 4100 	eor.w	r1, r1, #2147483648	; 0x80000000
  4073d0:	e002      	b.n	4073d8 <__adddf3>
  4073d2:	bf00      	nop

004073d4 <__aeabi_dsub>:
  4073d4:	f083 4300 	eor.w	r3, r3, #2147483648	; 0x80000000

004073d8 <__adddf3>:
  4073d8:	b530      	push	{r4, r5, lr}
  4073da:	ea4f 0441 	mov.w	r4, r1, lsl #1
  4073de:	ea4f 0543 	mov.w	r5, r3, lsl #1
  4073e2:	ea94 0f05 	teq	r4, r5
  4073e6:	bf08      	it	eq
  4073e8:	ea90 0f02 	teqeq	r0, r2
  4073ec:	bf1f      	itttt	ne
  4073ee:	ea54 0c00 	orrsne.w	ip, r4, r0
  4073f2:	ea55 0c02 	orrsne.w	ip, r5, r2
  4073f6:	ea7f 5c64 	mvnsne.w	ip, r4, asr #21
  4073fa:	ea7f 5c65 	mvnsne.w	ip, r5, asr #21
  4073fe:	f000 80e2 	beq.w	4075c6 <__adddf3+0x1ee>
  407402:	ea4f 5454 	mov.w	r4, r4, lsr #21
  407406:	ebd4 5555 	rsbs	r5, r4, r5, lsr #21
  40740a:	bfb8      	it	lt
  40740c:	426d      	neglt	r5, r5
  40740e:	dd0c      	ble.n	40742a <__adddf3+0x52>
  407410:	442c      	add	r4, r5
  407412:	ea80 0202 	eor.w	r2, r0, r2
  407416:	ea81 0303 	eor.w	r3, r1, r3
  40741a:	ea82 0000 	eor.w	r0, r2, r0
  40741e:	ea83 0101 	eor.w	r1, r3, r1
  407422:	ea80 0202 	eor.w	r2, r0, r2
  407426:	ea81 0303 	eor.w	r3, r1, r3
  40742a:	2d36      	cmp	r5, #54	; 0x36
  40742c:	bf88      	it	hi
  40742e:	bd30      	pophi	{r4, r5, pc}
  407430:	f011 4f00 	tst.w	r1, #2147483648	; 0x80000000
  407434:	ea4f 3101 	mov.w	r1, r1, lsl #12
  407438:	f44f 1c80 	mov.w	ip, #1048576	; 0x100000
  40743c:	ea4c 3111 	orr.w	r1, ip, r1, lsr #12
  407440:	d002      	beq.n	407448 <__adddf3+0x70>
  407442:	4240      	negs	r0, r0
  407444:	eb61 0141 	sbc.w	r1, r1, r1, lsl #1
  407448:	f013 4f00 	tst.w	r3, #2147483648	; 0x80000000
  40744c:	ea4f 3303 	mov.w	r3, r3, lsl #12
  407450:	ea4c 3313 	orr.w	r3, ip, r3, lsr #12
  407454:	d002      	beq.n	40745c <__adddf3+0x84>
  407456:	4252      	negs	r2, r2
  407458:	eb63 0343 	sbc.w	r3, r3, r3, lsl #1
  40745c:	ea94 0f05 	teq	r4, r5
  407460:	f000 80a7 	beq.w	4075b2 <__adddf3+0x1da>
  407464:	f1a4 0401 	sub.w	r4, r4, #1
  407468:	f1d5 0e20 	rsbs	lr, r5, #32
  40746c:	db0d      	blt.n	40748a <__adddf3+0xb2>
  40746e:	fa02 fc0e 	lsl.w	ip, r2, lr
  407472:	fa22 f205 	lsr.w	r2, r2, r5
  407476:	1880      	adds	r0, r0, r2
  407478:	f141 0100 	adc.w	r1, r1, #0
  40747c:	fa03 f20e 	lsl.w	r2, r3, lr
  407480:	1880      	adds	r0, r0, r2
  407482:	fa43 f305 	asr.w	r3, r3, r5
  407486:	4159      	adcs	r1, r3
  407488:	e00e      	b.n	4074a8 <__adddf3+0xd0>
  40748a:	f1a5 0520 	sub.w	r5, r5, #32
  40748e:	f10e 0e20 	add.w	lr, lr, #32
  407492:	2a01      	cmp	r2, #1
  407494:	fa03 fc0e 	lsl.w	ip, r3, lr
  407498:	bf28      	it	cs
  40749a:	f04c 0c02 	orrcs.w	ip, ip, #2
  40749e:	fa43 f305 	asr.w	r3, r3, r5
  4074a2:	18c0      	adds	r0, r0, r3
  4074a4:	eb51 71e3 	adcs.w	r1, r1, r3, asr #31
  4074a8:	f001 4500 	and.w	r5, r1, #2147483648	; 0x80000000
  4074ac:	d507      	bpl.n	4074be <__adddf3+0xe6>
  4074ae:	f04f 0e00 	mov.w	lr, #0
  4074b2:	f1dc 0c00 	rsbs	ip, ip, #0
  4074b6:	eb7e 0000 	sbcs.w	r0, lr, r0
  4074ba:	eb6e 0101 	sbc.w	r1, lr, r1
  4074be:	f5b1 1f80 	cmp.w	r1, #1048576	; 0x100000
  4074c2:	d31b      	bcc.n	4074fc <__adddf3+0x124>
  4074c4:	f5b1 1f00 	cmp.w	r1, #2097152	; 0x200000
  4074c8:	d30c      	bcc.n	4074e4 <__adddf3+0x10c>
  4074ca:	0849      	lsrs	r1, r1, #1
  4074cc:	ea5f 0030 	movs.w	r0, r0, rrx
  4074d0:	ea4f 0c3c 	mov.w	ip, ip, rrx
  4074d4:	f104 0401 	add.w	r4, r4, #1
  4074d8:	ea4f 5244 	mov.w	r2, r4, lsl #21
  4074dc:	f512 0f80 	cmn.w	r2, #4194304	; 0x400000
  4074e0:	f080 809a 	bcs.w	407618 <__adddf3+0x240>
  4074e4:	f1bc 4f00 	cmp.w	ip, #2147483648	; 0x80000000
  4074e8:	bf08      	it	eq
  4074ea:	ea5f 0c50 	movseq.w	ip, r0, lsr #1
  4074ee:	f150 0000 	adcs.w	r0, r0, #0
  4074f2:	eb41 5104 	adc.w	r1, r1, r4, lsl #20
  4074f6:	ea41 0105 	orr.w	r1, r1, r5
  4074fa:	bd30      	pop	{r4, r5, pc}
  4074fc:	ea5f 0c4c 	movs.w	ip, ip, lsl #1
  407500:	4140      	adcs	r0, r0
  407502:	eb41 0101 	adc.w	r1, r1, r1
  407506:	f411 1f80 	tst.w	r1, #1048576	; 0x100000
  40750a:	f1a4 0401 	sub.w	r4, r4, #1
  40750e:	d1e9      	bne.n	4074e4 <__adddf3+0x10c>
  407510:	f091 0f00 	teq	r1, #0
  407514:	bf04      	itt	eq
  407516:	4601      	moveq	r1, r0
  407518:	2000      	moveq	r0, #0
  40751a:	fab1 f381 	clz	r3, r1
  40751e:	bf08      	it	eq
  407520:	3320      	addeq	r3, #32
  407522:	f1a3 030b 	sub.w	r3, r3, #11
  407526:	f1b3 0220 	subs.w	r2, r3, #32
  40752a:	da0c      	bge.n	407546 <__adddf3+0x16e>
  40752c:	320c      	adds	r2, #12
  40752e:	dd08      	ble.n	407542 <__adddf3+0x16a>
  407530:	f102 0c14 	add.w	ip, r2, #20
  407534:	f1c2 020c 	rsb	r2, r2, #12
  407538:	fa01 f00c 	lsl.w	r0, r1, ip
  40753c:	fa21 f102 	lsr.w	r1, r1, r2
  407540:	e00c      	b.n	40755c <__adddf3+0x184>
  407542:	f102 0214 	add.w	r2, r2, #20
  407546:	bfd8      	it	le
  407548:	f1c2 0c20 	rsble	ip, r2, #32
  40754c:	fa01 f102 	lsl.w	r1, r1, r2
  407550:	fa20 fc0c 	lsr.w	ip, r0, ip
  407554:	bfdc      	itt	le
  407556:	ea41 010c 	orrle.w	r1, r1, ip
  40755a:	4090      	lslle	r0, r2
  40755c:	1ae4      	subs	r4, r4, r3
  40755e:	bfa2      	ittt	ge
  407560:	eb01 5104 	addge.w	r1, r1, r4, lsl #20
  407564:	4329      	orrge	r1, r5
  407566:	bd30      	popge	{r4, r5, pc}
  407568:	ea6f 0404 	mvn.w	r4, r4
  40756c:	3c1f      	subs	r4, #31
  40756e:	da1c      	bge.n	4075aa <__adddf3+0x1d2>
  407570:	340c      	adds	r4, #12
  407572:	dc0e      	bgt.n	407592 <__adddf3+0x1ba>
  407574:	f104 0414 	add.w	r4, r4, #20
  407578:	f1c4 0220 	rsb	r2, r4, #32
  40757c:	fa20 f004 	lsr.w	r0, r0, r4
  407580:	fa01 f302 	lsl.w	r3, r1, r2
  407584:	ea40 0003 	orr.w	r0, r0, r3
  407588:	fa21 f304 	lsr.w	r3, r1, r4
  40758c:	ea45 0103 	orr.w	r1, r5, r3
  407590:	bd30      	pop	{r4, r5, pc}
  407592:	f1c4 040c 	rsb	r4, r4, #12
  407596:	f1c4 0220 	rsb	r2, r4, #32
  40759a:	fa20 f002 	lsr.w	r0, r0, r2
  40759e:	fa01 f304 	lsl.w	r3, r1, r4
  4075a2:	ea40 0003 	orr.w	r0, r0, r3
  4075a6:	4629      	mov	r1, r5
  4075a8:	bd30      	pop	{r4, r5, pc}
  4075aa:	fa21 f004 	lsr.w	r0, r1, r4
  4075ae:	4629      	mov	r1, r5
  4075b0:	bd30      	pop	{r4, r5, pc}
  4075b2:	f094 0f00 	teq	r4, #0
  4075b6:	f483 1380 	eor.w	r3, r3, #1048576	; 0x100000
  4075ba:	bf06      	itte	eq
  4075bc:	f481 1180 	eoreq.w	r1, r1, #1048576	; 0x100000
  4075c0:	3401      	addeq	r4, #1
  4075c2:	3d01      	subne	r5, #1
  4075c4:	e74e      	b.n	407464 <__adddf3+0x8c>
  4075c6:	ea7f 5c64 	mvns.w	ip, r4, asr #21
  4075ca:	bf18      	it	ne
  4075cc:	ea7f 5c65 	mvnsne.w	ip, r5, asr #21
  4075d0:	d029      	beq.n	407626 <__adddf3+0x24e>
  4075d2:	ea94 0f05 	teq	r4, r5
  4075d6:	bf08      	it	eq
  4075d8:	ea90 0f02 	teqeq	r0, r2
  4075dc:	d005      	beq.n	4075ea <__adddf3+0x212>
  4075de:	ea54 0c00 	orrs.w	ip, r4, r0
  4075e2:	bf04      	itt	eq
  4075e4:	4619      	moveq	r1, r3
  4075e6:	4610      	moveq	r0, r2
  4075e8:	bd30      	pop	{r4, r5, pc}
  4075ea:	ea91 0f03 	teq	r1, r3
  4075ee:	bf1e      	ittt	ne
  4075f0:	2100      	movne	r1, #0
  4075f2:	2000      	movne	r0, #0
  4075f4:	bd30      	popne	{r4, r5, pc}
  4075f6:	ea5f 5c54 	movs.w	ip, r4, lsr #21
  4075fa:	d105      	bne.n	407608 <__adddf3+0x230>
  4075fc:	0040      	lsls	r0, r0, #1
  4075fe:	4149      	adcs	r1, r1
  407600:	bf28      	it	cs
  407602:	f041 4100 	orrcs.w	r1, r1, #2147483648	; 0x80000000
  407606:	bd30      	pop	{r4, r5, pc}
  407608:	f514 0480 	adds.w	r4, r4, #4194304	; 0x400000
  40760c:	bf3c      	itt	cc
  40760e:	f501 1180 	addcc.w	r1, r1, #1048576	; 0x100000
  407612:	bd30      	popcc	{r4, r5, pc}
  407614:	f001 4500 	and.w	r5, r1, #2147483648	; 0x80000000
  407618:	f045 41fe 	orr.w	r1, r5, #2130706432	; 0x7f000000
  40761c:	f441 0170 	orr.w	r1, r1, #15728640	; 0xf00000
  407620:	f04f 0000 	mov.w	r0, #0
  407624:	bd30      	pop	{r4, r5, pc}
  407626:	ea7f 5c64 	mvns.w	ip, r4, asr #21
  40762a:	bf1a      	itte	ne
  40762c:	4619      	movne	r1, r3
  40762e:	4610      	movne	r0, r2
  407630:	ea7f 5c65 	mvnseq.w	ip, r5, asr #21
  407634:	bf1c      	itt	ne
  407636:	460b      	movne	r3, r1
  407638:	4602      	movne	r2, r0
  40763a:	ea50 3401 	orrs.w	r4, r0, r1, lsl #12
  40763e:	bf06      	itte	eq
  407640:	ea52 3503 	orrseq.w	r5, r2, r3, lsl #12
  407644:	ea91 0f03 	teqeq	r1, r3
  407648:	f441 2100 	orrne.w	r1, r1, #524288	; 0x80000
  40764c:	bd30      	pop	{r4, r5, pc}
  40764e:	bf00      	nop

00407650 <__aeabi_ui2d>:
  407650:	f090 0f00 	teq	r0, #0
  407654:	bf04      	itt	eq
  407656:	2100      	moveq	r1, #0
  407658:	4770      	bxeq	lr
  40765a:	b530      	push	{r4, r5, lr}
  40765c:	f44f 6480 	mov.w	r4, #1024	; 0x400
  407660:	f104 0432 	add.w	r4, r4, #50	; 0x32
  407664:	f04f 0500 	mov.w	r5, #0
  407668:	f04f 0100 	mov.w	r1, #0
  40766c:	e750      	b.n	407510 <__adddf3+0x138>
  40766e:	bf00      	nop

00407670 <__aeabi_i2d>:
  407670:	f090 0f00 	teq	r0, #0
  407674:	bf04      	itt	eq
  407676:	2100      	moveq	r1, #0
  407678:	4770      	bxeq	lr
  40767a:	b530      	push	{r4, r5, lr}
  40767c:	f44f 6480 	mov.w	r4, #1024	; 0x400
  407680:	f104 0432 	add.w	r4, r4, #50	; 0x32
  407684:	f010 4500 	ands.w	r5, r0, #2147483648	; 0x80000000
  407688:	bf48      	it	mi
  40768a:	4240      	negmi	r0, r0
  40768c:	f04f 0100 	mov.w	r1, #0
  407690:	e73e      	b.n	407510 <__adddf3+0x138>
  407692:	bf00      	nop

00407694 <__aeabi_f2d>:
  407694:	0042      	lsls	r2, r0, #1
  407696:	ea4f 01e2 	mov.w	r1, r2, asr #3
  40769a:	ea4f 0131 	mov.w	r1, r1, rrx
  40769e:	ea4f 7002 	mov.w	r0, r2, lsl #28
  4076a2:	bf1f      	itttt	ne
  4076a4:	f012 437f 	andsne.w	r3, r2, #4278190080	; 0xff000000
  4076a8:	f093 4f7f 	teqne	r3, #4278190080	; 0xff000000
  4076ac:	f081 5160 	eorne.w	r1, r1, #939524096	; 0x38000000
  4076b0:	4770      	bxne	lr
  4076b2:	f092 0f00 	teq	r2, #0
  4076b6:	bf14      	ite	ne
  4076b8:	f093 4f7f 	teqne	r3, #4278190080	; 0xff000000
  4076bc:	4770      	bxeq	lr
  4076be:	b530      	push	{r4, r5, lr}
  4076c0:	f44f 7460 	mov.w	r4, #896	; 0x380
  4076c4:	f001 4500 	and.w	r5, r1, #2147483648	; 0x80000000
  4076c8:	f021 4100 	bic.w	r1, r1, #2147483648	; 0x80000000
  4076cc:	e720      	b.n	407510 <__adddf3+0x138>
  4076ce:	bf00      	nop

004076d0 <__aeabi_ul2d>:
  4076d0:	ea50 0201 	orrs.w	r2, r0, r1
  4076d4:	bf08      	it	eq
  4076d6:	4770      	bxeq	lr
  4076d8:	b530      	push	{r4, r5, lr}
  4076da:	f04f 0500 	mov.w	r5, #0
  4076de:	e00a      	b.n	4076f6 <__aeabi_l2d+0x16>

004076e0 <__aeabi_l2d>:
  4076e0:	ea50 0201 	orrs.w	r2, r0, r1
  4076e4:	bf08      	it	eq
  4076e6:	4770      	bxeq	lr
  4076e8:	b530      	push	{r4, r5, lr}
  4076ea:	f011 4500 	ands.w	r5, r1, #2147483648	; 0x80000000
  4076ee:	d502      	bpl.n	4076f6 <__aeabi_l2d+0x16>
  4076f0:	4240      	negs	r0, r0
  4076f2:	eb61 0141 	sbc.w	r1, r1, r1, lsl #1
  4076f6:	f44f 6480 	mov.w	r4, #1024	; 0x400
  4076fa:	f104 0432 	add.w	r4, r4, #50	; 0x32
  4076fe:	ea5f 5c91 	movs.w	ip, r1, lsr #22
  407702:	f43f aedc 	beq.w	4074be <__adddf3+0xe6>
  407706:	f04f 0203 	mov.w	r2, #3
  40770a:	ea5f 0cdc 	movs.w	ip, ip, lsr #3
  40770e:	bf18      	it	ne
  407710:	3203      	addne	r2, #3
  407712:	ea5f 0cdc 	movs.w	ip, ip, lsr #3
  407716:	bf18      	it	ne
  407718:	3203      	addne	r2, #3
  40771a:	eb02 02dc 	add.w	r2, r2, ip, lsr #3
  40771e:	f1c2 0320 	rsb	r3, r2, #32
  407722:	fa00 fc03 	lsl.w	ip, r0, r3
  407726:	fa20 f002 	lsr.w	r0, r0, r2
  40772a:	fa01 fe03 	lsl.w	lr, r1, r3
  40772e:	ea40 000e 	orr.w	r0, r0, lr
  407732:	fa21 f102 	lsr.w	r1, r1, r2
  407736:	4414      	add	r4, r2
  407738:	e6c1      	b.n	4074be <__adddf3+0xe6>
  40773a:	bf00      	nop

0040773c <__aeabi_dmul>:
  40773c:	b570      	push	{r4, r5, r6, lr}
  40773e:	f04f 0cff 	mov.w	ip, #255	; 0xff
  407742:	f44c 6ce0 	orr.w	ip, ip, #1792	; 0x700
  407746:	ea1c 5411 	ands.w	r4, ip, r1, lsr #20
  40774a:	bf1d      	ittte	ne
  40774c:	ea1c 5513 	andsne.w	r5, ip, r3, lsr #20
  407750:	ea94 0f0c 	teqne	r4, ip
  407754:	ea95 0f0c 	teqne	r5, ip
  407758:	f000 f8de 	bleq	407918 <__aeabi_dmul+0x1dc>
  40775c:	442c      	add	r4, r5
  40775e:	ea81 0603 	eor.w	r6, r1, r3
  407762:	ea21 514c 	bic.w	r1, r1, ip, lsl #21
  407766:	ea23 534c 	bic.w	r3, r3, ip, lsl #21
  40776a:	ea50 3501 	orrs.w	r5, r0, r1, lsl #12
  40776e:	bf18      	it	ne
  407770:	ea52 3503 	orrsne.w	r5, r2, r3, lsl #12
  407774:	f441 1180 	orr.w	r1, r1, #1048576	; 0x100000
  407778:	f443 1380 	orr.w	r3, r3, #1048576	; 0x100000
  40777c:	d038      	beq.n	4077f0 <__aeabi_dmul+0xb4>
  40777e:	fba0 ce02 	umull	ip, lr, r0, r2
  407782:	f04f 0500 	mov.w	r5, #0
  407786:	fbe1 e502 	umlal	lr, r5, r1, r2
  40778a:	f006 4200 	and.w	r2, r6, #2147483648	; 0x80000000
  40778e:	fbe0 e503 	umlal	lr, r5, r0, r3
  407792:	f04f 0600 	mov.w	r6, #0
  407796:	fbe1 5603 	umlal	r5, r6, r1, r3
  40779a:	f09c 0f00 	teq	ip, #0
  40779e:	bf18      	it	ne
  4077a0:	f04e 0e01 	orrne.w	lr, lr, #1
  4077a4:	f1a4 04ff 	sub.w	r4, r4, #255	; 0xff
  4077a8:	f5b6 7f00 	cmp.w	r6, #512	; 0x200
  4077ac:	f564 7440 	sbc.w	r4, r4, #768	; 0x300
  4077b0:	d204      	bcs.n	4077bc <__aeabi_dmul+0x80>
  4077b2:	ea5f 0e4e 	movs.w	lr, lr, lsl #1
  4077b6:	416d      	adcs	r5, r5
  4077b8:	eb46 0606 	adc.w	r6, r6, r6
  4077bc:	ea42 21c6 	orr.w	r1, r2, r6, lsl #11
  4077c0:	ea41 5155 	orr.w	r1, r1, r5, lsr #21
  4077c4:	ea4f 20c5 	mov.w	r0, r5, lsl #11
  4077c8:	ea40 505e 	orr.w	r0, r0, lr, lsr #21
  4077cc:	ea4f 2ece 	mov.w	lr, lr, lsl #11
  4077d0:	f1b4 0cfd 	subs.w	ip, r4, #253	; 0xfd
  4077d4:	bf88      	it	hi
  4077d6:	f5bc 6fe0 	cmphi.w	ip, #1792	; 0x700
  4077da:	d81e      	bhi.n	40781a <__aeabi_dmul+0xde>
  4077dc:	f1be 4f00 	cmp.w	lr, #2147483648	; 0x80000000
  4077e0:	bf08      	it	eq
  4077e2:	ea5f 0e50 	movseq.w	lr, r0, lsr #1
  4077e6:	f150 0000 	adcs.w	r0, r0, #0
  4077ea:	eb41 5104 	adc.w	r1, r1, r4, lsl #20
  4077ee:	bd70      	pop	{r4, r5, r6, pc}
  4077f0:	f006 4600 	and.w	r6, r6, #2147483648	; 0x80000000
  4077f4:	ea46 0101 	orr.w	r1, r6, r1
  4077f8:	ea40 0002 	orr.w	r0, r0, r2
  4077fc:	ea81 0103 	eor.w	r1, r1, r3
  407800:	ebb4 045c 	subs.w	r4, r4, ip, lsr #1
  407804:	bfc2      	ittt	gt
  407806:	ebd4 050c 	rsbsgt	r5, r4, ip
  40780a:	ea41 5104 	orrgt.w	r1, r1, r4, lsl #20
  40780e:	bd70      	popgt	{r4, r5, r6, pc}
  407810:	f441 1180 	orr.w	r1, r1, #1048576	; 0x100000
  407814:	f04f 0e00 	mov.w	lr, #0
  407818:	3c01      	subs	r4, #1
  40781a:	f300 80ab 	bgt.w	407974 <__aeabi_dmul+0x238>
  40781e:	f114 0f36 	cmn.w	r4, #54	; 0x36
  407822:	bfde      	ittt	le
  407824:	2000      	movle	r0, #0
  407826:	f001 4100 	andle.w	r1, r1, #2147483648	; 0x80000000
  40782a:	bd70      	pople	{r4, r5, r6, pc}
  40782c:	f1c4 0400 	rsb	r4, r4, #0
  407830:	3c20      	subs	r4, #32
  407832:	da35      	bge.n	4078a0 <__aeabi_dmul+0x164>
  407834:	340c      	adds	r4, #12
  407836:	dc1b      	bgt.n	407870 <__aeabi_dmul+0x134>
  407838:	f104 0414 	add.w	r4, r4, #20
  40783c:	f1c4 0520 	rsb	r5, r4, #32
  407840:	fa00 f305 	lsl.w	r3, r0, r5
  407844:	fa20 f004 	lsr.w	r0, r0, r4
  407848:	fa01 f205 	lsl.w	r2, r1, r5
  40784c:	ea40 0002 	orr.w	r0, r0, r2
  407850:	f001 4200 	and.w	r2, r1, #2147483648	; 0x80000000
  407854:	f021 4100 	bic.w	r1, r1, #2147483648	; 0x80000000
  407858:	eb10 70d3 	adds.w	r0, r0, r3, lsr #31
  40785c:	fa21 f604 	lsr.w	r6, r1, r4
  407860:	eb42 0106 	adc.w	r1, r2, r6
  407864:	ea5e 0e43 	orrs.w	lr, lr, r3, lsl #1
  407868:	bf08      	it	eq
  40786a:	ea20 70d3 	biceq.w	r0, r0, r3, lsr #31
  40786e:	bd70      	pop	{r4, r5, r6, pc}
  407870:	f1c4 040c 	rsb	r4, r4, #12
  407874:	f1c4 0520 	rsb	r5, r4, #32
  407878:	fa00 f304 	lsl.w	r3, r0, r4
  40787c:	fa20 f005 	lsr.w	r0, r0, r5
  407880:	fa01 f204 	lsl.w	r2, r1, r4
  407884:	ea40 0002 	orr.w	r0, r0, r2
  407888:	f001 4100 	and.w	r1, r1, #2147483648	; 0x80000000
  40788c:	eb10 70d3 	adds.w	r0, r0, r3, lsr #31
  407890:	f141 0100 	adc.w	r1, r1, #0
  407894:	ea5e 0e43 	orrs.w	lr, lr, r3, lsl #1
  407898:	bf08      	it	eq
  40789a:	ea20 70d3 	biceq.w	r0, r0, r3, lsr #31
  40789e:	bd70      	pop	{r4, r5, r6, pc}
  4078a0:	f1c4 0520 	rsb	r5, r4, #32
  4078a4:	fa00 f205 	lsl.w	r2, r0, r5
  4078a8:	ea4e 0e02 	orr.w	lr, lr, r2
  4078ac:	fa20 f304 	lsr.w	r3, r0, r4
  4078b0:	fa01 f205 	lsl.w	r2, r1, r5
  4078b4:	ea43 0302 	orr.w	r3, r3, r2
  4078b8:	fa21 f004 	lsr.w	r0, r1, r4
  4078bc:	f001 4100 	and.w	r1, r1, #2147483648	; 0x80000000
  4078c0:	fa21 f204 	lsr.w	r2, r1, r4
  4078c4:	ea20 0002 	bic.w	r0, r0, r2
  4078c8:	eb00 70d3 	add.w	r0, r0, r3, lsr #31
  4078cc:	ea5e 0e43 	orrs.w	lr, lr, r3, lsl #1
  4078d0:	bf08      	it	eq
  4078d2:	ea20 70d3 	biceq.w	r0, r0, r3, lsr #31
  4078d6:	bd70      	pop	{r4, r5, r6, pc}
  4078d8:	f094 0f00 	teq	r4, #0
  4078dc:	d10f      	bne.n	4078fe <__aeabi_dmul+0x1c2>
  4078de:	f001 4600 	and.w	r6, r1, #2147483648	; 0x80000000
  4078e2:	0040      	lsls	r0, r0, #1
  4078e4:	eb41 0101 	adc.w	r1, r1, r1
  4078e8:	f411 1f80 	tst.w	r1, #1048576	; 0x100000
  4078ec:	bf08      	it	eq
  4078ee:	3c01      	subeq	r4, #1
  4078f0:	d0f7      	beq.n	4078e2 <__aeabi_dmul+0x1a6>
  4078f2:	ea41 0106 	orr.w	r1, r1, r6
  4078f6:	f095 0f00 	teq	r5, #0
  4078fa:	bf18      	it	ne
  4078fc:	4770      	bxne	lr
  4078fe:	f003 4600 	and.w	r6, r3, #2147483648	; 0x80000000
  407902:	0052      	lsls	r2, r2, #1
  407904:	eb43 0303 	adc.w	r3, r3, r3
  407908:	f413 1f80 	tst.w	r3, #1048576	; 0x100000
  40790c:	bf08      	it	eq
  40790e:	3d01      	subeq	r5, #1
  407910:	d0f7      	beq.n	407902 <__aeabi_dmul+0x1c6>
  407912:	ea43 0306 	orr.w	r3, r3, r6
  407916:	4770      	bx	lr
  407918:	ea94 0f0c 	teq	r4, ip
  40791c:	ea0c 5513 	and.w	r5, ip, r3, lsr #20
  407920:	bf18      	it	ne
  407922:	ea95 0f0c 	teqne	r5, ip
  407926:	d00c      	beq.n	407942 <__aeabi_dmul+0x206>
  407928:	ea50 0641 	orrs.w	r6, r0, r1, lsl #1
  40792c:	bf18      	it	ne
  40792e:	ea52 0643 	orrsne.w	r6, r2, r3, lsl #1
  407932:	d1d1      	bne.n	4078d8 <__aeabi_dmul+0x19c>
  407934:	ea81 0103 	eor.w	r1, r1, r3
  407938:	f001 4100 	and.w	r1, r1, #2147483648	; 0x80000000
  40793c:	f04f 0000 	mov.w	r0, #0
  407940:	bd70      	pop	{r4, r5, r6, pc}
  407942:	ea50 0641 	orrs.w	r6, r0, r1, lsl #1
  407946:	bf06      	itte	eq
  407948:	4610      	moveq	r0, r2
  40794a:	4619      	moveq	r1, r3
  40794c:	ea52 0643 	orrsne.w	r6, r2, r3, lsl #1
  407950:	d019      	beq.n	407986 <__aeabi_dmul+0x24a>
  407952:	ea94 0f0c 	teq	r4, ip
  407956:	d102      	bne.n	40795e <__aeabi_dmul+0x222>
  407958:	ea50 3601 	orrs.w	r6, r0, r1, lsl #12
  40795c:	d113      	bne.n	407986 <__aeabi_dmul+0x24a>
  40795e:	ea95 0f0c 	teq	r5, ip
  407962:	d105      	bne.n	407970 <__aeabi_dmul+0x234>
  407964:	ea52 3603 	orrs.w	r6, r2, r3, lsl #12
  407968:	bf1c      	itt	ne
  40796a:	4610      	movne	r0, r2
  40796c:	4619      	movne	r1, r3
  40796e:	d10a      	bne.n	407986 <__aeabi_dmul+0x24a>
  407970:	ea81 0103 	eor.w	r1, r1, r3
  407974:	f001 4100 	and.w	r1, r1, #2147483648	; 0x80000000
  407978:	f041 41fe 	orr.w	r1, r1, #2130706432	; 0x7f000000
  40797c:	f441 0170 	orr.w	r1, r1, #15728640	; 0xf00000
  407980:	f04f 0000 	mov.w	r0, #0
  407984:	bd70      	pop	{r4, r5, r6, pc}
  407986:	f041 41fe 	orr.w	r1, r1, #2130706432	; 0x7f000000
  40798a:	f441 0178 	orr.w	r1, r1, #16252928	; 0xf80000
  40798e:	bd70      	pop	{r4, r5, r6, pc}

00407990 <__aeabi_ddiv>:
  407990:	b570      	push	{r4, r5, r6, lr}
  407992:	f04f 0cff 	mov.w	ip, #255	; 0xff
  407996:	f44c 6ce0 	orr.w	ip, ip, #1792	; 0x700
  40799a:	ea1c 5411 	ands.w	r4, ip, r1, lsr #20
  40799e:	bf1d      	ittte	ne
  4079a0:	ea1c 5513 	andsne.w	r5, ip, r3, lsr #20
  4079a4:	ea94 0f0c 	teqne	r4, ip
  4079a8:	ea95 0f0c 	teqne	r5, ip
  4079ac:	f000 f8a7 	bleq	407afe <__aeabi_ddiv+0x16e>
  4079b0:	eba4 0405 	sub.w	r4, r4, r5
  4079b4:	ea81 0e03 	eor.w	lr, r1, r3
  4079b8:	ea52 3503 	orrs.w	r5, r2, r3, lsl #12
  4079bc:	ea4f 3101 	mov.w	r1, r1, lsl #12
  4079c0:	f000 8088 	beq.w	407ad4 <__aeabi_ddiv+0x144>
  4079c4:	ea4f 3303 	mov.w	r3, r3, lsl #12
  4079c8:	f04f 5580 	mov.w	r5, #268435456	; 0x10000000
  4079cc:	ea45 1313 	orr.w	r3, r5, r3, lsr #4
  4079d0:	ea43 6312 	orr.w	r3, r3, r2, lsr #24
  4079d4:	ea4f 2202 	mov.w	r2, r2, lsl #8
  4079d8:	ea45 1511 	orr.w	r5, r5, r1, lsr #4
  4079dc:	ea45 6510 	orr.w	r5, r5, r0, lsr #24
  4079e0:	ea4f 2600 	mov.w	r6, r0, lsl #8
  4079e4:	f00e 4100 	and.w	r1, lr, #2147483648	; 0x80000000
  4079e8:	429d      	cmp	r5, r3
  4079ea:	bf08      	it	eq
  4079ec:	4296      	cmpeq	r6, r2
  4079ee:	f144 04fd 	adc.w	r4, r4, #253	; 0xfd
  4079f2:	f504 7440 	add.w	r4, r4, #768	; 0x300
  4079f6:	d202      	bcs.n	4079fe <__aeabi_ddiv+0x6e>
  4079f8:	085b      	lsrs	r3, r3, #1
  4079fa:	ea4f 0232 	mov.w	r2, r2, rrx
  4079fe:	1ab6      	subs	r6, r6, r2
  407a00:	eb65 0503 	sbc.w	r5, r5, r3
  407a04:	085b      	lsrs	r3, r3, #1
  407a06:	ea4f 0232 	mov.w	r2, r2, rrx
  407a0a:	f44f 1080 	mov.w	r0, #1048576	; 0x100000
  407a0e:	f44f 2c00 	mov.w	ip, #524288	; 0x80000
  407a12:	ebb6 0e02 	subs.w	lr, r6, r2
  407a16:	eb75 0e03 	sbcs.w	lr, r5, r3
  407a1a:	bf22      	ittt	cs
  407a1c:	1ab6      	subcs	r6, r6, r2
  407a1e:	4675      	movcs	r5, lr
  407a20:	ea40 000c 	orrcs.w	r0, r0, ip
  407a24:	085b      	lsrs	r3, r3, #1
  407a26:	ea4f 0232 	mov.w	r2, r2, rrx
  407a2a:	ebb6 0e02 	subs.w	lr, r6, r2
  407a2e:	eb75 0e03 	sbcs.w	lr, r5, r3
  407a32:	bf22      	ittt	cs
  407a34:	1ab6      	subcs	r6, r6, r2
  407a36:	4675      	movcs	r5, lr
  407a38:	ea40 005c 	orrcs.w	r0, r0, ip, lsr #1
  407a3c:	085b      	lsrs	r3, r3, #1
  407a3e:	ea4f 0232 	mov.w	r2, r2, rrx
  407a42:	ebb6 0e02 	subs.w	lr, r6, r2
  407a46:	eb75 0e03 	sbcs.w	lr, r5, r3
  407a4a:	bf22      	ittt	cs
  407a4c:	1ab6      	subcs	r6, r6, r2
  407a4e:	4675      	movcs	r5, lr
  407a50:	ea40 009c 	orrcs.w	r0, r0, ip, lsr #2
  407a54:	085b      	lsrs	r3, r3, #1
  407a56:	ea4f 0232 	mov.w	r2, r2, rrx
  407a5a:	ebb6 0e02 	subs.w	lr, r6, r2
  407a5e:	eb75 0e03 	sbcs.w	lr, r5, r3
  407a62:	bf22      	ittt	cs
  407a64:	1ab6      	subcs	r6, r6, r2
  407a66:	4675      	movcs	r5, lr
  407a68:	ea40 00dc 	orrcs.w	r0, r0, ip, lsr #3
  407a6c:	ea55 0e06 	orrs.w	lr, r5, r6
  407a70:	d018      	beq.n	407aa4 <__aeabi_ddiv+0x114>
  407a72:	ea4f 1505 	mov.w	r5, r5, lsl #4
  407a76:	ea45 7516 	orr.w	r5, r5, r6, lsr #28
  407a7a:	ea4f 1606 	mov.w	r6, r6, lsl #4
  407a7e:	ea4f 03c3 	mov.w	r3, r3, lsl #3
  407a82:	ea43 7352 	orr.w	r3, r3, r2, lsr #29
  407a86:	ea4f 02c2 	mov.w	r2, r2, lsl #3
  407a8a:	ea5f 1c1c 	movs.w	ip, ip, lsr #4
  407a8e:	d1c0      	bne.n	407a12 <__aeabi_ddiv+0x82>
  407a90:	f411 1f80 	tst.w	r1, #1048576	; 0x100000
  407a94:	d10b      	bne.n	407aae <__aeabi_ddiv+0x11e>
  407a96:	ea41 0100 	orr.w	r1, r1, r0
  407a9a:	f04f 0000 	mov.w	r0, #0
  407a9e:	f04f 4c00 	mov.w	ip, #2147483648	; 0x80000000
  407aa2:	e7b6      	b.n	407a12 <__aeabi_ddiv+0x82>
  407aa4:	f411 1f80 	tst.w	r1, #1048576	; 0x100000
  407aa8:	bf04      	itt	eq
  407aaa:	4301      	orreq	r1, r0
  407aac:	2000      	moveq	r0, #0
  407aae:	f1b4 0cfd 	subs.w	ip, r4, #253	; 0xfd
  407ab2:	bf88      	it	hi
  407ab4:	f5bc 6fe0 	cmphi.w	ip, #1792	; 0x700
  407ab8:	f63f aeaf 	bhi.w	40781a <__aeabi_dmul+0xde>
  407abc:	ebb5 0c03 	subs.w	ip, r5, r3
  407ac0:	bf04      	itt	eq
  407ac2:	ebb6 0c02 	subseq.w	ip, r6, r2
  407ac6:	ea5f 0c50 	movseq.w	ip, r0, lsr #1
  407aca:	f150 0000 	adcs.w	r0, r0, #0
  407ace:	eb41 5104 	adc.w	r1, r1, r4, lsl #20
  407ad2:	bd70      	pop	{r4, r5, r6, pc}
  407ad4:	f00e 4e00 	and.w	lr, lr, #2147483648	; 0x80000000
  407ad8:	ea4e 3111 	orr.w	r1, lr, r1, lsr #12
  407adc:	eb14 045c 	adds.w	r4, r4, ip, lsr #1
  407ae0:	bfc2      	ittt	gt
  407ae2:	ebd4 050c 	rsbsgt	r5, r4, ip
  407ae6:	ea41 5104 	orrgt.w	r1, r1, r4, lsl #20
  407aea:	bd70      	popgt	{r4, r5, r6, pc}
  407aec:	f441 1180 	orr.w	r1, r1, #1048576	; 0x100000
  407af0:	f04f 0e00 	mov.w	lr, #0
  407af4:	3c01      	subs	r4, #1
  407af6:	e690      	b.n	40781a <__aeabi_dmul+0xde>
  407af8:	ea45 0e06 	orr.w	lr, r5, r6
  407afc:	e68d      	b.n	40781a <__aeabi_dmul+0xde>
  407afe:	ea0c 5513 	and.w	r5, ip, r3, lsr #20
  407b02:	ea94 0f0c 	teq	r4, ip
  407b06:	bf08      	it	eq
  407b08:	ea95 0f0c 	teqeq	r5, ip
  407b0c:	f43f af3b 	beq.w	407986 <__aeabi_dmul+0x24a>
  407b10:	ea94 0f0c 	teq	r4, ip
  407b14:	d10a      	bne.n	407b2c <__aeabi_ddiv+0x19c>
  407b16:	ea50 3401 	orrs.w	r4, r0, r1, lsl #12
  407b1a:	f47f af34 	bne.w	407986 <__aeabi_dmul+0x24a>
  407b1e:	ea95 0f0c 	teq	r5, ip
  407b22:	f47f af25 	bne.w	407970 <__aeabi_dmul+0x234>
  407b26:	4610      	mov	r0, r2
  407b28:	4619      	mov	r1, r3
  407b2a:	e72c      	b.n	407986 <__aeabi_dmul+0x24a>
  407b2c:	ea95 0f0c 	teq	r5, ip
  407b30:	d106      	bne.n	407b40 <__aeabi_ddiv+0x1b0>
  407b32:	ea52 3503 	orrs.w	r5, r2, r3, lsl #12
  407b36:	f43f aefd 	beq.w	407934 <__aeabi_dmul+0x1f8>
  407b3a:	4610      	mov	r0, r2
  407b3c:	4619      	mov	r1, r3
  407b3e:	e722      	b.n	407986 <__aeabi_dmul+0x24a>
  407b40:	ea50 0641 	orrs.w	r6, r0, r1, lsl #1
  407b44:	bf18      	it	ne
  407b46:	ea52 0643 	orrsne.w	r6, r2, r3, lsl #1
  407b4a:	f47f aec5 	bne.w	4078d8 <__aeabi_dmul+0x19c>
  407b4e:	ea50 0441 	orrs.w	r4, r0, r1, lsl #1
  407b52:	f47f af0d 	bne.w	407970 <__aeabi_dmul+0x234>
  407b56:	ea52 0543 	orrs.w	r5, r2, r3, lsl #1
  407b5a:	f47f aeeb 	bne.w	407934 <__aeabi_dmul+0x1f8>
  407b5e:	e712      	b.n	407986 <__aeabi_dmul+0x24a>

00407b60 <__gedf2>:
  407b60:	f04f 3cff 	mov.w	ip, #4294967295
  407b64:	e006      	b.n	407b74 <__cmpdf2+0x4>
  407b66:	bf00      	nop

00407b68 <__ledf2>:
  407b68:	f04f 0c01 	mov.w	ip, #1
  407b6c:	e002      	b.n	407b74 <__cmpdf2+0x4>
  407b6e:	bf00      	nop

00407b70 <__cmpdf2>:
  407b70:	f04f 0c01 	mov.w	ip, #1
  407b74:	f84d cd04 	str.w	ip, [sp, #-4]!
  407b78:	ea4f 0c41 	mov.w	ip, r1, lsl #1
  407b7c:	ea7f 5c6c 	mvns.w	ip, ip, asr #21
  407b80:	ea4f 0c43 	mov.w	ip, r3, lsl #1
  407b84:	bf18      	it	ne
  407b86:	ea7f 5c6c 	mvnsne.w	ip, ip, asr #21
  407b8a:	d01b      	beq.n	407bc4 <__cmpdf2+0x54>
  407b8c:	b001      	add	sp, #4
  407b8e:	ea50 0c41 	orrs.w	ip, r0, r1, lsl #1
  407b92:	bf0c      	ite	eq
  407b94:	ea52 0c43 	orrseq.w	ip, r2, r3, lsl #1
  407b98:	ea91 0f03 	teqne	r1, r3
  407b9c:	bf02      	ittt	eq
  407b9e:	ea90 0f02 	teqeq	r0, r2
  407ba2:	2000      	moveq	r0, #0
  407ba4:	4770      	bxeq	lr
  407ba6:	f110 0f00 	cmn.w	r0, #0
  407baa:	ea91 0f03 	teq	r1, r3
  407bae:	bf58      	it	pl
  407bb0:	4299      	cmppl	r1, r3
  407bb2:	bf08      	it	eq
  407bb4:	4290      	cmpeq	r0, r2
  407bb6:	bf2c      	ite	cs
  407bb8:	17d8      	asrcs	r0, r3, #31
  407bba:	ea6f 70e3 	mvncc.w	r0, r3, asr #31
  407bbe:	f040 0001 	orr.w	r0, r0, #1
  407bc2:	4770      	bx	lr
  407bc4:	ea4f 0c41 	mov.w	ip, r1, lsl #1
  407bc8:	ea7f 5c6c 	mvns.w	ip, ip, asr #21
  407bcc:	d102      	bne.n	407bd4 <__cmpdf2+0x64>
  407bce:	ea50 3c01 	orrs.w	ip, r0, r1, lsl #12
  407bd2:	d107      	bne.n	407be4 <__cmpdf2+0x74>
  407bd4:	ea4f 0c43 	mov.w	ip, r3, lsl #1
  407bd8:	ea7f 5c6c 	mvns.w	ip, ip, asr #21
  407bdc:	d1d6      	bne.n	407b8c <__cmpdf2+0x1c>
  407bde:	ea52 3c03 	orrs.w	ip, r2, r3, lsl #12
  407be2:	d0d3      	beq.n	407b8c <__cmpdf2+0x1c>
  407be4:	f85d 0b04 	ldr.w	r0, [sp], #4
  407be8:	4770      	bx	lr
  407bea:	bf00      	nop

00407bec <__aeabi_cdrcmple>:
  407bec:	4684      	mov	ip, r0
  407bee:	4610      	mov	r0, r2
  407bf0:	4662      	mov	r2, ip
  407bf2:	468c      	mov	ip, r1
  407bf4:	4619      	mov	r1, r3
  407bf6:	4663      	mov	r3, ip
  407bf8:	e000      	b.n	407bfc <__aeabi_cdcmpeq>
  407bfa:	bf00      	nop

00407bfc <__aeabi_cdcmpeq>:
  407bfc:	b501      	push	{r0, lr}
  407bfe:	f7ff ffb7 	bl	407b70 <__cmpdf2>
  407c02:	2800      	cmp	r0, #0
  407c04:	bf48      	it	mi
  407c06:	f110 0f00 	cmnmi.w	r0, #0
  407c0a:	bd01      	pop	{r0, pc}

00407c0c <__aeabi_dcmpeq>:
  407c0c:	f84d ed08 	str.w	lr, [sp, #-8]!
  407c10:	f7ff fff4 	bl	407bfc <__aeabi_cdcmpeq>
  407c14:	bf0c      	ite	eq
  407c16:	2001      	moveq	r0, #1
  407c18:	2000      	movne	r0, #0
  407c1a:	f85d fb08 	ldr.w	pc, [sp], #8
  407c1e:	bf00      	nop

00407c20 <__aeabi_dcmplt>:
  407c20:	f84d ed08 	str.w	lr, [sp, #-8]!
  407c24:	f7ff ffea 	bl	407bfc <__aeabi_cdcmpeq>
  407c28:	bf34      	ite	cc
  407c2a:	2001      	movcc	r0, #1
  407c2c:	2000      	movcs	r0, #0
  407c2e:	f85d fb08 	ldr.w	pc, [sp], #8
  407c32:	bf00      	nop

00407c34 <__aeabi_dcmple>:
  407c34:	f84d ed08 	str.w	lr, [sp, #-8]!
  407c38:	f7ff ffe0 	bl	407bfc <__aeabi_cdcmpeq>
  407c3c:	bf94      	ite	ls
  407c3e:	2001      	movls	r0, #1
  407c40:	2000      	movhi	r0, #0
  407c42:	f85d fb08 	ldr.w	pc, [sp], #8
  407c46:	bf00      	nop

00407c48 <__aeabi_dcmpge>:
  407c48:	f84d ed08 	str.w	lr, [sp, #-8]!
  407c4c:	f7ff ffce 	bl	407bec <__aeabi_cdrcmple>
  407c50:	bf94      	ite	ls
  407c52:	2001      	movls	r0, #1
  407c54:	2000      	movhi	r0, #0
  407c56:	f85d fb08 	ldr.w	pc, [sp], #8
  407c5a:	bf00      	nop

00407c5c <__aeabi_dcmpgt>:
  407c5c:	f84d ed08 	str.w	lr, [sp, #-8]!
  407c60:	f7ff ffc4 	bl	407bec <__aeabi_cdrcmple>
  407c64:	bf34      	ite	cc
  407c66:	2001      	movcc	r0, #1
  407c68:	2000      	movcs	r0, #0
  407c6a:	f85d fb08 	ldr.w	pc, [sp], #8
  407c6e:	bf00      	nop

00407c70 <__aeabi_dcmpun>:
  407c70:	ea4f 0c41 	mov.w	ip, r1, lsl #1
  407c74:	ea7f 5c6c 	mvns.w	ip, ip, asr #21
  407c78:	d102      	bne.n	407c80 <__aeabi_dcmpun+0x10>
  407c7a:	ea50 3c01 	orrs.w	ip, r0, r1, lsl #12
  407c7e:	d10a      	bne.n	407c96 <__aeabi_dcmpun+0x26>
  407c80:	ea4f 0c43 	mov.w	ip, r3, lsl #1
  407c84:	ea7f 5c6c 	mvns.w	ip, ip, asr #21
  407c88:	d102      	bne.n	407c90 <__aeabi_dcmpun+0x20>
  407c8a:	ea52 3c03 	orrs.w	ip, r2, r3, lsl #12
  407c8e:	d102      	bne.n	407c96 <__aeabi_dcmpun+0x26>
  407c90:	f04f 0000 	mov.w	r0, #0
  407c94:	4770      	bx	lr
  407c96:	f04f 0001 	mov.w	r0, #1
  407c9a:	4770      	bx	lr

00407c9c <__aeabi_d2iz>:
  407c9c:	ea4f 0241 	mov.w	r2, r1, lsl #1
  407ca0:	f512 1200 	adds.w	r2, r2, #2097152	; 0x200000
  407ca4:	d215      	bcs.n	407cd2 <__aeabi_d2iz+0x36>
  407ca6:	d511      	bpl.n	407ccc <__aeabi_d2iz+0x30>
  407ca8:	f46f 7378 	mvn.w	r3, #992	; 0x3e0
  407cac:	ebb3 5262 	subs.w	r2, r3, r2, asr #21
  407cb0:	d912      	bls.n	407cd8 <__aeabi_d2iz+0x3c>
  407cb2:	ea4f 23c1 	mov.w	r3, r1, lsl #11
  407cb6:	f043 4300 	orr.w	r3, r3, #2147483648	; 0x80000000
  407cba:	ea43 5350 	orr.w	r3, r3, r0, lsr #21
  407cbe:	f011 4f00 	tst.w	r1, #2147483648	; 0x80000000
  407cc2:	fa23 f002 	lsr.w	r0, r3, r2
  407cc6:	bf18      	it	ne
  407cc8:	4240      	negne	r0, r0
  407cca:	4770      	bx	lr
  407ccc:	f04f 0000 	mov.w	r0, #0
  407cd0:	4770      	bx	lr
  407cd2:	ea50 3001 	orrs.w	r0, r0, r1, lsl #12
  407cd6:	d105      	bne.n	407ce4 <__aeabi_d2iz+0x48>
  407cd8:	f011 4000 	ands.w	r0, r1, #2147483648	; 0x80000000
  407cdc:	bf08      	it	eq
  407cde:	f06f 4000 	mvneq.w	r0, #2147483648	; 0x80000000
  407ce2:	4770      	bx	lr
  407ce4:	f04f 0000 	mov.w	r0, #0
  407ce8:	4770      	bx	lr
  407cea:	bf00      	nop

00407cec <__aeabi_uldivmod>:
  407cec:	b953      	cbnz	r3, 407d04 <__aeabi_uldivmod+0x18>
  407cee:	b94a      	cbnz	r2, 407d04 <__aeabi_uldivmod+0x18>
  407cf0:	2900      	cmp	r1, #0
  407cf2:	bf08      	it	eq
  407cf4:	2800      	cmpeq	r0, #0
  407cf6:	bf1c      	itt	ne
  407cf8:	f04f 31ff 	movne.w	r1, #4294967295
  407cfc:	f04f 30ff 	movne.w	r0, #4294967295
  407d00:	f000 b97a 	b.w	407ff8 <__aeabi_idiv0>
  407d04:	f1ad 0c08 	sub.w	ip, sp, #8
  407d08:	e96d ce04 	strd	ip, lr, [sp, #-16]!
  407d0c:	f000 f806 	bl	407d1c <__udivmoddi4>
  407d10:	f8dd e004 	ldr.w	lr, [sp, #4]
  407d14:	e9dd 2302 	ldrd	r2, r3, [sp, #8]
  407d18:	b004      	add	sp, #16
  407d1a:	4770      	bx	lr

00407d1c <__udivmoddi4>:
  407d1c:	e92d 47f0 	stmdb	sp!, {r4, r5, r6, r7, r8, r9, sl, lr}
  407d20:	468c      	mov	ip, r1
  407d22:	460e      	mov	r6, r1
  407d24:	4604      	mov	r4, r0
  407d26:	9d08      	ldr	r5, [sp, #32]
  407d28:	2b00      	cmp	r3, #0
  407d2a:	d150      	bne.n	407dce <__udivmoddi4+0xb2>
  407d2c:	428a      	cmp	r2, r1
  407d2e:	4617      	mov	r7, r2
  407d30:	d96c      	bls.n	407e0c <__udivmoddi4+0xf0>
  407d32:	fab2 fe82 	clz	lr, r2
  407d36:	f1be 0f00 	cmp.w	lr, #0
  407d3a:	d00b      	beq.n	407d54 <__udivmoddi4+0x38>
  407d3c:	f1ce 0c20 	rsb	ip, lr, #32
  407d40:	fa01 f60e 	lsl.w	r6, r1, lr
  407d44:	fa20 fc0c 	lsr.w	ip, r0, ip
  407d48:	fa02 f70e 	lsl.w	r7, r2, lr
  407d4c:	ea4c 0c06 	orr.w	ip, ip, r6
  407d50:	fa00 f40e 	lsl.w	r4, r0, lr
  407d54:	0c3a      	lsrs	r2, r7, #16
  407d56:	fbbc f9f2 	udiv	r9, ip, r2
  407d5a:	b2bb      	uxth	r3, r7
  407d5c:	fb02 cc19 	mls	ip, r2, r9, ip
  407d60:	fb09 fa03 	mul.w	sl, r9, r3
  407d64:	ea4f 4814 	mov.w	r8, r4, lsr #16
  407d68:	ea48 460c 	orr.w	r6, r8, ip, lsl #16
  407d6c:	45b2      	cmp	sl, r6
  407d6e:	d90a      	bls.n	407d86 <__udivmoddi4+0x6a>
  407d70:	19f6      	adds	r6, r6, r7
  407d72:	f109 31ff 	add.w	r1, r9, #4294967295
  407d76:	f080 8125 	bcs.w	407fc4 <__udivmoddi4+0x2a8>
  407d7a:	45b2      	cmp	sl, r6
  407d7c:	f240 8122 	bls.w	407fc4 <__udivmoddi4+0x2a8>
  407d80:	f1a9 0902 	sub.w	r9, r9, #2
  407d84:	443e      	add	r6, r7
  407d86:	eba6 060a 	sub.w	r6, r6, sl
  407d8a:	fbb6 f0f2 	udiv	r0, r6, r2
  407d8e:	fb02 6610 	mls	r6, r2, r0, r6
  407d92:	fb00 f303 	mul.w	r3, r0, r3
  407d96:	b2a4      	uxth	r4, r4
  407d98:	ea44 4406 	orr.w	r4, r4, r6, lsl #16
  407d9c:	42a3      	cmp	r3, r4
  407d9e:	d909      	bls.n	407db4 <__udivmoddi4+0x98>
  407da0:	19e4      	adds	r4, r4, r7
  407da2:	f100 32ff 	add.w	r2, r0, #4294967295
  407da6:	f080 810b 	bcs.w	407fc0 <__udivmoddi4+0x2a4>
  407daa:	42a3      	cmp	r3, r4
  407dac:	f240 8108 	bls.w	407fc0 <__udivmoddi4+0x2a4>
  407db0:	3802      	subs	r0, #2
  407db2:	443c      	add	r4, r7
  407db4:	2100      	movs	r1, #0
  407db6:	1ae4      	subs	r4, r4, r3
  407db8:	ea40 4009 	orr.w	r0, r0, r9, lsl #16
  407dbc:	2d00      	cmp	r5, #0
  407dbe:	d062      	beq.n	407e86 <__udivmoddi4+0x16a>
  407dc0:	2300      	movs	r3, #0
  407dc2:	fa24 f40e 	lsr.w	r4, r4, lr
  407dc6:	602c      	str	r4, [r5, #0]
  407dc8:	606b      	str	r3, [r5, #4]
  407dca:	e8bd 87f0 	ldmia.w	sp!, {r4, r5, r6, r7, r8, r9, sl, pc}
  407dce:	428b      	cmp	r3, r1
  407dd0:	d907      	bls.n	407de2 <__udivmoddi4+0xc6>
  407dd2:	2d00      	cmp	r5, #0
  407dd4:	d055      	beq.n	407e82 <__udivmoddi4+0x166>
  407dd6:	2100      	movs	r1, #0
  407dd8:	e885 0041 	stmia.w	r5, {r0, r6}
  407ddc:	4608      	mov	r0, r1
  407dde:	e8bd 87f0 	ldmia.w	sp!, {r4, r5, r6, r7, r8, r9, sl, pc}
  407de2:	fab3 f183 	clz	r1, r3
  407de6:	2900      	cmp	r1, #0
  407de8:	f040 808f 	bne.w	407f0a <__udivmoddi4+0x1ee>
  407dec:	42b3      	cmp	r3, r6
  407dee:	d302      	bcc.n	407df6 <__udivmoddi4+0xda>
  407df0:	4282      	cmp	r2, r0
  407df2:	f200 80fc 	bhi.w	407fee <__udivmoddi4+0x2d2>
  407df6:	1a84      	subs	r4, r0, r2
  407df8:	eb66 0603 	sbc.w	r6, r6, r3
  407dfc:	2001      	movs	r0, #1
  407dfe:	46b4      	mov	ip, r6
  407e00:	2d00      	cmp	r5, #0
  407e02:	d040      	beq.n	407e86 <__udivmoddi4+0x16a>
  407e04:	e885 1010 	stmia.w	r5, {r4, ip}
  407e08:	e8bd 87f0 	ldmia.w	sp!, {r4, r5, r6, r7, r8, r9, sl, pc}
  407e0c:	b912      	cbnz	r2, 407e14 <__udivmoddi4+0xf8>
  407e0e:	2701      	movs	r7, #1
  407e10:	fbb7 f7f2 	udiv	r7, r7, r2
  407e14:	fab7 fe87 	clz	lr, r7
  407e18:	f1be 0f00 	cmp.w	lr, #0
  407e1c:	d135      	bne.n	407e8a <__udivmoddi4+0x16e>
  407e1e:	2101      	movs	r1, #1
  407e20:	1bf6      	subs	r6, r6, r7
  407e22:	ea4f 4c17 	mov.w	ip, r7, lsr #16
  407e26:	fa1f f887 	uxth.w	r8, r7
  407e2a:	fbb6 f2fc 	udiv	r2, r6, ip
  407e2e:	fb0c 6612 	mls	r6, ip, r2, r6
  407e32:	fb08 f002 	mul.w	r0, r8, r2
  407e36:	0c23      	lsrs	r3, r4, #16
  407e38:	ea43 4606 	orr.w	r6, r3, r6, lsl #16
  407e3c:	42b0      	cmp	r0, r6
  407e3e:	d907      	bls.n	407e50 <__udivmoddi4+0x134>
  407e40:	19f6      	adds	r6, r6, r7
  407e42:	f102 33ff 	add.w	r3, r2, #4294967295
  407e46:	d202      	bcs.n	407e4e <__udivmoddi4+0x132>
  407e48:	42b0      	cmp	r0, r6
  407e4a:	f200 80d2 	bhi.w	407ff2 <__udivmoddi4+0x2d6>
  407e4e:	461a      	mov	r2, r3
  407e50:	1a36      	subs	r6, r6, r0
  407e52:	fbb6 f0fc 	udiv	r0, r6, ip
  407e56:	fb0c 6610 	mls	r6, ip, r0, r6
  407e5a:	fb08 f800 	mul.w	r8, r8, r0
  407e5e:	b2a3      	uxth	r3, r4
  407e60:	ea43 4406 	orr.w	r4, r3, r6, lsl #16
  407e64:	45a0      	cmp	r8, r4
  407e66:	d907      	bls.n	407e78 <__udivmoddi4+0x15c>
  407e68:	19e4      	adds	r4, r4, r7
  407e6a:	f100 33ff 	add.w	r3, r0, #4294967295
  407e6e:	d202      	bcs.n	407e76 <__udivmoddi4+0x15a>
  407e70:	45a0      	cmp	r8, r4
  407e72:	f200 80b9 	bhi.w	407fe8 <__udivmoddi4+0x2cc>
  407e76:	4618      	mov	r0, r3
  407e78:	eba4 0408 	sub.w	r4, r4, r8
  407e7c:	ea40 4002 	orr.w	r0, r0, r2, lsl #16
  407e80:	e79c      	b.n	407dbc <__udivmoddi4+0xa0>
  407e82:	4629      	mov	r1, r5
  407e84:	4628      	mov	r0, r5
  407e86:	e8bd 87f0 	ldmia.w	sp!, {r4, r5, r6, r7, r8, r9, sl, pc}
  407e8a:	fa07 f70e 	lsl.w	r7, r7, lr
  407e8e:	f1ce 0320 	rsb	r3, lr, #32
  407e92:	fa26 f203 	lsr.w	r2, r6, r3
  407e96:	ea4f 4c17 	mov.w	ip, r7, lsr #16
  407e9a:	fbb2 f1fc 	udiv	r1, r2, ip
  407e9e:	fa1f f887 	uxth.w	r8, r7
  407ea2:	fb0c 2211 	mls	r2, ip, r1, r2
  407ea6:	fa06 f60e 	lsl.w	r6, r6, lr
  407eaa:	fa20 f303 	lsr.w	r3, r0, r3
  407eae:	fb01 f908 	mul.w	r9, r1, r8
  407eb2:	4333      	orrs	r3, r6
  407eb4:	0c1e      	lsrs	r6, r3, #16
  407eb6:	ea46 4602 	orr.w	r6, r6, r2, lsl #16
  407eba:	45b1      	cmp	r9, r6
  407ebc:	fa00 f40e 	lsl.w	r4, r0, lr
  407ec0:	d909      	bls.n	407ed6 <__udivmoddi4+0x1ba>
  407ec2:	19f6      	adds	r6, r6, r7
  407ec4:	f101 32ff 	add.w	r2, r1, #4294967295
  407ec8:	f080 808c 	bcs.w	407fe4 <__udivmoddi4+0x2c8>
  407ecc:	45b1      	cmp	r9, r6
  407ece:	f240 8089 	bls.w	407fe4 <__udivmoddi4+0x2c8>
  407ed2:	3902      	subs	r1, #2
  407ed4:	443e      	add	r6, r7
  407ed6:	eba6 0609 	sub.w	r6, r6, r9
  407eda:	fbb6 f0fc 	udiv	r0, r6, ip
  407ede:	fb0c 6210 	mls	r2, ip, r0, r6
  407ee2:	fb00 f908 	mul.w	r9, r0, r8
  407ee6:	b29e      	uxth	r6, r3
  407ee8:	ea46 4602 	orr.w	r6, r6, r2, lsl #16
  407eec:	45b1      	cmp	r9, r6
  407eee:	d907      	bls.n	407f00 <__udivmoddi4+0x1e4>
  407ef0:	19f6      	adds	r6, r6, r7
  407ef2:	f100 33ff 	add.w	r3, r0, #4294967295
  407ef6:	d271      	bcs.n	407fdc <__udivmoddi4+0x2c0>
  407ef8:	45b1      	cmp	r9, r6
  407efa:	d96f      	bls.n	407fdc <__udivmoddi4+0x2c0>
  407efc:	3802      	subs	r0, #2
  407efe:	443e      	add	r6, r7
  407f00:	eba6 0609 	sub.w	r6, r6, r9
  407f04:	ea40 4101 	orr.w	r1, r0, r1, lsl #16
  407f08:	e78f      	b.n	407e2a <__udivmoddi4+0x10e>
  407f0a:	f1c1 0720 	rsb	r7, r1, #32
  407f0e:	fa22 f807 	lsr.w	r8, r2, r7
  407f12:	408b      	lsls	r3, r1
  407f14:	ea48 0303 	orr.w	r3, r8, r3
  407f18:	fa26 f407 	lsr.w	r4, r6, r7
  407f1c:	ea4f 4e13 	mov.w	lr, r3, lsr #16
  407f20:	fbb4 f9fe 	udiv	r9, r4, lr
  407f24:	fa1f fc83 	uxth.w	ip, r3
  407f28:	fb0e 4419 	mls	r4, lr, r9, r4
  407f2c:	408e      	lsls	r6, r1
  407f2e:	fa20 f807 	lsr.w	r8, r0, r7
  407f32:	fb09 fa0c 	mul.w	sl, r9, ip
  407f36:	ea48 0806 	orr.w	r8, r8, r6
  407f3a:	ea4f 4618 	mov.w	r6, r8, lsr #16
  407f3e:	ea46 4404 	orr.w	r4, r6, r4, lsl #16
  407f42:	45a2      	cmp	sl, r4
  407f44:	fa02 f201 	lsl.w	r2, r2, r1
  407f48:	fa00 f601 	lsl.w	r6, r0, r1
  407f4c:	d908      	bls.n	407f60 <__udivmoddi4+0x244>
  407f4e:	18e4      	adds	r4, r4, r3
  407f50:	f109 30ff 	add.w	r0, r9, #4294967295
  407f54:	d244      	bcs.n	407fe0 <__udivmoddi4+0x2c4>
  407f56:	45a2      	cmp	sl, r4
  407f58:	d942      	bls.n	407fe0 <__udivmoddi4+0x2c4>
  407f5a:	f1a9 0902 	sub.w	r9, r9, #2
  407f5e:	441c      	add	r4, r3
  407f60:	eba4 040a 	sub.w	r4, r4, sl
  407f64:	fbb4 f0fe 	udiv	r0, r4, lr
  407f68:	fb0e 4410 	mls	r4, lr, r0, r4
  407f6c:	fb00 fc0c 	mul.w	ip, r0, ip
  407f70:	fa1f f888 	uxth.w	r8, r8
  407f74:	ea48 4404 	orr.w	r4, r8, r4, lsl #16
  407f78:	45a4      	cmp	ip, r4
  407f7a:	d907      	bls.n	407f8c <__udivmoddi4+0x270>
  407f7c:	18e4      	adds	r4, r4, r3
  407f7e:	f100 3eff 	add.w	lr, r0, #4294967295
  407f82:	d229      	bcs.n	407fd8 <__udivmoddi4+0x2bc>
  407f84:	45a4      	cmp	ip, r4
  407f86:	d927      	bls.n	407fd8 <__udivmoddi4+0x2bc>
  407f88:	3802      	subs	r0, #2
  407f8a:	441c      	add	r4, r3
  407f8c:	ea40 4009 	orr.w	r0, r0, r9, lsl #16
  407f90:	fba0 8902 	umull	r8, r9, r0, r2
  407f94:	eba4 0c0c 	sub.w	ip, r4, ip
  407f98:	45cc      	cmp	ip, r9
  407f9a:	46c2      	mov	sl, r8
  407f9c:	46ce      	mov	lr, r9
  407f9e:	d315      	bcc.n	407fcc <__udivmoddi4+0x2b0>
  407fa0:	d012      	beq.n	407fc8 <__udivmoddi4+0x2ac>
  407fa2:	b155      	cbz	r5, 407fba <__udivmoddi4+0x29e>
  407fa4:	ebb6 030a 	subs.w	r3, r6, sl
  407fa8:	eb6c 060e 	sbc.w	r6, ip, lr
  407fac:	fa06 f707 	lsl.w	r7, r6, r7
  407fb0:	40cb      	lsrs	r3, r1
  407fb2:	431f      	orrs	r7, r3
  407fb4:	40ce      	lsrs	r6, r1
  407fb6:	602f      	str	r7, [r5, #0]
  407fb8:	606e      	str	r6, [r5, #4]
  407fba:	2100      	movs	r1, #0
  407fbc:	e8bd 87f0 	ldmia.w	sp!, {r4, r5, r6, r7, r8, r9, sl, pc}
  407fc0:	4610      	mov	r0, r2
  407fc2:	e6f7      	b.n	407db4 <__udivmoddi4+0x98>
  407fc4:	4689      	mov	r9, r1
  407fc6:	e6de      	b.n	407d86 <__udivmoddi4+0x6a>
  407fc8:	4546      	cmp	r6, r8
  407fca:	d2ea      	bcs.n	407fa2 <__udivmoddi4+0x286>
  407fcc:	ebb8 0a02 	subs.w	sl, r8, r2
  407fd0:	eb69 0e03 	sbc.w	lr, r9, r3
  407fd4:	3801      	subs	r0, #1
  407fd6:	e7e4      	b.n	407fa2 <__udivmoddi4+0x286>
  407fd8:	4670      	mov	r0, lr
  407fda:	e7d7      	b.n	407f8c <__udivmoddi4+0x270>
  407fdc:	4618      	mov	r0, r3
  407fde:	e78f      	b.n	407f00 <__udivmoddi4+0x1e4>
  407fe0:	4681      	mov	r9, r0
  407fe2:	e7bd      	b.n	407f60 <__udivmoddi4+0x244>
  407fe4:	4611      	mov	r1, r2
  407fe6:	e776      	b.n	407ed6 <__udivmoddi4+0x1ba>
  407fe8:	3802      	subs	r0, #2
  407fea:	443c      	add	r4, r7
  407fec:	e744      	b.n	407e78 <__udivmoddi4+0x15c>
  407fee:	4608      	mov	r0, r1
  407ff0:	e706      	b.n	407e00 <__udivmoddi4+0xe4>
  407ff2:	3a02      	subs	r2, #2
  407ff4:	443e      	add	r6, r7
  407ff6:	e72b      	b.n	407e50 <__udivmoddi4+0x134>

00407ff8 <__aeabi_idiv0>:
  407ff8:	4770      	bx	lr
  407ffa:	bf00      	nop
  407ffc:	20514144 	.word	0x20514144
  408000:	6c6c6977 	.word	0x6c6c6977
  408004:	74746120 	.word	0x74746120
  408008:	74706d65 	.word	0x74706d65
  40800c:	206f7420 	.word	0x206f7420
  408010:	656b6174 	.word	0x656b6174
  408014:	20752520 	.word	0x20752520
  408018:	706d6173 	.word	0x706d6173
  40801c:	2073656c 	.word	0x2073656c
  408020:	20726570 	.word	0x20726570
  408024:	6e616863 	.word	0x6e616863
  408028:	0a6c656e 	.word	0x0a6c656e
  40802c:	0000000d 	.word	0x0000000d
  408030:	20434144 	.word	0x20434144
  408034:	6e616863 	.word	0x6e616863
  408038:	206c656e 	.word	0x206c656e
  40803c:	73207525 	.word	0x73207525
  408040:	74207465 	.word	0x74207465
  408044:	6425206f 	.word	0x6425206f
  408048:	0a566d20 	.word	0x0a566d20
  40804c:	0000000d 	.word	0x0000000d
  408050:	20514144 	.word	0x20514144
  408054:	6c6c6977 	.word	0x6c6c6977
  408058:	6d617320 	.word	0x6d617320
  40805c:	20656c70 	.word	0x20656c70
  408060:	206c6c61 	.word	0x206c6c61
  408064:	62616e65 	.word	0x62616e65
  408068:	2064656c 	.word	0x2064656c
  40806c:	6e616863 	.word	0x6e616863
  408070:	736c656e 	.word	0x736c656e
  408074:	20752520 	.word	0x20752520
  408078:	656d6974 	.word	0x656d6974
  40807c:	000d0a73 	.word	0x000d0a73
  408080:	706d6153 	.word	0x706d6153
  408084:	7020656c 	.word	0x7020656c
  408088:	6f697265 	.word	0x6f697265
  40808c:	65732064 	.word	0x65732064
  408090:	6f742074 	.word	0x6f742074
  408094:	20752520 	.word	0x20752520
  408098:	0d0a5375 	.word	0x0d0a5375
  40809c:	00000000 	.word	0x00000000
  4080a0:	75716553 	.word	0x75716553
  4080a4:	65636e65 	.word	0x65636e65
  4080a8:	74657320 	.word	0x74657320
  4080ac:	3a6f7420 	.word	0x3a6f7420
  4080b0:	2c752520 	.word	0x2c752520
  4080b4:	2c752520 	.word	0x2c752520
  4080b8:	2c752520 	.word	0x2c752520
  4080bc:	0a752520 	.word	0x0a752520
  4080c0:	0000000d 	.word	0x0000000d
  4080c4:	75716341 	.word	0x75716341
  4080c8:	74697369 	.word	0x74697369
  4080cc:	206e6f69 	.word	0x206e6f69
  4080d0:	72617473 	.word	0x72617473
  4080d4:	20646574 	.word	0x20646574
  4080d8:	41206e69 	.word	0x41206e69
  4080dc:	49494353 	.word	0x49494353
  4080e0:	00000d0a 	.word	0x00000d0a
  4080e4:	75716341 	.word	0x75716341
  4080e8:	74697369 	.word	0x74697369
  4080ec:	206e6f69 	.word	0x206e6f69
  4080f0:	72617473 	.word	0x72617473
  4080f4:	20646574 	.word	0x20646574
  4080f8:	62206e69 	.word	0x62206e69
  4080fc:	72616e69 	.word	0x72616e69
  408100:	000d0a79 	.word	0x000d0a79
  408104:	75716341 	.word	0x75716341
  408108:	74697369 	.word	0x74697369
  40810c:	206e6f69 	.word	0x206e6f69
  408110:	706f7473 	.word	0x706f7473
  408114:	0a646570 	.word	0x0a646570
  408118:	0000000d 	.word	0x0000000d
  40811c:	4f525245 	.word	0x4f525245
  408120:	65732052 	.word	0x65732052
  408124:	6e697474 	.word	0x6e697474
  408128:	6f632067 	.word	0x6f632067
  40812c:	6e616d6d 	.word	0x6e616d6d
  408130:	000d0a64 	.word	0x000d0a64
  408134:	6d6d6f43 	.word	0x6d6d6f43
  408138:	20646e61 	.word	0x20646e61
  40813c:	746e7973 	.word	0x746e7973
  408140:	45207861 	.word	0x45207861
  408144:	524f5252 	.word	0x524f5252
  408148:	00000d0a 	.word	0x00000d0a

0040814c <_global_impure_ptr>:
  40814c:	20000210 00464e49 00666e69 004e414e     ... INF.inf.NAN.
  40815c:	006e616e 33323130 37363534 42413938     nan.0123456789AB
  40816c:	46454443 00000000 33323130 37363534     CDEF....01234567
  40817c:	62613938 66656463 00000000 6c756e28     89abcdef....(nul
  40818c:	0000296c 00000030                       l)..0...

00408194 <blanks.7223>:
  408194:	20202020 20202020 20202020 20202020                     

004081a4 <zeroes.7224>:
  4081a4:	30303030 30303030 30303030 30303030     0000000000000000
  4081b4:	69666e49 7974696e 00000000 004e614e     Infinity....NaN.
  4081c4:	00000043 49534f50 00000058 0000002e     C...POSIX.......
  4081d4:	00000000                                ....

004081d8 <__mprec_bigtens>:
  4081d8:	37e08000 4341c379 b5056e17 4693b8b5     ...7y.AC.n.....F
  4081e8:	e93ff9f5 4d384f03 f9301d32 5a827748     ..?..O8M2.0.Hw.Z
  4081f8:	7f73bf3c 75154fdd                       <.s..O.u

00408200 <__mprec_tens>:
  408200:	00000000 3ff00000 00000000 40240000     .......?......$@
  408210:	00000000 40590000 00000000 408f4000     ......Y@.....@.@
  408220:	00000000 40c38800 00000000 40f86a00     .......@.....j.@
  408230:	00000000 412e8480 00000000 416312d0     .......A......cA
  408240:	00000000 4197d784 00000000 41cdcd65     .......A....e..A
  408250:	20000000 4202a05f e8000000 42374876     ... _..B....vH7B
  408260:	a2000000 426d1a94 e5400000 42a2309c     ......mB..@..0.B
  408270:	1e900000 42d6bcc4 26340000 430c6bf5     .......B..4&.k.C
  408280:	37e08000 4341c379 85d8a000 43763457     ...7y.AC....W4vC
  408290:	674ec800 43abc16d 60913d00 43e158e4     ..Ngm..C.=.`.X.C
  4082a0:	78b58c40 4415af1d d6e2ef50 444b1ae4     @..x...DP.....KD
  4082b0:	064dd592 4480f0cf c7e14af6 44b52d02     ..M....D.J...-.D
  4082c0:	79d99db4 44ea7843                       ...yCx.D

004082c8 <p05.6055>:
  4082c8:	00000005 00000019 0000007d              ........}...

004082d4 <_ctype_>:
  4082d4:	20202000 20202020 28282020 20282828     .         ((((( 
  4082e4:	20202020 20202020 20202020 20202020                     
  4082f4:	10108820 10101010 10101010 10101010      ...............
  408304:	04040410 04040404 10040404 10101010     ................
  408314:	41411010 41414141 01010101 01010101     ..AAAAAA........
  408324:	01010101 01010101 01010101 10101010     ................
  408334:	42421010 42424242 02020202 02020202     ..BBBBBB........
  408344:	02020202 02020202 02020202 10101010     ................
  408354:	00000020 00000000 00000000 00000000      ...............
	...

004083d8 <_init>:
  4083d8:	b5f8      	push	{r3, r4, r5, r6, r7, lr}
  4083da:	bf00      	nop
  4083dc:	bcf8      	pop	{r3, r4, r5, r6, r7}
  4083de:	bc08      	pop	{r3}
  4083e0:	469e      	mov	lr, r3
  4083e2:	4770      	bx	lr

004083e4 <__init_array_start>:
  4083e4:	00404ed9 	.word	0x00404ed9

004083e8 <__frame_dummy_init_array_entry>:
  4083e8:	004000f5                                ..@.

004083ec <_fini>:
  4083ec:	b5f8      	push	{r3, r4, r5, r6, r7, lr}
  4083ee:	bf00      	nop
  4083f0:	bcf8      	pop	{r3, r4, r5, r6, r7}
  4083f2:	bc08      	pop	{r3}
  4083f4:	469e      	mov	lr, r3
  4083f6:	4770      	bx	lr

004083f8 <__fini_array_start>:
  4083f8:	004000d1 	.word	0x004000d1

Disassembly of section .relocate:

20000000 <SystemInit>:
20000000:	f44f 7240 	mov.w	r2, #768	; 0x300
20000004:	4b1f      	ldr	r3, [pc, #124]	; (20000084 <SystemInit+0x84>)
20000006:	601a      	str	r2, [r3, #0]
20000008:	f5a3 63c0 	sub.w	r3, r3, #1536	; 0x600
2000000c:	6a1b      	ldr	r3, [r3, #32]
2000000e:	f013 7f80 	tst.w	r3, #16777216	; 0x1000000
20000012:	d107      	bne.n	20000024 <SystemInit+0x24>
20000014:	4a1c      	ldr	r2, [pc, #112]	; (20000088 <SystemInit+0x88>)
20000016:	4b1d      	ldr	r3, [pc, #116]	; (2000008c <SystemInit+0x8c>)
20000018:	621a      	str	r2, [r3, #32]
2000001a:	461a      	mov	r2, r3
2000001c:	6e93      	ldr	r3, [r2, #104]	; 0x68
2000001e:	f013 0f01 	tst.w	r3, #1
20000022:	d0fb      	beq.n	2000001c <SystemInit+0x1c>
20000024:	4a1a      	ldr	r2, [pc, #104]	; (20000090 <SystemInit+0x90>)
20000026:	4b19      	ldr	r3, [pc, #100]	; (2000008c <SystemInit+0x8c>)
20000028:	621a      	str	r2, [r3, #32]
2000002a:	461a      	mov	r2, r3
2000002c:	6e93      	ldr	r3, [r2, #104]	; 0x68
2000002e:	f413 3f80 	tst.w	r3, #65536	; 0x10000
20000032:	d0fb      	beq.n	2000002c <SystemInit+0x2c>
20000034:	4a15      	ldr	r2, [pc, #84]	; (2000008c <SystemInit+0x8c>)
20000036:	6b13      	ldr	r3, [r2, #48]	; 0x30
20000038:	f023 0303 	bic.w	r3, r3, #3
2000003c:	f043 0301 	orr.w	r3, r3, #1
20000040:	6313      	str	r3, [r2, #48]	; 0x30
20000042:	6e93      	ldr	r3, [r2, #104]	; 0x68
20000044:	f013 0f08 	tst.w	r3, #8
20000048:	d0fb      	beq.n	20000042 <SystemInit+0x42>
2000004a:	4a12      	ldr	r2, [pc, #72]	; (20000094 <SystemInit+0x94>)
2000004c:	4b0f      	ldr	r3, [pc, #60]	; (2000008c <SystemInit+0x8c>)
2000004e:	629a      	str	r2, [r3, #40]	; 0x28
20000050:	461a      	mov	r2, r3
20000052:	6e93      	ldr	r3, [r2, #104]	; 0x68
20000054:	f013 0f02 	tst.w	r3, #2
20000058:	d0fb      	beq.n	20000052 <SystemInit+0x52>
2000005a:	2211      	movs	r2, #17
2000005c:	4b0b      	ldr	r3, [pc, #44]	; (2000008c <SystemInit+0x8c>)
2000005e:	631a      	str	r2, [r3, #48]	; 0x30
20000060:	461a      	mov	r2, r3
20000062:	6e93      	ldr	r3, [r2, #104]	; 0x68
20000064:	f013 0f08 	tst.w	r3, #8
20000068:	d0fb      	beq.n	20000062 <SystemInit+0x62>
2000006a:	2212      	movs	r2, #18
2000006c:	4b07      	ldr	r3, [pc, #28]	; (2000008c <SystemInit+0x8c>)
2000006e:	631a      	str	r2, [r3, #48]	; 0x30
20000070:	461a      	mov	r2, r3
20000072:	6e93      	ldr	r3, [r2, #104]	; 0x68
20000074:	f013 0f08 	tst.w	r3, #8
20000078:	d0fb      	beq.n	20000072 <SystemInit+0x72>
2000007a:	4a07      	ldr	r2, [pc, #28]	; (20000098 <SystemInit+0x98>)
2000007c:	4b07      	ldr	r3, [pc, #28]	; (2000009c <SystemInit+0x9c>)
2000007e:	601a      	str	r2, [r3, #0]
20000080:	4770      	bx	lr
20000082:	bf00      	nop
20000084:	400e0a00 	.word	0x400e0a00
20000088:	00370809 	.word	0x00370809
2000008c:	400e0400 	.word	0x400e0400
20000090:	01370809 	.word	0x01370809
20000094:	201f3f03 	.word	0x201f3f03
20000098:	03d09000 	.word	0x03d09000
2000009c:	20000204 	.word	0x20000204

200000a0 <system_init_flash>:
200000a0:	4b0c      	ldr	r3, [pc, #48]	; (200000d4 <system_init_flash+0x34>)
200000a2:	4298      	cmp	r0, r3
200000a4:	d90c      	bls.n	200000c0 <system_init_flash+0x20>
200000a6:	4b0c      	ldr	r3, [pc, #48]	; (200000d8 <system_init_flash+0x38>)
200000a8:	4298      	cmp	r0, r3
200000aa:	d90d      	bls.n	200000c8 <system_init_flash+0x28>
200000ac:	4b0b      	ldr	r3, [pc, #44]	; (200000dc <system_init_flash+0x3c>)
200000ae:	4298      	cmp	r0, r3
200000b0:	bf94      	ite	ls
200000b2:	f44f 7200 	movls.w	r2, #512	; 0x200
200000b6:	f44f 7240 	movhi.w	r2, #768	; 0x300
200000ba:	4b09      	ldr	r3, [pc, #36]	; (200000e0 <system_init_flash+0x40>)
200000bc:	601a      	str	r2, [r3, #0]
200000be:	4770      	bx	lr
200000c0:	2200      	movs	r2, #0
200000c2:	4b07      	ldr	r3, [pc, #28]	; (200000e0 <system_init_flash+0x40>)
200000c4:	601a      	str	r2, [r3, #0]
200000c6:	4770      	bx	lr
200000c8:	f44f 7280 	mov.w	r2, #256	; 0x100
200000cc:	4b04      	ldr	r3, [pc, #16]	; (200000e0 <system_init_flash+0x40>)
200000ce:	601a      	str	r2, [r3, #0]
200000d0:	4770      	bx	lr
200000d2:	bf00      	nop
200000d4:	0103663f 	.word	0x0103663f
200000d8:	01c9c37f 	.word	0x01c9c37f
200000dc:	0337f97f 	.word	0x0337f97f
200000e0:	400e0a00 	.word	0x400e0a00

200000e4 <udi_api_cdc_comm>:
200000e4:	0040013d 00400189 004001bd 004001b9     =.@...@...@...@.
200000f4:	00000000                                ....

200000f8 <udi_api_cdc_data>:
200000f8:	00400505 00400199 004001b5 004001b9     ..@...@...@...@.
20000108:	004003c5                                ..@.

2000010c <udc_string_desc_languageid>:
2000010c:	04090304                                ....

20000110 <comInterface>:
20000110:	00402649 00402659 00402669 00402679     I&@.Y&@.i&@.y&@.
20000120:	00402699 00000000 00000000 00000000     .&@.............
	...

2000018c <udc_config>:
2000018c:	200001e4 20000198 00000000              ... ... ....

20000198 <udc_config_fs>:
20000198:	200001a0 200001f8                       ... ... 

200001a0 <udc_desc_fs>:
200001a0:	00430209 c0000102 00040932 02020100     ..C.....2.......
200001b0:	24050001 04011000 05020224 01000624     ...$....$...$...
200001c0:	03012405 83050701 10004003 00010409     .$.......@......
200001d0:	00000a02 81050700 00004002 02020507     .........@......
200001e0:	00000040                                @...

200001e4 <udc_device_desc>:
200001e4:	02000112 40000002 240403eb 00000100     .......@...$....
200001f4:	00000100                                ....

200001f8 <udi_apis>:
200001f8:	200000e4 200000f8                       ... ... 

20000200 <g_interrupt_enabled>:
20000200:	00000001                                ....

20000204 <SystemCoreClock>:
20000204:	003d0900                                ..=.

20000208 <_impure_ptr>:
20000208:	20000210 00000000                       ... ....

20000210 <impure_data>:
20000210:	00000000 200004fc 20000564 200005cc     ....... d.. ... 
	...
200002b8:	00000001 00000000 abcd330e e66d1234     .........3..4.m.
200002c8:	0005deec 0000000b 00000000 00000000     ................
	...

20000638 <__atexit_recursive_mutex>:
20000638:	20000eb0                                ... 

2000063c <__global_locale>:
2000063c:	00000043 00000000 00000000 00000000     C...............
	...
2000065c:	00000043 00000000 00000000 00000000     C...............
	...
2000067c:	00000043 00000000 00000000 00000000     C...............
	...
2000069c:	00000043 00000000 00000000 00000000     C...............
	...
200006bc:	00000043 00000000 00000000 00000000     C...............
	...
200006dc:	00000043 00000000 00000000 00000000     C...............
	...
200006fc:	00000043 00000000 00000000 00000000     C...............
	...
2000071c:	00407291 00406675 00000000 004082d4     .r@.uf@.......@.
2000072c:	004081d0 0040809c 0040809c 0040809c     ..@...@...@...@.
2000073c:	0040809c 0040809c 0040809c 0040809c     ..@...@...@...@.
2000074c:	0040809c 0040809c ffffffff ffffffff     ..@...@.........
2000075c:	ffffffff 0000ffff 53410001 00494943     ..........ASCII.
	...
20000784:	53410000 00494943 00000000 00000000     ..ASCII.........
	...

200007a8 <__malloc_av_>:
	...
200007b0:	200007a8 200007a8 200007b0 200007b0     ... ... ... ... 
200007c0:	200007b8 200007b8 200007c0 200007c0     ... ... ... ... 
200007d0:	200007c8 200007c8 200007d0 200007d0     ... ... ... ... 
200007e0:	200007d8 200007d8 200007e0 200007e0     ... ... ... ... 
200007f0:	200007e8 200007e8 200007f0 200007f0     ... ... ... ... 
20000800:	200007f8 200007f8 20000800 20000800     ... ... ... ... 
20000810:	20000808 20000808 20000810 20000810     ... ... ... ... 
20000820:	20000818 20000818 20000820 20000820     ... ...  ..  .. 
20000830:	20000828 20000828 20000830 20000830     (.. (.. 0.. 0.. 
20000840:	20000838 20000838 20000840 20000840     8.. 8.. @.. @.. 
20000850:	20000848 20000848 20000850 20000850     H.. H.. P.. P.. 
20000860:	20000858 20000858 20000860 20000860     X.. X.. `.. `.. 
20000870:	20000868 20000868 20000870 20000870     h.. h.. p.. p.. 
20000880:	20000878 20000878 20000880 20000880     x.. x.. ... ... 
20000890:	20000888 20000888 20000890 20000890     ... ... ... ... 
200008a0:	20000898 20000898 200008a0 200008a0     ... ... ... ... 
200008b0:	200008a8 200008a8 200008b0 200008b0     ... ... ... ... 
200008c0:	200008b8 200008b8 200008c0 200008c0     ... ... ... ... 
200008d0:	200008c8 200008c8 200008d0 200008d0     ... ... ... ... 
200008e0:	200008d8 200008d8 200008e0 200008e0     ... ... ... ... 
200008f0:	200008e8 200008e8 200008f0 200008f0     ... ... ... ... 
20000900:	200008f8 200008f8 20000900 20000900     ... ... ... ... 
20000910:	20000908 20000908 20000910 20000910     ... ... ... ... 
20000920:	20000918 20000918 20000920 20000920     ... ...  ..  .. 
20000930:	20000928 20000928 20000930 20000930     (.. (.. 0.. 0.. 
20000940:	20000938 20000938 20000940 20000940     8.. 8.. @.. @.. 
20000950:	20000948 20000948 20000950 20000950     H.. H.. P.. P.. 
20000960:	20000958 20000958 20000960 20000960     X.. X.. `.. `.. 
20000970:	20000968 20000968 20000970 20000970     h.. h.. p.. p.. 
20000980:	20000978 20000978 20000980 20000980     x.. x.. ... ... 
20000990:	20000988 20000988 20000990 20000990     ... ... ... ... 
200009a0:	20000998 20000998 200009a0 200009a0     ... ... ... ... 
200009b0:	200009a8 200009a8 200009b0 200009b0     ... ... ... ... 
200009c0:	200009b8 200009b8 200009c0 200009c0     ... ... ... ... 
200009d0:	200009c8 200009c8 200009d0 200009d0     ... ... ... ... 
200009e0:	200009d8 200009d8 200009e0 200009e0     ... ... ... ... 
200009f0:	200009e8 200009e8 200009f0 200009f0     ... ... ... ... 
20000a00:	200009f8 200009f8 20000a00 20000a00     ... ... ... ... 
20000a10:	20000a08 20000a08 20000a10 20000a10     ... ... ... ... 
20000a20:	20000a18 20000a18 20000a20 20000a20     ... ...  ..  .. 
20000a30:	20000a28 20000a28 20000a30 20000a30     (.. (.. 0.. 0.. 
20000a40:	20000a38 20000a38 20000a40 20000a40     8.. 8.. @.. @.. 
20000a50:	20000a48 20000a48 20000a50 20000a50     H.. H.. P.. P.. 
20000a60:	20000a58 20000a58 20000a60 20000a60     X.. X.. `.. `.. 
20000a70:	20000a68 20000a68 20000a70 20000a70     h.. h.. p.. p.. 
20000a80:	20000a78 20000a78 20000a80 20000a80     x.. x.. ... ... 
20000a90:	20000a88 20000a88 20000a90 20000a90     ... ... ... ... 
20000aa0:	20000a98 20000a98 20000aa0 20000aa0     ... ... ... ... 
20000ab0:	20000aa8 20000aa8 20000ab0 20000ab0     ... ... ... ... 
20000ac0:	20000ab8 20000ab8 20000ac0 20000ac0     ... ... ... ... 
20000ad0:	20000ac8 20000ac8 20000ad0 20000ad0     ... ... ... ... 
20000ae0:	20000ad8 20000ad8 20000ae0 20000ae0     ... ... ... ... 
20000af0:	20000ae8 20000ae8 20000af0 20000af0     ... ... ... ... 
20000b00:	20000af8 20000af8 20000b00 20000b00     ... ... ... ... 
20000b10:	20000b08 20000b08 20000b10 20000b10     ... ... ... ... 
20000b20:	20000b18 20000b18 20000b20 20000b20     ... ...  ..  .. 
20000b30:	20000b28 20000b28 20000b30 20000b30     (.. (.. 0.. 0.. 
20000b40:	20000b38 20000b38 20000b40 20000b40     8.. 8.. @.. @.. 
20000b50:	20000b48 20000b48 20000b50 20000b50     H.. H.. P.. P.. 
20000b60:	20000b58 20000b58 20000b60 20000b60     X.. X.. `.. `.. 
20000b70:	20000b68 20000b68 20000b70 20000b70     h.. h.. p.. p.. 
20000b80:	20000b78 20000b78 20000b80 20000b80     x.. x.. ... ... 
20000b90:	20000b88 20000b88 20000b90 20000b90     ... ... ... ... 
20000ba0:	20000b98 20000b98 20000ba0 20000ba0     ... ... ... ... 

20000bb0 <__malloc_sbrk_base>:
20000bb0:	ffffffff                                ....

20000bb4 <__malloc_trim_threshold>:
20000bb4:	00020000                                ....
